MPASM 5.75  MPU-5X RECEIVER MOMENTARY MODE-1   4-2-2018  15:19:27         PAGE  1


LOC  OBJECT CODE     LINE SOURCE TEXT
  VALUE

                      00001 
                      00002 ; PICBASIC PRO(TM) Compiler 3.1.1.4, (c) 1997, 2018 ME Labs, Inc. All Rights Reserved. 
  00000001            00003 MPASMX_USED                     EQU     1
                      00004 
                      00005 #define PBP_PATH        C:\PROGRAM FILES (X86)\PBP3\
                      00006 
                      00007 
                      00008 
                      00009 
                      00016         LIST
                      00017         LIST p = 18F26K22, r = dec, w = -311, w = -230, f = inhx32
                      00018         INCLUDE "P18F26K22.INC" ; MPASM  Header
                      00001         LIST
                      00002 
                      00003 ;==========================================================================
                      00004 ; Build date : Jul 02 2017
                      00005 ;  MPASM PIC18F26K22 processor include
                      00006 ; 
                      00007 ;  (c) Copyright 1999-2017 Microchip Technology, All rights reserved
                      00008 ;==========================================================================
                      00009 
                      02671         LIST
                      00021         LIST
  00F00000            00022 EEPROM_START    EQU     0F00000h
  00000040            00023 BLOCK_SIZE      EQU     64
                      00024 
                      00025 
                      00026 PBP_HARDWAREDEF  macro
                      00027   endm
                      00028 
                      00029 
08 1F 3F BD 81 0F C0 000030     CONFIG  FOSC = INTIO67        ; Internal oscillator block
       F E0 0F 40 
                      00031     CONFIG  PLLCFG = OFF          ; Oscillator used directly
                      00032     CONFIG  PRICLKEN = OFF        ; Primary clock can be disabled by software
                      00033     CONFIG  FCMEN = OFF           ; Fail-Safe Clock Monitor disabled
                      00034     CONFIG  IESO = OFF            ; Oscillator Switchover mode disabled
                      00035     CONFIG  PWRTEN = OFF          ; Power up timer disabled
                      00036     CONFIG  BOREN = SBORDIS       ; Brown-out Reset enabled in hardware only (SBOREN is disabled)
                      00037     CONFIG  BORV = 190            ; VBOR set to 1.90 V nominal
                      00038     CONFIG  WDTEN = ON            ; WDT is always enabled. SWDTEN bit has no effect
                      00039     CONFIG  WDTPS = 32768         ; 1:32768
                      00040     CONFIG  CCP2MX = PORTC1       ; CCP2 input/output is multiplexed with RC1
                      00041     CONFIG  PBADEN = OFF          ; PORTB<5:0> pins are configured as digital I/O on Reset
                      00042     CONFIG  CCP3MX = PORTB5       ; P3A/CCP3 input/output is multiplexed with RB5
                      00043     CONFIG  HFOFST = ON           ; HFINTOSC output and ready status are not delayed by the oscillator s
                            table status
                      00044     CONFIG  T3CMX = PORTC0        ; T3CKI is on RC0
                      00045     CONFIG  P2BMX = PORTB5        ; P2B is on RB5
                      00046     CONFIG  MCLRE = EXTMCLR       ; MCLR pin enabled, RE3 input pin disabled
                      00047     CONFIG  STVREN = ON           ; Stack full/underflow will cause Reset
                      00048     CONFIG  LVP = OFF             ; Single-Supply ICSP disabled
                      00049     CONFIG  XINST = OFF           ; Instruction set extension and Indexed Addressing mode disabled (Lega
MPASM 5.75  MPU-5X RECEIVER MOMENTARY MODE-1   4-2-2018  15:19:27         PAGE  2


LOC  OBJECT CODE     LINE SOURCE TEXT
  VALUE

                            cy mode)
                      00050     CONFIG  DEBUG = OFF           ; Disabled
                      00051     CONFIG  CP0 = OFF             ; Block 0 (000800-003FFFh) not code-protected
                      00052     CONFIG  CP1 = OFF             ; Block 1 (004000-007FFFh) not code-protected
                      00053     CONFIG  CP2 = OFF             ; Block 2 (008000-00BFFFh) not code-protected
                      00054     CONFIG  CP3 = OFF             ; Block 3 (00C000-00FFFFh) not code-protected
                      00055     CONFIG  CPB = OFF             ; Boot block (000000-0007FFh) not code-protected
                      00056     CONFIG  CPD = OFF             ; Data EEPROM not code-protected
                      00057     CONFIG  WRT0 = OFF            ; Block 0 (000800-003FFFh) not write-protected
                      00058     CONFIG  WRT1 = OFF            ; Block 1 (004000-007FFFh) not write-protected
                      00059     CONFIG  WRT2 = OFF            ; Block 2 (008000-00BFFFh) not write-protected
                      00060     CONFIG  WRT3 = OFF            ; Block 3 (00C000-00FFFFh) not write-protected
                      00061     CONFIG  WRTC = OFF            ; Configuration registers (300000-3000FFh) not write-protected
                      00062     CONFIG  WRTB = OFF            ; Boot Block (000000-0007FFh) not write-protected
                      00063     CONFIG  WRTD = OFF            ; Data EEPROM not write-protected
                      00064     CONFIG  EBTR0 = OFF           ; Block 0 (000800-003FFFh) not protected from table reads executed in 
                            other blocks
                      00065     CONFIG  EBTR1 = OFF           ; Block 1 (004000-007FFFh) not protected from table reads executed in 
                            other blocks
                      00066     CONFIG  EBTR2 = OFF           ; Block 2 (008000-00BFFFh) not protected from table reads executed in 
                            other blocks
                      00067     CONFIG  EBTR3 = OFF           ; Block 3 (00C000-00FFFFh) not protected from table reads executed in 
                            other blocks
                      00068     CONFIG  EBTRB = OFF           ; Boot Block (000000-0007FFh) not protected from table reads executed 
                            in other blocks
                      00069 
                      00070 
                      00071 
                      00072 ; Define statements.
                      00073 ; C:\PROGRAM FILES (X86)\PBP3\DEVICES\PIC18F26K22.PBPINC        00392   DEFINE  ADC_CHANNELS  1
                      00074 #define         ADC_CHANNELS              1
                      00075 ; C:\USERS\ANDREW MCENTEE\DOCUMENTS\NTH SOLUTIONS\URICCHIO\PBP3\MPU-5X RECEIVER MOMENTARY MODE-1.PBP    
                            00066   define OSC 32        
                      00076 #define         OSC              32        
                      00077 
  00000000            00078 RAM_START                       EQU     00000h
  00000F37            00079 RAM_END                         EQU     00F37h
  00000010            00080 RAM_BANKS                       EQU     00010h
  00000060            00081 BANK0_START                     EQU     00060h
  000000FF            00082 BANK0_END                       EQU     000FFh
  00000100            00083 BANK1_START                     EQU     00100h
  000001FF            00084 BANK1_END                       EQU     001FFh
  00000200            00085 BANK2_START                     EQU     00200h
  000002FF            00086 BANK2_END                       EQU     002FFh
  00000300            00087 BANK3_START                     EQU     00300h
  000003FF            00088 BANK3_END                       EQU     003FFh
  00000400            00089 BANK4_START                     EQU     00400h
  000004FF            00090 BANK4_END                       EQU     004FFh
  00000500            00091 BANK5_START                     EQU     00500h
  000005FF            00092 BANK5_END                       EQU     005FFh
  00000600            00093 BANK6_START                     EQU     00600h
  000006FF            00094 BANK6_END                       EQU     006FFh
  00000700            00095 BANK7_START                     EQU     00700h
MPASM 5.75  MPU-5X RECEIVER MOMENTARY MODE-1   4-2-2018  15:19:27         PAGE  3


LOC  OBJECT CODE     LINE SOURCE TEXT
  VALUE

  000007FF            00096 BANK7_END                       EQU     007FFh
  00000800            00097 BANK8_START                     EQU     00800h
  000008FF            00098 BANK8_END                       EQU     008FFh
  00000900            00099 BANK9_START                     EQU     00900h
  000009FF            00100 BANK9_END                       EQU     009FFh
  00000A00            00101 BANK10_START                    EQU     00A00h
  00000AFF            00102 BANK10_END                      EQU     00AFFh
  00000B00            00103 BANK11_START                    EQU     00B00h
  00000BFF            00104 BANK11_END                      EQU     00BFFh
  00000C00            00105 BANK12_START                    EQU     00C00h
  00000CFF            00106 BANK12_END                      EQU     00CFFh
  00000D00            00107 BANK13_START                    EQU     00D00h
  00000DFF            00108 BANK13_END                      EQU     00DFFh
  00000E00            00109 BANK14_START                    EQU     00E00h
  00000EFF            00110 BANK14_END                      EQU     00EFFh
  00000F00            00111 BANK15_START                    EQU     00F00h
  00000F37            00112 BANK15_END                      EQU     00F37h
  00000000            00113 BANKA_START                     EQU     00000h
  0000005F            00114 BANKA_END                       EQU     0005Fh
                      00115 
                      00116 ; C:\PROGRAM FILES (X86)\PBP3\PBPPIC18.RAM      00028   A00000  FLAGS   VAR     BYTE BANKA SYSTEM       
                            ' Static flags
  00000000            00117 FLAGS                           EQU     RAM_START + 000h
                      00118 ; C:\PROGRAM FILES (X86)\PBP3\PBPPIC18.RAM      00027   A00001  GOP     VAR     BYTE BANKA SYSTEM       
                            ' Gen Op Parameter
  00000001            00119 GOP                             EQU     RAM_START + 001h
                      00120 ; C:\PROGRAM FILES (X86)\PBP3\PBPPIC18.RAM      00012   A00002  R0      VAR     WORD BANKA SYSTEM       
                            ' System Register
  00000002            00121 R0                              EQU     RAM_START + 002h
                      00122 ; C:\PROGRAM FILES (X86)\PBP3\PBPPIC18.RAM      00013   A00004  R1      VAR     WORD BANKA SYSTEM       
                            ' System Register
  00000004            00123 R1                              EQU     RAM_START + 004h
                      00124 ; C:\PROGRAM FILES (X86)\PBP3\PBPPIC18.RAM      00014   A00006  R2      VAR     WORD BANKA SYSTEM       
                            ' System Register
  00000006            00125 R2                              EQU     RAM_START + 006h
                      00126 ; C:\PROGRAM FILES (X86)\PBP3\PBPPIC18.RAM      00015   A00008  R3      VAR     WORD BANKA SYSTEM       
                            ' System Register
  00000008            00127 R3                              EQU     RAM_START + 008h
                      00128 ; C:\PROGRAM FILES (X86)\PBP3\PBPPIC18.RAM      00016   A0000A  R4      VAR     WORD BANKA SYSTEM       
                            ' System Register
  0000000A            00129 R4                              EQU     RAM_START + 00Ah
                      00130 ; C:\PROGRAM FILES (X86)\PBP3\PBPPIC18.RAM      00017   A0000C  R5      VAR     WORD BANKA SYSTEM       
                            ' System Register
  0000000C            00131 R5                              EQU     RAM_START + 00Ch
                      00132 ; C:\PROGRAM FILES (X86)\PBP3\PBPPIC18.RAM      00018   A0000E  R6      VAR     WORD BANKA SYSTEM       
                            ' System Register
  0000000E            00133 R6                              EQU     RAM_START + 00Eh
                      00134 ; C:\PROGRAM FILES (X86)\PBP3\PBPPIC18.RAM      00019   A00010  R7      VAR     WORD BANKA SYSTEM       
                            ' System Register
  00000010            00135 R7                              EQU     RAM_START + 010h
                      00136 ; C:\PROGRAM FILES (X86)\PBP3\PBPPIC18.RAM      00020   A00012  R8      VAR     WORD BANKA SYSTEM       
                            ' System Register
  00000012            00137 R8                              EQU     RAM_START + 012h
MPASM 5.75  MPU-5X RECEIVER MOMENTARY MODE-1   4-2-2018  15:19:27         PAGE  4


LOC  OBJECT CODE     LINE SOURCE TEXT
  VALUE

                      00138 ; C:\PROGRAM FILES (X86)\PBP3\PBPPIC18.RAM      00023   A00014  RM1     VAR     BYTE BANKA SYSTEM       
                            ' Pin 1 Mask
  00000014            00139 RM1                             EQU     RAM_START + 014h
                      00140 ; C:\PROGRAM FILES (X86)\PBP3\PBPPIC18.RAM      00026   A00015  RM2     VAR     BYTE BANKA SYSTEM       
                            ' Pin 2 Mask
  00000015            00141 RM2                             EQU     RAM_START + 015h
                      00142 ; C:\PROGRAM FILES (X86)\PBP3\PBPPIC18.RAM      00021   A00016  RR1     VAR     BYTE BANKA SYSTEM       
                            ' Pin 1 Register
  00000016            00143 RR1                             EQU     RAM_START + 016h
                      00144 ; C:\PROGRAM FILES (X86)\PBP3\PBPPIC18.RAM      00024   A00017  RR2     VAR     BYTE BANKA SYSTEM       
                            ' Pin 2 Register
  00000017            00145 RR2                             EQU     RAM_START + 017h
                      00146 ; C:\PROGRAM FILES (X86)\PBP3\PBPPIC18.RAM      00022   A00018  RS1     VAR     BYTE BANKA SYSTEM       
                            ' Pin 1 Bank
  00000018            00147 RS1                             EQU     RAM_START + 018h
                      00148 ; C:\PROGRAM FILES (X86)\PBP3\PBPPIC18.RAM      00025   A00019  RS2     VAR     BYTE BANKA SYSTEM       
                            ' Pin 2 Bank
  00000019            00149 RS2                             EQU     RAM_START + 019h
                      00150 ; C:\USERS\ANDREW MCENTEE\DOCUMENTS\NTH SOLUTIONS\URICCHIO\PBP3\MPU-5X RECEIVER MOMENTARY MODE-1.PBP    
                            00124   A0001A  SW_OFF              VAR     WORD
  0000001A            00151 _SW_OFF                         EQU     RAM_START + 01Ah
                      00152 ; C:\USERS\ANDREW MCENTEE\DOCUMENTS\NTH SOLUTIONS\URICCHIO\PBP3\MPU-5X RECEIVER MOMENTARY MODE-1.PBP    
                            00123   A0001C  SW_ON               VAR     WORD
  0000001C            00153 _SW_ON                          EQU     RAM_START + 01Ch
                      00154 ; C:\USERS\ANDREW MCENTEE\DOCUMENTS\NTH SOLUTIONS\URICCHIO\PBP3\MPU-5X RECEIVER MOMENTARY MODE-1.PBP    
                            00125   A0001E  SWITCH_PRESSES      VAR     WORD
  0000001E            00155 _SWITCH_PRESSES                 EQU     RAM_START + 01Eh
                      00156 ; C:\PROGRAM FILES (X86)\PBP3\DEVICES\PIC18F26K22.PBPINC        00393   PORTL   VAR     PORTB
  00000F81            00157 _PORTL                          EQU      PORTB
                      00158 ; C:\PROGRAM FILES (X86)\PBP3\DEVICES\PIC18F26K22.PBPINC        00394   PORTH   VAR     PORTC
  00000F82            00159 _PORTH                          EQU      PORTC
                      00160 ; C:\PROGRAM FILES (X86)\PBP3\DEVICES\PIC18F26K22.PBPINC        00395   TRISL   VAR     TRISB
  00000F93            00161 _TRISL                          EQU      TRISB
                      00162 ; C:\PROGRAM FILES (X86)\PBP3\DEVICES\PIC18F26K22.PBPINC        00396   TRISH   VAR     TRISC
  00000F94            00163 _TRISH                          EQU      TRISC
                      00164 #define _BLUE_LED               _PORTA??0
                      00165 #define _RED_LED                _PORTA??1
                      00166 #define _PWR_ON                 _PORTA??2
                      00167 #define _ADO                    _PORTA??3
                      00168 #define _RCVR_D0                _PORTA??5
                      00169 #define _GRN_LED                _PORTC??0
                      00170 #define _FLASH_CS               _PORTC??1
                      00171 #define _RCVR_D1                _PORTC??2
                      00172 #define _SCK                    _PORTC??3
                      00173 #define _SDO                    _PORTC??4
                      00174 #define _SDI                    _PORTC??5
                      00175 #define _RCVR_VT                _PORTC??6
                      00176 #define _UART_TX                _PORTC??7
                      00177 #define _UART_RX                _PORTB??0
                      00178 #define _SCL                    _PORTB??1
                      00179 #define _SDA                    _PORTB??2
                      00180 #define _INT_9250               _PORTB??3
                      00181 #define _VBATT_MON              _PORTB??4
MPASM 5.75  MPU-5X RECEIVER MOMENTARY MODE-1   4-2-2018  15:19:27         PAGE  5


LOC  OBJECT CODE     LINE SOURCE TEXT
  VALUE

                      00182 #define _PB                     _PORTB??5
                      00183 #define _PORTA??0                PORTA, 000h
                      00184 #define _PORTA??1                PORTA, 001h
                      00185 #define _PORTA??2                PORTA, 002h
                      00186 #define _PORTA??3                PORTA, 003h
                      00187 #define _PORTA??5                PORTA, 005h
                      00188 #define _PORTC??0                PORTC, 000h
                      00189 #define _PORTC??1                PORTC, 001h
                      00190 #define _PORTC??2                PORTC, 002h
                      00191 #define _PORTC??3                PORTC, 003h
                      00192 #define _PORTC??4                PORTC, 004h
                      00193 #define _PORTC??5                PORTC, 005h
                      00194 #define _PORTC??6                PORTC, 006h
                      00195 #define _PORTC??7                PORTC, 007h
                      00196 #define _PORTB??0                PORTB, 000h
                      00197 #define _PORTB??1                PORTB, 001h
                      00198 #define _PORTB??2                PORTB, 002h
                      00199 #define _PORTB??3                PORTB, 003h
                      00200 #define _PORTB??4                PORTB, 004h
                      00201 #define _PORTB??5                PORTB, 005h
                      00202 
                      00203 ; Constants.
  00000000            00204 _T2400                          EQU     00000h
  00000001            00205 _T1200                          EQU     00001h
  00000002            00206 _T9600                          EQU     00002h
  00000003            00207 _T300                           EQU     00003h
  00000004            00208 _N2400                          EQU     00004h
  00000005            00209 _N1200                          EQU     00005h
  00000006            00210 _N9600                          EQU     00006h
  00000007            00211 _N300                           EQU     00007h
  00000008            00212 _OT2400                         EQU     00008h
  00000009            00213 _OT1200                         EQU     00009h
  0000000A            00214 _OT9600                         EQU     0000Ah
  0000000B            00215 _OT300                          EQU     0000Bh
  0000000C            00216 _ON2400                         EQU     0000Ch
  0000000D            00217 _ON1200                         EQU     0000Dh
  0000000E            00218 _ON9600                         EQU     0000Eh
  0000000F            00219 _ON300                          EQU     0000Fh
  00000000            00220 _MSBPRE                         EQU     00000h
  00000001            00221 _LSBPRE                         EQU     00001h
  00000002            00222 _MSBPOST                        EQU     00002h
  00000003            00223 _LSBPOST                        EQU     00003h
  00000000            00224 _LSBFIRST                       EQU     00000h
  00000001            00225 _MSBFIRST                       EQU     00001h
  00000000            00226 _CLS                            EQU     00000h
  00000001            00227 _HOME                           EQU     00001h
  00000007            00228 _BELL                           EQU     00007h
  00000008            00229 _BKSP                           EQU     00008h
  00000009            00230 _TAB                            EQU     00009h
  0000000D            00231 _CR                             EQU     0000Dh
  00000012            00232 _UnitOn                         EQU     00012h
  0000001A            00233 _UnitOff                        EQU     0001Ah
  0000001C            00234 _UnitsOff                       EQU     0001Ch
MPASM 5.75  MPU-5X RECEIVER MOMENTARY MODE-1   4-2-2018  15:19:27         PAGE  6


LOC  OBJECT CODE     LINE SOURCE TEXT
  VALUE

  00000014            00235 _LightsOn                       EQU     00014h
  00000010            00236 _LightsOff                      EQU     00010h
  0000001E            00237 _Dim                            EQU     0001Eh
  00000016            00238 _Bright                         EQU     00016h
  00000004            00239 _NOCURS                         EQU     00004h
  0000000C            00240 _CLRLCD                         EQU     0000Ch
  0000000E            00241 _LITEON                         EQU     0000Eh
  0000000F            00242 _LITEOFF                        EQU     0000Fh
  00000010            00243 _POSCMD                         EQU     00010h
  00000040            00244 _LINE1                          EQU     00040h
  00000054            00245 _LINE2                          EQU     00054h
  00000068            00246 _LINE3                          EQU     00068h
  0000007C            00247 _LINE4                          EQU     0007Ch
  00000001            00248 _DATA_OUT_BYPASS                EQU     00001h
                      00249 
                      00250 ; EEPROM data.
                      00251 
                      00252 
                      00253         INCLUDE "MPU-5X RECEIVER MOMENTARY MODE-1.MAC"
                      00001 
                      00092         LIST
                      00254         INCLUDE "C:\PROGRAM FILES (X86)\PBP3\PBPPIC18.LIB"
                      00001 ;******************************************************************
                      00002 ;*  PBPPIC18.LIB                                                  *
                      00003 ;*                                                                *
                      00004 ;*  By        : Leonard Zerman, Jeff Schmoyer, Darrel Taylor,     *
                      00005 ;*              Charles Leo                                       *
                      00006 ;*  Notice    : Copyright (c) 2017 microEngineering Labs, Inc.    *
                      00007 ;*              All Rights Reserved                               *
                      00008 ;*  Date      : 03/27/2017                                        *
                      00009 ;*  Version   : 3.1.0                                             *
                      00010 ;*  Notes     :                                                   *
                      00011 ;******************************************************************
                      00111   LIST
                      00112 ; Oscillator is 32MHz
                      01228   LIST
000000                01229     ORG RESET_ORG               ; Reset vector at 0
                      01238   LIST
000000 EF5C F000      01239         goto    INIT            ; Finish initialization
                      04342   LIST
000004 6E08           04343 SEROUT  movwf   R3              ; Data to send
000006 C018 FFEA      04344         movff   RS1, FSR0H      ; Point to bank (PORT)
00000A C018 FFE2      04345         movff   RS1, FSR1H      ; Point to bank (TRIS)
00000E 5016           04346         movf    RR1, W          ; Point to PORT
000010 6EE9           04347         movwf   FSR0L
000012 0F12           04348         addlw   12h             ; Point to TRIS
000014 6EE1           04349         movwf   FSR1L
000016 0E09           04350         movlw   9               ; 1 start bit + 8 data bits
000018 6E09           04351         movwf   R3 + 1
00001A 90D8           04352         bcf     STATUS, C       ; Start bit low
00001C D807           04353 seroutloop rcall seroutbit      ; 16+ (20) Send a bit
00001E 3208           04354         rrcf    R3, F           ; 1 Move to next bit
000020 2E09           04355         decfsz  R3 + 1, F       ; 1 / 2 Do next bit, if any
MPASM 5.75  MPU-5X RECEIVER MOMENTARY MODE-1   4-2-2018  15:19:27         PAGE  7


LOC  OBJECT CODE     LINE SOURCE TEXT
  VALUE

000022 D7FC           04356         bra     seroutloop      ; 2 / 0
000024 80D8           04357         bsf     STATUS, C       ; 1 Stop bit high
000026 D802           04358         rcall   seroutbit       ; 16+ Send stop bit (need cycles)
                      04359       ifdef CHAR_PACING
                      04360         movlw   (CHAR_PACING) >> 8
                      04361         movwf   R0 + 1
                      04362         movlw   low (CHAR_PACING)
                      04363         call    PAUSEUSL        ; Delay for character pacing
                      04364       endif
000028 EF59 F000      04365         goto    DUNN
                      04366 
00002C A601           04367 seroutbit btfss GOP, 3          ; 1 / 2 (16+) Check for TRIS mode
00002E D00B           04368         bra     seroutnorm      ; 2 / 0 Go handle normal mode
                      04369 
000030 50EF           04370         movf    INDF0, W        ; 1 Get PORT data
000032 1014           04371         iorwf   RM1, W          ; 1 Set bit on
000034 A401           04372         btfss   GOP, 2          ; 1 / 2 Bit matches invert mode
000036 1814           04373         xorwf   RM1, W          ; 1 / 0 Set bit off
000038 6EEF           04374         movwf   INDF0           ; 1 Write it out
00003A 50E7           04375         movf    INDF1, W        ; 1 Get TRIS data
00003C 1014           04376         iorwf   RM1, W          ; 1 Make bit an input
00003E A0D8           04377         btfss   STATUS, C       ; 1 / 2 Bit direction matches bit
000040 1814           04378         xorwf   RM1, W          ; 1 / 0 Make bit an output
000042 6EE7           04379         movwf   INDF1           ; 1 Write it out
000044 D00A           04380         bra     serdelay        ; 2 + 2 Wait remainder of bit time
                      04381 
000046 50EF           04382 seroutnorm movf  INDF0, W       ; 1 Get PORT data
000048 1014           04383         iorwf   RM1, W          ; 1 Set bit on
00004A A0D8           04384         btfss   STATUS, C       ; 1 / 2 Skip if bit should be on
00004C 1814           04385         xorwf   RM1, W          ; 1 / 0 Set bit off
00004E B401           04386         btfsc   GOP, 2          ; 1 / 2 Invert if 'N' mode
000050 1814           04387         xorwf   RM1, W          ; 1 / 0 Flip for invert
000052 6EEF           04388         movwf   INDF0           ; 1 Write it out
000054 1C14           04389         comf    RM1, W          ; 1 Get complemented bit mask to W
000056 16E7           04390         andwf   INDF1, F        ; 1 Clear TRIS bit to set output
000058 D000           04391         bra     serdelay        ; 2 + 2 Wait remainder of bit time
                      04415   LIST
                      04416       ifdef SERINX_USED
                      04417 sersdelay bsf   GOP, 6          ; Mark short delay
                      04418       endif
00005A 3401           04419 serdelay rlcf   GOP, W          ; 1 (14 + 20) Get baud value x 2
00005C 0B06           04420         andlw   06h             ; 1 Mask to our bits
00005E 0F7A           04421         addlw   low (sertable)  ; 1 Point to table
000060 6EF6           04422         movwf   TBLPTRL         ; 1 Set up table pointer low
000062 6AF7           04423         clrf    TBLPTRH         ; 1 Zero table pointer high
000064 0E00           04424         movlw   high (sertable) ; 1 Set table pointer high
000066 22F7           04425         addwfc  TBLPTRH, F      ; 1
000068 6AF8           04426         clrf    TBLPTRU         ; 1 Zero table pointer upper
00006A 0009           04427         tblrd   *+              ; 2 Get the high value
00006C 50F5           04428         movf    TABLAT, W       ; 1 Move it for PAUSEUS
00006E 6E03           04429         movwf   R0 + 1          ; 1
000070 0008           04430         tblrd   *               ; 2 Get the low value
000072 50F5           04431         movf    TABLAT, W       ; 1 Move it to W
MPASM 5.75  MPU-5X RECEIVER MOMENTARY MODE-1   4-2-2018  15:19:27         PAGE  8


LOC  OBJECT CODE     LINE SOURCE TEXT
  VALUE

                      04432       ifndef SERINX_USED
000074 0000           04433         nop                     ; 1
000076 EF4F F000      04434         goto    PAUSEUSL        ; -2 (PAUSEUSL gives you 2 less than you ask for)
                      04435       else
                      04436         btfss   GOP, 6          ; 1
                      04437         goto    PAUSEUSL        ; -2 (PAUSEUSL gives you 2 less than you ask for)
                      04438         bcf     GOP, 6          ; Clear short delay mark
                      04439         bcf     STATUS, C       ; Divide time by 4
                      04440         rrcf    R0 + 1, F
                      04441         rrcf    WREG, W
                      04442         bcf     STATUS, C
                      04443         rrcf    R0 + 1, F
                      04444         rrcf    WREG, W
                      04445         goto    PAUSEUSL        ; Do 1/4 delay
                      04446       endif
                      04447 
00007A 9D01           04448 sertable db     high (SDELAY_2400), low (SDELAY_2400)
00007C 3D03           04449         db      high (SDELAY_1200), low (SDELAY_1200)
00007E 6400           04450         db      high (SDELAY_9600), low (SDELAY_9600)
000080 010D           04451         db      high (SDELAY_300), low (SDELAY_300)
                      06611   LIST
000082 6A05           06612 PAUSE   clrf    R1 + 1
000084 6E04           06613 PAUSEL  movwf   R1
000086 6AE8           06614 pauseloop clrf  WREG            ; 1 (8) Clear W for subtracts
000088 0604           06615         decf    R1, F           ; 1
00008A 5A05           06616         subwfb  R1 + 1, F       ; 1
00008C A0D8           06617         btfss   STATUS, C       ; 2
00008E EF59 F000      06618         goto    DUNN
000092 0E03           06619         movlw   (PAUSE_DELAY) >> 8      ; 1
000094 6E03           06620         movwf   R0 + 1          ; 1
000096 0EE7           06621         movlw   low (PAUSE_DELAY)       ; 1
000098 D802           06622         rcall   PAUSEUSL        ; -2 (PAUSEUSL gives you 2 less than you ask for)
00009A D7F5           06623         bra     pauseloop       ; 2
                      06908   LIST
00009C 6A03           06909 PAUSEUS clrf    R0 + 1          ; 1
00009E 0FFD           06910 PAUSEUSL addlw  -3              ; 1 Subtract overhead
0000A0 6E02           06911         movwf   R0              ; 1
0000A2 D001           06912         bra     pauseush        ; 2
0000A4 0602           06913 pauseusloop decf R0, F          ; 1
                      06914 pauseush CLRWDT?NOP             ; 1
                          M     ifndef NO_CLRWDT
0000A6 0004               M         clrwdt
                          M     else
                          M         nop
                          M     endif
0000A8 D000           06915         bra     $ + 2           ; 2
0000AA 6AE8           06916         clrf    WREG            ; 1
0000AC 5A03           06917         subwfb  R0 + 1, F       ; 1
0000AE E2FA           06918         bc      pauseusloop     ; 1 / 2
0000B0 0012           06919         return                  ; 2 + 3 (call + setup)
                      08079   LIST
0000B2 0100           08080 DUNN    movlb   0               ; 1 Reset banks to 0
                      08081 DUNN5   CLRWDT?NOP              ; 1 Hit Watchdog timer
MPASM 5.75  MPU-5X RECEIVER MOMENTARY MODE-1   4-2-2018  15:19:27         PAGE  9


LOC  OBJECT CODE     LINE SOURCE TEXT
  VALUE

                          M     ifndef NO_CLRWDT
0000B4 0004               M         clrwdt
                          M     else
                          M         nop
                          M     endif
0000B6 0012           08082         return                  ; 2 Done
                      08095   LIST
0000B8                08096 INIT
                      08132   LIST
0000B8                08133 main
                      00255 
                      00256 
                      00257 ; C:\PROGRAM FILES (X86)\PBP3\DEVICES\PIC18F26K22.PBPINC        00036   #HEADER
                      00258 ; C:\PROGRAM FILES (X86)\PBP3\DEVICES\PIC18F26K22.PBPINC        00061   #CONFIG
                      00259 ; C:\PROGRAM FILES (X86)\PBP3\DEVICES\PIC18F26K22.PBPINC        00365   BANKA   $0000, $005F
                      00260 ; C:\PROGRAM FILES (X86)\PBP3\DEVICES\PIC18F26K22.PBPINC        00366   BANK0   $0060, $00FF
                      00261 ; C:\PROGRAM FILES (X86)\PBP3\DEVICES\PIC18F26K22.PBPINC        00367   BANK1   $0100, $01FF
                      00262 ; C:\PROGRAM FILES (X86)\PBP3\DEVICES\PIC18F26K22.PBPINC        00368   BANK2   $0200, $02FF
                      00263 ; C:\PROGRAM FILES (X86)\PBP3\DEVICES\PIC18F26K22.PBPINC        00369   BANK3   $0300, $03FF
                      00264 ; C:\PROGRAM FILES (X86)\PBP3\DEVICES\PIC18F26K22.PBPINC        00370   BANK4   $0400, $04FF
                      00265 ; C:\PROGRAM FILES (X86)\PBP3\DEVICES\PIC18F26K22.PBPINC        00371   BANK5   $0500, $05FF
                      00266 ; C:\PROGRAM FILES (X86)\PBP3\DEVICES\PIC18F26K22.PBPINC        00372   BANK6   $0600, $06FF
                      00267 ; C:\PROGRAM FILES (X86)\PBP3\DEVICES\PIC18F26K22.PBPINC        00373   BANK7   $0700, $07FF
                      00268 ; C:\PROGRAM FILES (X86)\PBP3\DEVICES\PIC18F26K22.PBPINC        00374   BANK8   $0800, $08FF
                      00269 ; C:\PROGRAM FILES (X86)\PBP3\DEVICES\PIC18F26K22.PBPINC        00375   BANK9   $0900, $09FF
                      00270 ; C:\PROGRAM FILES (X86)\PBP3\DEVICES\PIC18F26K22.PBPINC        00376   BANK10  $0A00, $0AFF
                      00271 ; C:\PROGRAM FILES (X86)\PBP3\DEVICES\PIC18F26K22.PBPINC        00377   BANK11  $0B00, $0BFF
                      00272 ; C:\PROGRAM FILES (X86)\PBP3\DEVICES\PIC18F26K22.PBPINC        00378   BANK12  $0C00, $0CFF
                      00273 ; C:\PROGRAM FILES (X86)\PBP3\DEVICES\PIC18F26K22.PBPINC        00379   BANK13  $0D00, $0DFF
                      00274 ; C:\PROGRAM FILES (X86)\PBP3\DEVICES\PIC18F26K22.PBPINC        00380   BANK14  $0E00, $0EFF
                      00275 ; C:\PROGRAM FILES (X86)\PBP3\DEVICES\PIC18F26K22.PBPINC        00381   BANK15  $0F00, $0F37
                      00276 ; C:\PROGRAM FILES (X86)\PBP3\DEVICES\PIC18F26K22.PBPINC        00387       INCLUDE "PBPPI18L.RAM"
                      00277 ; C:\PROGRAM FILES (X86)\PBP3\DEVICES\PIC18F26K22.PBPINC        00388   #ELSE
                      00278 ; C:\PROGRAM FILES (X86)\PBP3\DEVICES\PIC18F26K22.PBPINC        00389       LIBRARY  "PBPPIC18"
                      00279 
                      00280 ; C:\PROGRAM FILES (X86)\PBP3\DEVICES\PIC18F26K22.PBPINC        00390       INCLUDE "PBPPIC18.RAM"
                      00281 ; C:\PROGRAM FILES (X86)\PBP3\DEVICES\PIC18F26K22.PBPINC        00391   #ENDIF
                      00282 ; C:\PROGRAM FILES (X86)\PBP3\DEVICES\PIC18F26K22.PBPINC        00392   DEFINE  ADC_CHANNELS  1
                      00283 ; C:\PROGRAM FILES (X86)\PBP3\DEVICES\PIC18F26K22.PBPINC        00400   #HEADER
                      00284 
                      00285 ; C:\USERS\ANDREW MCENTEE\DOCUMENTS\NTH SOLUTIONS\URICCHIO\PBP3\MPU-5X RECEIVER MOMENTARY MODE-1.PBP    
                            00065   include "MODEDEFS.BAS"
                      00286 ; C:\PROGRAM FILES (X86)\PBP3\MODEDEFS.BAS      00014   Symbol T2400  = 0       ' Driven True
                      00287 ; C:\PROGRAM FILES (X86)\PBP3\MODEDEFS.BAS      00015   Symbol T1200  = 1       ' Driven True
                      00288 ; C:\PROGRAM FILES (X86)\PBP3\MODEDEFS.BAS      00016   Symbol T9600  = 2       ' Driven True
                      00289 ; C:\PROGRAM FILES (X86)\PBP3\MODEDEFS.BAS      00017   Symbol T300   = 3       ' Driven True
                      00290 ; C:\PROGRAM FILES (X86)\PBP3\MODEDEFS.BAS      00019   Symbol N2400  = 4       ' Driven Inverted
                      00291 ; C:\PROGRAM FILES (X86)\PBP3\MODEDEFS.BAS      00020   Symbol N1200  = 5       ' Driven Inverted
                      00292 ; C:\PROGRAM FILES (X86)\PBP3\MODEDEFS.BAS      00021   Symbol N9600  = 6       ' Driven Inverted
                      00293 ; C:\PROGRAM FILES (X86)\PBP3\MODEDEFS.BAS      00022   Symbol N300   = 7       ' Driven Inverted
                      00294 ; C:\PROGRAM FILES (X86)\PBP3\MODEDEFS.BAS      00024   Symbol OT2400 = 8       ' Open True
                      00295 ; C:\PROGRAM FILES (X86)\PBP3\MODEDEFS.BAS      00025   Symbol OT1200 = 9       ' Open True
                      00296 ; C:\PROGRAM FILES (X86)\PBP3\MODEDEFS.BAS      00026   Symbol OT9600 = 10      ' Open True
MPASM 5.75  MPU-5X RECEIVER MOMENTARY MODE-1   4-2-2018  15:19:27         PAGE 10


LOC  OBJECT CODE     LINE SOURCE TEXT
  VALUE

                      00297 ; C:\PROGRAM FILES (X86)\PBP3\MODEDEFS.BAS      00027   Symbol OT300  = 11      ' Open True
                      00298 ; C:\PROGRAM FILES (X86)\PBP3\MODEDEFS.BAS      00029   Symbol ON2400 = 12      ' Open Inverted
                      00299 ; C:\PROGRAM FILES (X86)\PBP3\MODEDEFS.BAS      00030   Symbol ON1200 = 13      ' Open Inverted
                      00300 ; C:\PROGRAM FILES (X86)\PBP3\MODEDEFS.BAS      00031   Symbol ON9600 = 14      ' Open Inverted
                      00301 ; C:\PROGRAM FILES (X86)\PBP3\MODEDEFS.BAS      00032   Symbol ON300  = 15      ' Open Inverted
                      00302 ; C:\PROGRAM FILES (X86)\PBP3\MODEDEFS.BAS      00036   Symbol MSBPRE = 0       ' MSB first, sample befo
                            re clock
                      00303 ; C:\PROGRAM FILES (X86)\PBP3\MODEDEFS.BAS      00037   Symbol LSBPRE = 1       ' LSB first, sample befo
                            re clock
                      00304 ; C:\PROGRAM FILES (X86)\PBP3\MODEDEFS.BAS      00038   Symbol MSBPOST = 2      ' MSB first, sample afte
                            r clock
                      00305 ; C:\PROGRAM FILES (X86)\PBP3\MODEDEFS.BAS      00039   Symbol LSBPOST = 3      ' LSB first, sample afte
                            r clock
                      00306 ; C:\PROGRAM FILES (X86)\PBP3\MODEDEFS.BAS      00042   Symbol LSBFIRST = 0     ' LSB first
                      00307 ; C:\PROGRAM FILES (X86)\PBP3\MODEDEFS.BAS      00043   Symbol MSBFIRST = 1     ' MSB first
                      00308 ; C:\PROGRAM FILES (X86)\PBP3\MODEDEFS.BAS      00047   Symbol CLS = 0
                      00309 ; C:\PROGRAM FILES (X86)\PBP3\MODEDEFS.BAS      00048   Symbol HOME = 1
                      00310 ; C:\PROGRAM FILES (X86)\PBP3\MODEDEFS.BAS      00049   Symbol BELL = 7
                      00311 ; C:\PROGRAM FILES (X86)\PBP3\MODEDEFS.BAS      00050   Symbol BKSP = 8
                      00312 ; C:\PROGRAM FILES (X86)\PBP3\MODEDEFS.BAS      00051   Symbol TAB = 9
                      00313 ; C:\PROGRAM FILES (X86)\PBP3\MODEDEFS.BAS      00052   Symbol CR = 13
                      00314 ; C:\PROGRAM FILES (X86)\PBP3\MODEDEFS.BAS      00056   Symbol UnitOn = %10010
                      00315 ; C:\PROGRAM FILES (X86)\PBP3\MODEDEFS.BAS      00057   Symbol UnitOff = %11010
                      00316 ; C:\PROGRAM FILES (X86)\PBP3\MODEDEFS.BAS      00058   Symbol UnitsOff = %11100
                      00317 ; C:\PROGRAM FILES (X86)\PBP3\MODEDEFS.BAS      00059   Symbol LightsOn = %10100
                      00318 ; C:\PROGRAM FILES (X86)\PBP3\MODEDEFS.BAS      00060   Symbol LightsOff = %10000
                      00319 ; C:\PROGRAM FILES (X86)\PBP3\MODEDEFS.BAS      00061   Symbol Dim = %11110
                      00320 ; C:\PROGRAM FILES (X86)\PBP3\MODEDEFS.BAS      00062   Symbol Bright = %10110
                      00321 ; C:\USERS\ANDREW MCENTEE\DOCUMENTS\NTH SOLUTIONS\URICCHIO\PBP3\MPU-5X RECEIVER MOMENTARY MODE-1.PBP    
                            00066   define OSC 32        
                      00322 
                      00323 ; C:\USERS\ANDREW MCENTEE\DOCUMENTS\NTH SOLUTIONS\URICCHIO\PBP3\MPU-5X RECEIVER MOMENTARY MODE-1.PBP    
                            00068   OSCCON = %11101000              'USE CRYSTAL OSCILLATOR AT 8 MHZ
                      00324         MOVE?CB 0E8h, OSCCON
                          M         CHK?RP  OSCCON
                          M     if (((OSCCON) & 8000h) != PREV_ALT)
                          M       if ((OSCCON) & 8000h)
                          M         bsf     WDTCON, ADSHR
                          M       else
                          M         bcf     WDTCON, ADSHR
                          M       endif
                          M PREV_ALT = (OSCCON) & 8000h
                          M     endif
                          M     if ((((OSCCON) & 0fffh) > BANKA_END) & (((OSCCON) & 0fffh) < (0f01h + BANKA_END)))
                          M       if (((OSCCON) & 0f00h) != (PREV_BANK << 8))
                          M         movlb   high (OSCCON)
                          M PREV_BANK = high (OSCCON)
                          M       endif
                          M     endif
                          M     if (low (0E8h) == 0)
                          M         clrf    OSCCON
                          M     else
                          M       if (low (0E8h) == 255)
MPASM 5.75  MPU-5X RECEIVER MOMENTARY MODE-1   4-2-2018  15:19:27         PAGE 11


LOC  OBJECT CODE     LINE SOURCE TEXT
  VALUE

                          M         setf    OSCCON
                          M       else
0000B8 0EE8               M         movlw   low (0E8h)
0000BA 6ED3               M         movwf   OSCCON
                          M       endif
                          M     endif
                      00325 
                      00326 ; C:\USERS\ANDREW MCENTEE\DOCUMENTS\NTH SOLUTIONS\URICCHIO\PBP3\MPU-5X RECEIVER MOMENTARY MODE-1.PBP    
                            00069   OSCCON2 = %10000000             'ENABLE 4xPLL
                      00327         MOVE?CB 080h, OSCCON2
                          M         CHK?RP  OSCCON2
                          M     if (((OSCCON2) & 8000h) != PREV_ALT)
                          M       if ((OSCCON2) & 8000h)
                          M         bsf     WDTCON, ADSHR
                          M       else
                          M         bcf     WDTCON, ADSHR
                          M       endif
                          M PREV_ALT = (OSCCON2) & 8000h
                          M     endif
                          M     if ((((OSCCON2) & 0fffh) > BANKA_END) & (((OSCCON2) & 0fffh) < (0f01h + BANKA_END)))
                          M       if (((OSCCON2) & 0f00h) != (PREV_BANK << 8))
                          M         movlb   high (OSCCON2)
                          M PREV_BANK = high (OSCCON2)
                          M       endif
                          M     endif
                          M     if (low (080h) == 0)
                          M         clrf    OSCCON2
                          M     else
                          M       if (low (080h) == 255)
                          M         setf    OSCCON2
                          M       else
0000BC 0E80               M         movlw   low (080h)
0000BE 6ED2               M         movwf   OSCCON2
                          M       endif
                          M     endif
                      00328 
                      00329 ; C:\USERS\ANDREW MCENTEE\DOCUMENTS\NTH SOLUTIONS\URICCHIO\PBP3\MPU-5X RECEIVER MOMENTARY MODE-1.PBP    
                            00070   OSCTUNE = %01000000             'ENABLE 4xPLL FOR INTOSC
                      00330         MOVE?CB 040h, OSCTUNE
                          M         CHK?RP  OSCTUNE
                          M     if (((OSCTUNE) & 8000h) != PREV_ALT)
                          M       if ((OSCTUNE) & 8000h)
                          M         bsf     WDTCON, ADSHR
                          M       else
                          M         bcf     WDTCON, ADSHR
                          M       endif
                          M PREV_ALT = (OSCTUNE) & 8000h
                          M     endif
                          M     if ((((OSCTUNE) & 0fffh) > BANKA_END) & (((OSCTUNE) & 0fffh) < (0f01h + BANKA_END)))
                          M       if (((OSCTUNE) & 0f00h) != (PREV_BANK << 8))
                          M         movlb   high (OSCTUNE)
                          M PREV_BANK = high (OSCTUNE)
                          M       endif
MPASM 5.75  MPU-5X RECEIVER MOMENTARY MODE-1   4-2-2018  15:19:27         PAGE 12


LOC  OBJECT CODE     LINE SOURCE TEXT
  VALUE

                          M     endif
                          M     if (low (040h) == 0)
                          M         clrf    OSCTUNE
                          M     else
                          M       if (low (040h) == 255)
                          M         setf    OSCTUNE
                          M       else
0000C0 0E40               M         movlw   low (040h)
0000C2 6E9B               M         movwf   OSCTUNE
                          M       endif
                          M     endif
                      00331 
                      00332 ; C:\USERS\ANDREW MCENTEE\DOCUMENTS\NTH SOLUTIONS\URICCHIO\PBP3\MPU-5X RECEIVER MOMENTARY MODE-1.PBP    
                            00071   INTCON = %00000000      'DISABLE ALL INTERRUPTS, ENABLED LATER IN COLLECT_DATA SUBROUTIN
                      00333         MOVE?CB 000h, INTCON
                          M         CHK?RP  INTCON
                          M     if (((INTCON) & 8000h) != PREV_ALT)
                          M       if ((INTCON) & 8000h)
                          M         bsf     WDTCON, ADSHR
                          M       else
                          M         bcf     WDTCON, ADSHR
                          M       endif
                          M PREV_ALT = (INTCON) & 8000h
                          M     endif
                          M     if ((((INTCON) & 0fffh) > BANKA_END) & (((INTCON) & 0fffh) < (0f01h + BANKA_END)))
                          M       if (((INTCON) & 0f00h) != (PREV_BANK << 8))
                          M         movlb   high (INTCON)
                          M PREV_BANK = high (INTCON)
                          M       endif
                          M     endif
                          M     if (low (000h) == 0)
0000C4 6AF2               M         clrf    INTCON
                          M     else
                          M       if (low (000h) == 255)
                          M         setf    INTCON
                          M       else
                          M         movlw   low (000h)
                          M         movwf   INTCON
                          M       endif
                          M     endif
                      00334 
                      00335 ; C:\USERS\ANDREW MCENTEE\DOCUMENTS\NTH SOLUTIONS\URICCHIO\PBP3\MPU-5X RECEIVER MOMENTARY MODE-1.PBP    
                            00072   WPUB = %00000000        'DISABLE PULLUPS ON PORTB
                      00336         MOVE?CB 000h, WPUB
                          M         CHK?RP  WPUB
                          M     if (((WPUB)  & 8000h) != PREV_ALT)
                          M       if ((WPUB)  & 8000h)
                          M         bsf     WDTCON, ADSHR
                          M       else
                          M         bcf     WDTCON, ADSHR
                          M       endif
                          M PREV_ALT = (WPUB)  & 8000h
                          M     endif
MPASM 5.75  MPU-5X RECEIVER MOMENTARY MODE-1   4-2-2018  15:19:27         PAGE 13


LOC  OBJECT CODE     LINE SOURCE TEXT
  VALUE

                          M     if ((((WPUB)  & 0fffh) > BANKA_END) & (((WPUB)  & 0fffh) < (0f01h + BANKA_END)))
                          M       if (((WPUB)  & 0f00h) != (PREV_BANK << 8))
                          M         movlb   high (WPUB)
                          M PREV_BANK = high (WPUB)
                          M       endif
                          M     endif
                          M     if (low (000h) == 0)
0000C6 6A61               M         clrf    WPUB
                          M     else
                          M       if (low (000h) == 255)
                          M         setf    WPUB
                          M       else
                          M         movlw   low (000h)
                          M         movwf   WPUB
                          M       endif
                          M     endif
                      00337 
                      00338 ; C:\USERS\ANDREW MCENTEE\DOCUMENTS\NTH SOLUTIONS\URICCHIO\PBP3\MPU-5X RECEIVER MOMENTARY MODE-1.PBP    
                            00073   ANSELA = %00000000      'SET ALL A PORTS TO DIGITAL
                      00339         MOVE?CB 000h, ANSELA
                          M         CHK?RP  ANSELA
                          M     if (((ANSELA) & 8000h) != PREV_ALT)
                          M       if ((ANSELA) & 8000h)
                          M         bsf     WDTCON, ADSHR
                          M       else
                          M         bcf     WDTCON, ADSHR
                          M       endif
                          M PREV_ALT = (ANSELA) & 8000h
                          M     endif
                          M     if ((((ANSELA) & 0fffh) > BANKA_END) & (((ANSELA) & 0fffh) < (0f01h + BANKA_END)))
                          M       if (((ANSELA) & 0f00h) != (PREV_BANK << 8))
0000C8 010F               M         movlb   high (ANSELA)
  0000000F                M PREV_BANK = high (ANSELA)
                          M       endif
                          M     endif
                          M     if (low (000h) == 0)
0000CA 6B38               M         clrf    ANSELA
                          M     else
                          M       if (low (000h) == 255)
                          M         setf    ANSELA
                          M       else
                          M         movlw   low (000h)
                          M         movwf   ANSELA
                          M       endif
                          M     endif
                      00340 
                      00341 ; C:\USERS\ANDREW MCENTEE\DOCUMENTS\NTH SOLUTIONS\URICCHIO\PBP3\MPU-5X RECEIVER MOMENTARY MODE-1.PBP    
                            00074   ANSELB = %00000000      'SET ALL B PORTS TO DIGITAL
                      00342         MOVE?CB 000h, ANSELB
                          M         CHK?RP  ANSELB
                          M     if (((ANSELB) & 8000h) != PREV_ALT)
                          M       if ((ANSELB) & 8000h)
                          M         bsf     WDTCON, ADSHR
MPASM 5.75  MPU-5X RECEIVER MOMENTARY MODE-1   4-2-2018  15:19:27         PAGE 14


LOC  OBJECT CODE     LINE SOURCE TEXT
  VALUE

                          M       else
                          M         bcf     WDTCON, ADSHR
                          M       endif
                          M PREV_ALT = (ANSELB) & 8000h
                          M     endif
                          M     if ((((ANSELB) & 0fffh) > BANKA_END) & (((ANSELB) & 0fffh) < (0f01h + BANKA_END)))
                          M       if (((ANSELB) & 0f00h) != (PREV_BANK << 8))
                          M         movlb   high (ANSELB)
                          M PREV_BANK = high (ANSELB)
                          M       endif
                          M     endif
                          M     if (low (000h) == 0)
0000CC 6B39               M         clrf    ANSELB
                          M     else
                          M       if (low (000h) == 255)
                          M         setf    ANSELB
                          M       else
                          M         movlw   low (000h)
                          M         movwf   ANSELB
                          M       endif
                          M     endif
                      00343 
                      00344 ; C:\USERS\ANDREW MCENTEE\DOCUMENTS\NTH SOLUTIONS\URICCHIO\PBP3\MPU-5X RECEIVER MOMENTARY MODE-1.PBP    
                            00075   ANSELC = %00000000      'SET ALL C PORTS TO DIGITAL
                      00345         MOVE?CB 000h, ANSELC
                          M         CHK?RP  ANSELC
                          M     if (((ANSELC) & 8000h) != PREV_ALT)
                          M       if ((ANSELC) & 8000h)
                          M         bsf     WDTCON, ADSHR
                          M       else
                          M         bcf     WDTCON, ADSHR
                          M       endif
                          M PREV_ALT = (ANSELC) & 8000h
                          M     endif
                          M     if ((((ANSELC) & 0fffh) > BANKA_END) & (((ANSELC) & 0fffh) < (0f01h + BANKA_END)))
                          M       if (((ANSELC) & 0f00h) != (PREV_BANK << 8))
                          M         movlb   high (ANSELC)
                          M PREV_BANK = high (ANSELC)
                          M       endif
                          M     endif
                          M     if (low (000h) == 0)
0000CE 6B3A               M         clrf    ANSELC
                          M     else
                          M       if (low (000h) == 255)
                          M         setf    ANSELC
                          M       else
                          M         movlw   low (000h)
                          M         movwf   ANSELC
                          M       endif
                          M     endif
                      00346 
                      00347 ; C:\USERS\ANDREW MCENTEE\DOCUMENTS\NTH SOLUTIONS\URICCHIO\PBP3\MPU-5X RECEIVER MOMENTARY MODE-1.PBP    
                            00076   TRISE = %00000001       'DISABLE PULLUPS ON PORTE
MPASM 5.75  MPU-5X RECEIVER MOMENTARY MODE-1   4-2-2018  15:19:27         PAGE 15


LOC  OBJECT CODE     LINE SOURCE TEXT
  VALUE

                      00348         MOVE?CB 001h, TRISE
                          M         CHK?RP  TRISE
                          M     if (((TRISE) & 8000h) != PREV_ALT)
                          M       if ((TRISE) & 8000h)
                          M         bsf     WDTCON, ADSHR
                          M       else
                          M         bcf     WDTCON, ADSHR
                          M       endif
                          M PREV_ALT = (TRISE) & 8000h
                          M     endif
                          M     if ((((TRISE) & 0fffh) > BANKA_END) & (((TRISE) & 0fffh) < (0f01h + BANKA_END)))
                          M       if (((TRISE) & 0f00h) != (PREV_BANK << 8))
                          M         movlb   high (TRISE)
                          M PREV_BANK = high (TRISE)
                          M       endif
                          M     endif
                          M     if (low (001h) == 0)
                          M         clrf    TRISE
                          M     else
                          M       if (low (001h) == 255)
                          M         setf    TRISE
                          M       else
0000D0 0E01               M         movlw   low (001h)
0000D2 6E96               M         movwf   TRISE
                          M       endif
                          M     endif
                      00349 ; C:\USERS\ANDREW MCENTEE\DOCUMENTS\NTH SOLUTIONS\URICCHIO\PBP3\MPU-5X RECEIVER MOMENTARY MODE-1.PBP    
                            00079   HOME                   CON        1                     'CURSOR HOME
                      00350 ; C:\USERS\ANDREW MCENTEE\DOCUMENTS\NTH SOLUTIONS\URICCHIO\PBP3\MPU-5X RECEIVER MOMENTARY MODE-1.PBP    
                            00080   NOCURS             CON        4          'TURNS CURSOR OFF
                      00351 ; C:\USERS\ANDREW MCENTEE\DOCUMENTS\NTH SOLUTIONS\URICCHIO\PBP3\MPU-5X RECEIVER MOMENTARY MODE-1.PBP    
                            00081   CLRLCD                 CON       12                     'CLEAR SCREEN, USE FOR 4x40
                      00352 ; C:\USERS\ANDREW MCENTEE\DOCUMENTS\NTH SOLUTIONS\URICCHIO\PBP3\MPU-5X RECEIVER MOMENTARY MODE-1.PBP    
                            00082   LITEON                 CON       14                     'TURN ON BACKLIGHT - 4x40 ONLY
                      00353 ; C:\USERS\ANDREW MCENTEE\DOCUMENTS\NTH SOLUTIONS\URICCHIO\PBP3\MPU-5X RECEIVER MOMENTARY MODE-1.PBP    
                            00083   LITEOFF                    CON       15                 'TURN OFF BACKLIGHT - 4x40 ONLY
                      00354 ; C:\USERS\ANDREW MCENTEE\DOCUMENTS\NTH SOLUTIONS\URICCHIO\PBP3\MPU-5X RECEIVER MOMENTARY MODE-1.PBP    
                            00084   POSCMD                     CON       16                 'POSITION CURSOR
                      00355 ; C:\USERS\ANDREW MCENTEE\DOCUMENTS\NTH SOLUTIONS\URICCHIO\PBP3\MPU-5X RECEIVER MOMENTARY MODE-1.PBP    
                            00091   LINE1              CON       64          'Position of Line #1 Cursor in a 4x20 display  
                      00356 ; C:\USERS\ANDREW MCENTEE\DOCUMENTS\NTH SOLUTIONS\URICCHIO\PBP3\MPU-5X RECEIVER MOMENTARY MODE-1.PBP    
                            00092   LINE2              CON       84          'Position of Line #2 Cursor in a 4x20 display  
                      00357 ; C:\USERS\ANDREW MCENTEE\DOCUMENTS\NTH SOLUTIONS\URICCHIO\PBP3\MPU-5X RECEIVER MOMENTARY MODE-1.PBP    
                            00093   LINE3              CON       104         'Position of Line #3 Cursor in a 4x20 display  
                      00358 ; C:\USERS\ANDREW MCENTEE\DOCUMENTS\NTH SOLUTIONS\URICCHIO\PBP3\MPU-5X RECEIVER MOMENTARY MODE-1.PBP    
                            00094   LINE4              CON       124         'Position of Line #4 Cursor in a 4x20 display  
                      00359 ; C:\USERS\ANDREW MCENTEE\DOCUMENTS\NTH SOLUTIONS\URICCHIO\PBP3\MPU-5X RECEIVER MOMENTARY MODE-1.PBP    
                            00096   DATA_OUT_BYPASS    CON        1          'IF DATA_OUT_BYPASS=1 THEN Bypass All DSP comma
                      00360 
                      00361 ; C:\USERS\ANDREW MCENTEE\DOCUMENTS\NTH SOLUTIONS\URICCHIO\PBP3\MPU-5X RECEIVER MOMENTARY MODE-1.PBP    
                            00128   INIT:    
                      00362 
                      00363         LABEL?L _INIT   
MPASM 5.75  MPU-5X RECEIVER MOMENTARY MODE-1   4-2-2018  15:19:27         PAGE 16


LOC  OBJECT CODE     LINE SOURCE TEXT
  VALUE

                          M         RST?RP
                          M     if (PREV_ALT != 0)
                          M         bcf     WDTCON, ADSHR
                          M PREV_ALT = 0
                          M     endif
                          M     if (PREV_BANK != 0)
0000D4 0100               M         movlb   0
  00000000                M PREV_BANK = 0
                          M     endif
                          M     ifdef PM_USED
                          M         LALL
                          M _INIT
                          M         XALL
                          M     else
0000D6                    M _INIT
                          M     endif
                      00364 
                      00365 ; C:\USERS\ANDREW MCENTEE\DOCUMENTS\NTH SOLUTIONS\URICCHIO\PBP3\MPU-5X RECEIVER MOMENTARY MODE-1.PBP    
                            00130       INPUT RCVR_D0
                      00366         INPUT?T _RCVR_D0
                          M         MOVE?CT 1, ((PORTA) + 12h), 005h
                          M         CHK?RP  ((PORTA) + 12h)
                          M     if (((((PORTA) + 12h)) & 8000h) != PREV_ALT)
                          M       if ((((PORTA) + 12h)) & 8000h)
                          M         bsf     WDTCON, ADSHR
                          M       else
                          M         bcf     WDTCON, ADSHR
                          M       endif
                          M PREV_ALT = (((PORTA) + 12h)) & 8000h
                          M     endif
                          M     if ((((((PORTA) + 12h)) & 0fffh) > BANKA_END) & (((((PORTA) + 12h)) & 0fffh) < (0f01h + BANKA_END)))
                          M       if (((((PORTA) + 12h)) & 0f00h) != (PREV_BANK << 8))
                          M         movlb   high (((PORTA) + 12h))
                          M PREV_BANK = high (((PORTA) + 12h))
                          M       endif
                          M     endif
                          M     if (((1)   & 1) == 1)
0000D6 8A92               M         bsf     ((PORTA) + 12h), 005h
                          M     else
                          M         bcf     ((PORTA) + 12h), 005h
                          M     endif
                      00367 
                      00368 ; C:\USERS\ANDREW MCENTEE\DOCUMENTS\NTH SOLUTIONS\URICCHIO\PBP3\MPU-5X RECEIVER MOMENTARY MODE-1.PBP    
                            00131       INPUT RCVR_D1
                      00369         INPUT?T _RCVR_D1
                          M         MOVE?CT 1, ((PORTC) + 12h), 002h
                          M         CHK?RP  ((PORTC) + 12h)
                          M     if (((((PORTC) + 12h)) & 8000h) != PREV_ALT)
                          M       if ((((PORTC) + 12h)) & 8000h)
                          M         bsf     WDTCON, ADSHR
                          M       else
                          M         bcf     WDTCON, ADSHR
                          M       endif
MPASM 5.75  MPU-5X RECEIVER MOMENTARY MODE-1   4-2-2018  15:19:27         PAGE 17


LOC  OBJECT CODE     LINE SOURCE TEXT
  VALUE

                          M PREV_ALT = (((PORTC) + 12h)) & 8000h
                          M     endif
                          M     if ((((((PORTC) + 12h)) & 0fffh) > BANKA_END) & (((((PORTC) + 12h)) & 0fffh) < (0f01h + BANKA_END)))
                          M       if (((((PORTC) + 12h)) & 0f00h) != (PREV_BANK << 8))
                          M         movlb   high (((PORTC) + 12h))
                          M PREV_BANK = high (((PORTC) + 12h))
                          M       endif
                          M     endif
                          M     if (((1)   & 1) == 1)
0000D8 8494               M         bsf     ((PORTC) + 12h), 002h
                          M     else
                          M         bcf     ((PORTC) + 12h), 002h
                          M     endif
                      00370 
                      00371 ; C:\USERS\ANDREW MCENTEE\DOCUMENTS\NTH SOLUTIONS\URICCHIO\PBP3\MPU-5X RECEIVER MOMENTARY MODE-1.PBP    
                            00132       input SDO                         'SLAVE DATA OUT (MISO)
                      00372         INPUT?T _SDO
                          M         MOVE?CT 1, ((PORTC) + 12h), 004h
                          M         CHK?RP  ((PORTC) + 12h)
                          M     if (((((PORTC) + 12h)) & 8000h) != PREV_ALT)
                          M       if ((((PORTC) + 12h)) & 8000h)
                          M         bsf     WDTCON, ADSHR
                          M       else
                          M         bcf     WDTCON, ADSHR
                          M       endif
                          M PREV_ALT = (((PORTC) + 12h)) & 8000h
                          M     endif
                          M     if ((((((PORTC) + 12h)) & 0fffh) > BANKA_END) & (((((PORTC) + 12h)) & 0fffh) < (0f01h + BANKA_END)))
                          M       if (((((PORTC) + 12h)) & 0f00h) != (PREV_BANK << 8))
                          M         movlb   high (((PORTC) + 12h))
                          M PREV_BANK = high (((PORTC) + 12h))
                          M       endif
                          M     endif
                          M     if (((1)   & 1) == 1)
0000DA 8894               M         bsf     ((PORTC) + 12h), 004h
                          M     else
                          M         bcf     ((PORTC) + 12h), 004h
                          M     endif
                      00373 
                      00374 ; C:\USERS\ANDREW MCENTEE\DOCUMENTS\NTH SOLUTIONS\URICCHIO\PBP3\MPU-5X RECEIVER MOMENTARY MODE-1.PBP    
                            00133       INPUT RCVR_VT
                      00375         INPUT?T _RCVR_VT
                          M         MOVE?CT 1, ((PORTC) + 12h), 006h
                          M         CHK?RP  ((PORTC) + 12h)
                          M     if (((((PORTC) + 12h)) & 8000h) != PREV_ALT)
                          M       if ((((PORTC) + 12h)) & 8000h)
                          M         bsf     WDTCON, ADSHR
                          M       else
                          M         bcf     WDTCON, ADSHR
                          M       endif
                          M PREV_ALT = (((PORTC) + 12h)) & 8000h
                          M     endif
                          M     if ((((((PORTC) + 12h)) & 0fffh) > BANKA_END) & (((((PORTC) + 12h)) & 0fffh) < (0f01h + BANKA_END)))
MPASM 5.75  MPU-5X RECEIVER MOMENTARY MODE-1   4-2-2018  15:19:27         PAGE 18


LOC  OBJECT CODE     LINE SOURCE TEXT
  VALUE

                          M       if (((((PORTC) + 12h)) & 0f00h) != (PREV_BANK << 8))
                          M         movlb   high (((PORTC) + 12h))
                          M PREV_BANK = high (((PORTC) + 12h))
                          M       endif
                          M     endif
                          M     if (((1)   & 1) == 1)
0000DC 8C94               M         bsf     ((PORTC) + 12h), 006h
                          M     else
                          M         bcf     ((PORTC) + 12h), 006h
                          M     endif
                      00376 
                      00377 ; C:\USERS\ANDREW MCENTEE\DOCUMENTS\NTH SOLUTIONS\URICCHIO\PBP3\MPU-5X RECEIVER MOMENTARY MODE-1.PBP    
                            00134       INPUT UART_TX                     'PIC'S UART TX PIN (CONNECTS TO PC'S RX PIN); must
                      00378         INPUT?T _UART_TX
                          M         MOVE?CT 1, ((PORTC) + 12h), 007h
                          M         CHK?RP  ((PORTC) + 12h)
                          M     if (((((PORTC) + 12h)) & 8000h) != PREV_ALT)
                          M       if ((((PORTC) + 12h)) & 8000h)
                          M         bsf     WDTCON, ADSHR
                          M       else
                          M         bcf     WDTCON, ADSHR
                          M       endif
                          M PREV_ALT = (((PORTC) + 12h)) & 8000h
                          M     endif
                          M     if ((((((PORTC) + 12h)) & 0fffh) > BANKA_END) & (((((PORTC) + 12h)) & 0fffh) < (0f01h + BANKA_END)))
                          M       if (((((PORTC) + 12h)) & 0f00h) != (PREV_BANK << 8))
                          M         movlb   high (((PORTC) + 12h))
                          M PREV_BANK = high (((PORTC) + 12h))
                          M       endif
                          M     endif
                          M     if (((1)   & 1) == 1)
0000DE 8E94               M         bsf     ((PORTC) + 12h), 007h
                          M     else
                          M         bcf     ((PORTC) + 12h), 007h
                          M     endif
                      00379 
                      00380 ; C:\USERS\ANDREW MCENTEE\DOCUMENTS\NTH SOLUTIONS\URICCHIO\PBP3\MPU-5X RECEIVER MOMENTARY MODE-1.PBP    
                            00135       INPUT UART_RX                     'PIC'S UART rX PIN (CONNECTS TO PC'S tX PIN); must
                      00381         INPUT?T _UART_RX
                          M         MOVE?CT 1, ((PORTB) + 12h), 000h
                          M         CHK?RP  ((PORTB) + 12h)
                          M     if (((((PORTB) + 12h)) & 8000h) != PREV_ALT)
                          M       if ((((PORTB) + 12h)) & 8000h)
                          M         bsf     WDTCON, ADSHR
                          M       else
                          M         bcf     WDTCON, ADSHR
                          M       endif
                          M PREV_ALT = (((PORTB) + 12h)) & 8000h
                          M     endif
                          M     if ((((((PORTB) + 12h)) & 0fffh) > BANKA_END) & (((((PORTB) + 12h)) & 0fffh) < (0f01h + BANKA_END)))
                          M       if (((((PORTB) + 12h)) & 0f00h) != (PREV_BANK << 8))
                          M         movlb   high (((PORTB) + 12h))
                          M PREV_BANK = high (((PORTB) + 12h))
MPASM 5.75  MPU-5X RECEIVER MOMENTARY MODE-1   4-2-2018  15:19:27         PAGE 19


LOC  OBJECT CODE     LINE SOURCE TEXT
  VALUE

                          M       endif
                          M     endif
                          M     if (((1)   & 1) == 1)
0000E0 8093               M         bsf     ((PORTB) + 12h), 000h
                          M     else
                          M         bcf     ((PORTB) + 12h), 000h
                          M     endif
                      00382 
                      00383 ; C:\USERS\ANDREW MCENTEE\DOCUMENTS\NTH SOLUTIONS\URICCHIO\PBP3\MPU-5X RECEIVER MOMENTARY MODE-1.PBP    
                            00136       INput SCL                         'I2C CLOCK (CONFIGURED AS INPUTS AS REQUIRED BY HA
                      00384         INPUT?T _SCL
                          M         MOVE?CT 1, ((PORTB) + 12h), 001h
                          M         CHK?RP  ((PORTB) + 12h)
                          M     if (((((PORTB) + 12h)) & 8000h) != PREV_ALT)
                          M       if ((((PORTB) + 12h)) & 8000h)
                          M         bsf     WDTCON, ADSHR
                          M       else
                          M         bcf     WDTCON, ADSHR
                          M       endif
                          M PREV_ALT = (((PORTB) + 12h)) & 8000h
                          M     endif
                          M     if ((((((PORTB) + 12h)) & 0fffh) > BANKA_END) & (((((PORTB) + 12h)) & 0fffh) < (0f01h + BANKA_END)))
                          M       if (((((PORTB) + 12h)) & 0f00h) != (PREV_BANK << 8))
                          M         movlb   high (((PORTB) + 12h))
                          M PREV_BANK = high (((PORTB) + 12h))
                          M       endif
                          M     endif
                          M     if (((1)   & 1) == 1)
0000E2 8293               M         bsf     ((PORTB) + 12h), 001h
                          M     else
                          M         bcf     ((PORTB) + 12h), 001h
                          M     endif
                      00385 
                      00386 ; C:\USERS\ANDREW MCENTEE\DOCUMENTS\NTH SOLUTIONS\URICCHIO\PBP3\MPU-5X RECEIVER MOMENTARY MODE-1.PBP    
                            00137       INput SDA                         'I2C DATA  (CONFIGURED AS INPUTS AS REQUIRED BY HA
                      00387         INPUT?T _SDA
                          M         MOVE?CT 1, ((PORTB) + 12h), 002h
                          M         CHK?RP  ((PORTB) + 12h)
                          M     if (((((PORTB) + 12h)) & 8000h) != PREV_ALT)
                          M       if ((((PORTB) + 12h)) & 8000h)
                          M         bsf     WDTCON, ADSHR
                          M       else
                          M         bcf     WDTCON, ADSHR
                          M       endif
                          M PREV_ALT = (((PORTB) + 12h)) & 8000h
                          M     endif
                          M     if ((((((PORTB) + 12h)) & 0fffh) > BANKA_END) & (((((PORTB) + 12h)) & 0fffh) < (0f01h + BANKA_END)))
                          M       if (((((PORTB) + 12h)) & 0f00h) != (PREV_BANK << 8))
                          M         movlb   high (((PORTB) + 12h))
                          M PREV_BANK = high (((PORTB) + 12h))
                          M       endif
                          M     endif
                          M     if (((1)   & 1) == 1)
MPASM 5.75  MPU-5X RECEIVER MOMENTARY MODE-1   4-2-2018  15:19:27         PAGE 20


LOC  OBJECT CODE     LINE SOURCE TEXT
  VALUE

0000E4 8493               M         bsf     ((PORTB) + 12h), 002h
                          M     else
                          M         bcf     ((PORTB) + 12h), 002h
                          M     endif
                      00388 
                      00389 ; C:\USERS\ANDREW MCENTEE\DOCUMENTS\NTH SOLUTIONS\URICCHIO\PBP3\MPU-5X RECEIVER MOMENTARY MODE-1.PBP    
                            00138       INPUT INT_9250                    'Interrupt from the 9250; unused at this time (Doe
                      00390         INPUT?T _INT_9250
                          M         MOVE?CT 1, ((PORTB) + 12h), 003h
                          M         CHK?RP  ((PORTB) + 12h)
                          M     if (((((PORTB) + 12h)) & 8000h) != PREV_ALT)
                          M       if ((((PORTB) + 12h)) & 8000h)
                          M         bsf     WDTCON, ADSHR
                          M       else
                          M         bcf     WDTCON, ADSHR
                          M       endif
                          M PREV_ALT = (((PORTB) + 12h)) & 8000h
                          M     endif
                          M     if ((((((PORTB) + 12h)) & 0fffh) > BANKA_END) & (((((PORTB) + 12h)) & 0fffh) < (0f01h + BANKA_END)))
                          M       if (((((PORTB) + 12h)) & 0f00h) != (PREV_BANK << 8))
                          M         movlb   high (((PORTB) + 12h))
                          M PREV_BANK = high (((PORTB) + 12h))
                          M       endif
                          M     endif
                          M     if (((1)   & 1) == 1)
0000E6 8693               M         bsf     ((PORTB) + 12h), 003h
                          M     else
                          M         bcf     ((PORTB) + 12h), 003h
                          M     endif
                      00391 
                      00392 ; C:\USERS\ANDREW MCENTEE\DOCUMENTS\NTH SOLUTIONS\URICCHIO\PBP3\MPU-5X RECEIVER MOMENTARY MODE-1.PBP    
                            00139       INPUT VBATT_MON            
                      00393         INPUT?T _VBATT_MON
                          M         MOVE?CT 1, ((PORTB) + 12h), 004h
                          M         CHK?RP  ((PORTB) + 12h)
                          M     if (((((PORTB) + 12h)) & 8000h) != PREV_ALT)
                          M       if ((((PORTB) + 12h)) & 8000h)
                          M         bsf     WDTCON, ADSHR
                          M       else
                          M         bcf     WDTCON, ADSHR
                          M       endif
                          M PREV_ALT = (((PORTB) + 12h)) & 8000h
                          M     endif
                          M     if ((((((PORTB) + 12h)) & 0fffh) > BANKA_END) & (((((PORTB) + 12h)) & 0fffh) < (0f01h + BANKA_END)))
                          M       if (((((PORTB) + 12h)) & 0f00h) != (PREV_BANK << 8))
                          M         movlb   high (((PORTB) + 12h))
                          M PREV_BANK = high (((PORTB) + 12h))
                          M       endif
                          M     endif
                          M     if (((1)   & 1) == 1)
0000E8 8893               M         bsf     ((PORTB) + 12h), 004h
                          M     else
                          M         bcf     ((PORTB) + 12h), 004h
MPASM 5.75  MPU-5X RECEIVER MOMENTARY MODE-1   4-2-2018  15:19:27         PAGE 21


LOC  OBJECT CODE     LINE SOURCE TEXT
  VALUE

                          M     endif
                      00394 
                      00395 ; C:\USERS\ANDREW MCENTEE\DOCUMENTS\NTH SOLUTIONS\URICCHIO\PBP3\MPU-5X RECEIVER MOMENTARY MODE-1.PBP    
                            00140       input PB                          'Pushbutton S3 (Black PB; Right-Angle mount next t
                      00396         INPUT?T _PB
                          M         MOVE?CT 1, ((PORTB) + 12h), 005h
                          M         CHK?RP  ((PORTB) + 12h)
                          M     if (((((PORTB) + 12h)) & 8000h) != PREV_ALT)
                          M       if ((((PORTB) + 12h)) & 8000h)
                          M         bsf     WDTCON, ADSHR
                          M       else
                          M         bcf     WDTCON, ADSHR
                          M       endif
                          M PREV_ALT = (((PORTB) + 12h)) & 8000h
                          M     endif
                          M     if ((((((PORTB) + 12h)) & 0fffh) > BANKA_END) & (((((PORTB) + 12h)) & 0fffh) < (0f01h + BANKA_END)))
                          M       if (((((PORTB) + 12h)) & 0f00h) != (PREV_BANK << 8))
                          M         movlb   high (((PORTB) + 12h))
                          M PREV_BANK = high (((PORTB) + 12h))
                          M       endif
                          M     endif
                          M     if (((1)   & 1) == 1)
0000EA 8A93               M         bsf     ((PORTB) + 12h), 005h
                          M     else
                          M         bcf     ((PORTB) + 12h), 005h
                          M     endif
                      00397 
                      00398 ; C:\USERS\ANDREW MCENTEE\DOCUMENTS\NTH SOLUTIONS\URICCHIO\PBP3\MPU-5X RECEIVER MOMENTARY MODE-1.PBP    
                            00144       output BLUE_LED
                      00399         OUTPUT?T        _BLUE_LED
                          M         MOVE?CT 0, ((PORTA) + 12h), 000h
                          M         CHK?RP  ((PORTA) + 12h)
                          M     if (((((PORTA) + 12h)) & 8000h) != PREV_ALT)
                          M       if ((((PORTA) + 12h)) & 8000h)
                          M         bsf     WDTCON, ADSHR
                          M       else
                          M         bcf     WDTCON, ADSHR
                          M       endif
                          M PREV_ALT = (((PORTA) + 12h)) & 8000h
                          M     endif
                          M     if ((((((PORTA) + 12h)) & 0fffh) > BANKA_END) & (((((PORTA) + 12h)) & 0fffh) < (0f01h + BANKA_END)))
                          M       if (((((PORTA) + 12h)) & 0f00h) != (PREV_BANK << 8))
                          M         movlb   high (((PORTA) + 12h))
                          M PREV_BANK = high (((PORTA) + 12h))
                          M       endif
                          M     endif
                          M     if (((0)   & 1) == 1)
                          M         bsf     ((PORTA) + 12h), 000h
                          M     else
0000EC 9092               M         bcf     ((PORTA) + 12h), 000h
                          M     endif
                      00400 
                      00401 ; C:\USERS\ANDREW MCENTEE\DOCUMENTS\NTH SOLUTIONS\URICCHIO\PBP3\MPU-5X RECEIVER MOMENTARY MODE-1.PBP    
MPASM 5.75  MPU-5X RECEIVER MOMENTARY MODE-1   4-2-2018  15:19:27         PAGE 22


LOC  OBJECT CODE     LINE SOURCE TEXT
  VALUE

                            00145       output RED_LED
                      00402         OUTPUT?T        _RED_LED
                          M         MOVE?CT 0, ((PORTA) + 12h), 001h
                          M         CHK?RP  ((PORTA) + 12h)
                          M     if (((((PORTA) + 12h)) & 8000h) != PREV_ALT)
                          M       if ((((PORTA) + 12h)) & 8000h)
                          M         bsf     WDTCON, ADSHR
                          M       else
                          M         bcf     WDTCON, ADSHR
                          M       endif
                          M PREV_ALT = (((PORTA) + 12h)) & 8000h
                          M     endif
                          M     if ((((((PORTA) + 12h)) & 0fffh) > BANKA_END) & (((((PORTA) + 12h)) & 0fffh) < (0f01h + BANKA_END)))
                          M       if (((((PORTA) + 12h)) & 0f00h) != (PREV_BANK << 8))
                          M         movlb   high (((PORTA) + 12h))
                          M PREV_BANK = high (((PORTA) + 12h))
                          M       endif
                          M     endif
                          M     if (((0)   & 1) == 1)
                          M         bsf     ((PORTA) + 12h), 001h
                          M     else
0000EE 9292               M         bcf     ((PORTA) + 12h), 001h
                          M     endif
                      00403 
                      00404 ; C:\USERS\ANDREW MCENTEE\DOCUMENTS\NTH SOLUTIONS\URICCHIO\PBP3\MPU-5X RECEIVER MOMENTARY MODE-1.PBP    
                            00146       OUTPUT PWR_ON
                      00405         OUTPUT?T        _PWR_ON
                          M         MOVE?CT 0, ((PORTA) + 12h), 002h
                          M         CHK?RP  ((PORTA) + 12h)
                          M     if (((((PORTA) + 12h)) & 8000h) != PREV_ALT)
                          M       if ((((PORTA) + 12h)) & 8000h)
                          M         bsf     WDTCON, ADSHR
                          M       else
                          M         bcf     WDTCON, ADSHR
                          M       endif
                          M PREV_ALT = (((PORTA) + 12h)) & 8000h
                          M     endif
                          M     if ((((((PORTA) + 12h)) & 0fffh) > BANKA_END) & (((((PORTA) + 12h)) & 0fffh) < (0f01h + BANKA_END)))
                          M       if (((((PORTA) + 12h)) & 0f00h) != (PREV_BANK << 8))
                          M         movlb   high (((PORTA) + 12h))
                          M PREV_BANK = high (((PORTA) + 12h))
                          M       endif
                          M     endif
                          M     if (((0)   & 1) == 1)
                          M         bsf     ((PORTA) + 12h), 002h
                          M     else
0000F0 9492               M         bcf     ((PORTA) + 12h), 002h
                          M     endif
                      00406 
                      00407 ; C:\USERS\ANDREW MCENTEE\DOCUMENTS\NTH SOLUTIONS\URICCHIO\PBP3\MPU-5X RECEIVER MOMENTARY MODE-1.PBP    
                            00147       output GRN_LED
                      00408         OUTPUT?T        _GRN_LED
                          M         MOVE?CT 0, ((PORTC) + 12h), 000h
MPASM 5.75  MPU-5X RECEIVER MOMENTARY MODE-1   4-2-2018  15:19:27         PAGE 23


LOC  OBJECT CODE     LINE SOURCE TEXT
  VALUE

                          M         CHK?RP  ((PORTC) + 12h)
                          M     if (((((PORTC) + 12h)) & 8000h) != PREV_ALT)
                          M       if ((((PORTC) + 12h)) & 8000h)
                          M         bsf     WDTCON, ADSHR
                          M       else
                          M         bcf     WDTCON, ADSHR
                          M       endif
                          M PREV_ALT = (((PORTC) + 12h)) & 8000h
                          M     endif
                          M     if ((((((PORTC) + 12h)) & 0fffh) > BANKA_END) & (((((PORTC) + 12h)) & 0fffh) < (0f01h + BANKA_END)))
                          M       if (((((PORTC) + 12h)) & 0f00h) != (PREV_BANK << 8))
                          M         movlb   high (((PORTC) + 12h))
                          M PREV_BANK = high (((PORTC) + 12h))
                          M       endif
                          M     endif
                          M     if (((0)   & 1) == 1)
                          M         bsf     ((PORTC) + 12h), 000h
                          M     else
0000F2 9094               M         bcf     ((PORTC) + 12h), 000h
                          M     endif
                      00409 
                      00410 ; C:\USERS\ANDREW MCENTEE\DOCUMENTS\NTH SOLUTIONS\URICCHIO\PBP3\MPU-5X RECEIVER MOMENTARY MODE-1.PBP    
                            00148       OUTPUT ADO                       'MPU ADDRESS SELECT PIN (MUST PULL LOW FOR I2C TO W
                      00411         OUTPUT?T        _ADO
                          M         MOVE?CT 0, ((PORTA) + 12h), 003h
                          M         CHK?RP  ((PORTA) + 12h)
                          M     if (((((PORTA) + 12h)) & 8000h) != PREV_ALT)
                          M       if ((((PORTA) + 12h)) & 8000h)
                          M         bsf     WDTCON, ADSHR
                          M       else
                          M         bcf     WDTCON, ADSHR
                          M       endif
                          M PREV_ALT = (((PORTA) + 12h)) & 8000h
                          M     endif
                          M     if ((((((PORTA) + 12h)) & 0fffh) > BANKA_END) & (((((PORTA) + 12h)) & 0fffh) < (0f01h + BANKA_END)))
                          M       if (((((PORTA) + 12h)) & 0f00h) != (PREV_BANK << 8))
                          M         movlb   high (((PORTA) + 12h))
                          M PREV_BANK = high (((PORTA) + 12h))
                          M       endif
                          M     endif
                          M     if (((0)   & 1) == 1)
                          M         bsf     ((PORTA) + 12h), 003h
                          M     else
0000F4 9692               M         bcf     ((PORTA) + 12h), 003h
                          M     endif
                      00412 
                      00413 ; C:\USERS\ANDREW MCENTEE\DOCUMENTS\NTH SOLUTIONS\URICCHIO\PBP3\MPU-5X RECEIVER MOMENTARY MODE-1.PBP    
                            00149       output FLASH_CS                  'FLASH CHIP SELECT
                      00414         OUTPUT?T        _FLASH_CS
                          M         MOVE?CT 0, ((PORTC) + 12h), 001h
                          M         CHK?RP  ((PORTC) + 12h)
                          M     if (((((PORTC) + 12h)) & 8000h) != PREV_ALT)
                          M       if ((((PORTC) + 12h)) & 8000h)
MPASM 5.75  MPU-5X RECEIVER MOMENTARY MODE-1   4-2-2018  15:19:27         PAGE 24


LOC  OBJECT CODE     LINE SOURCE TEXT
  VALUE

                          M         bsf     WDTCON, ADSHR
                          M       else
                          M         bcf     WDTCON, ADSHR
                          M       endif
                          M PREV_ALT = (((PORTC) + 12h)) & 8000h
                          M     endif
                          M     if ((((((PORTC) + 12h)) & 0fffh) > BANKA_END) & (((((PORTC) + 12h)) & 0fffh) < (0f01h + BANKA_END)))
                          M       if (((((PORTC) + 12h)) & 0f00h) != (PREV_BANK << 8))
                          M         movlb   high (((PORTC) + 12h))
                          M PREV_BANK = high (((PORTC) + 12h))
                          M       endif
                          M     endif
                          M     if (((0)   & 1) == 1)
                          M         bsf     ((PORTC) + 12h), 001h
                          M     else
0000F6 9294               M         bcf     ((PORTC) + 12h), 001h
                          M     endif
                      00415 
                      00416 ; C:\USERS\ANDREW MCENTEE\DOCUMENTS\NTH SOLUTIONS\URICCHIO\PBP3\MPU-5X RECEIVER MOMENTARY MODE-1.PBP    
                            00150       output SCK                       'SPI CLOCK
                      00417         OUTPUT?T        _SCK
                          M         MOVE?CT 0, ((PORTC) + 12h), 003h
                          M         CHK?RP  ((PORTC) + 12h)
                          M     if (((((PORTC) + 12h)) & 8000h) != PREV_ALT)
                          M       if ((((PORTC) + 12h)) & 8000h)
                          M         bsf     WDTCON, ADSHR
                          M       else
                          M         bcf     WDTCON, ADSHR
                          M       endif
                          M PREV_ALT = (((PORTC) + 12h)) & 8000h
                          M     endif
                          M     if ((((((PORTC) + 12h)) & 0fffh) > BANKA_END) & (((((PORTC) + 12h)) & 0fffh) < (0f01h + BANKA_END)))
                          M       if (((((PORTC) + 12h)) & 0f00h) != (PREV_BANK << 8))
                          M         movlb   high (((PORTC) + 12h))
                          M PREV_BANK = high (((PORTC) + 12h))
                          M       endif
                          M     endif
                          M     if (((0)   & 1) == 1)
                          M         bsf     ((PORTC) + 12h), 003h
                          M     else
0000F8 9694               M         bcf     ((PORTC) + 12h), 003h
                          M     endif
                      00418 
                      00419 ; C:\USERS\ANDREW MCENTEE\DOCUMENTS\NTH SOLUTIONS\URICCHIO\PBP3\MPU-5X RECEIVER MOMENTARY MODE-1.PBP    
                            00151       output SDI                       'SLAVE DATA IN (MOSI)
                      00420         OUTPUT?T        _SDI
                          M         MOVE?CT 0, ((PORTC) + 12h), 005h
                          M         CHK?RP  ((PORTC) + 12h)
                          M     if (((((PORTC) + 12h)) & 8000h) != PREV_ALT)
                          M       if ((((PORTC) + 12h)) & 8000h)
                          M         bsf     WDTCON, ADSHR
                          M       else
                          M         bcf     WDTCON, ADSHR
MPASM 5.75  MPU-5X RECEIVER MOMENTARY MODE-1   4-2-2018  15:19:27         PAGE 25


LOC  OBJECT CODE     LINE SOURCE TEXT
  VALUE

                          M       endif
                          M PREV_ALT = (((PORTC) + 12h)) & 8000h
                          M     endif
                          M     if ((((((PORTC) + 12h)) & 0fffh) > BANKA_END) & (((((PORTC) + 12h)) & 0fffh) < (0f01h + BANKA_END)))
                          M       if (((((PORTC) + 12h)) & 0f00h) != (PREV_BANK << 8))
                          M         movlb   high (((PORTC) + 12h))
                          M PREV_BANK = high (((PORTC) + 12h))
                          M       endif
                          M     endif
                          M     if (((0)   & 1) == 1)
                          M         bsf     ((PORTC) + 12h), 005h
                          M     else
0000FA 9A94               M         bcf     ((PORTC) + 12h), 005h
                          M     endif
                      00421 
                      00422 ; C:\USERS\ANDREW MCENTEE\DOCUMENTS\NTH SOLUTIONS\URICCHIO\PBP3\MPU-5X RECEIVER MOMENTARY MODE-1.PBP    
                            00153   PRESET_OUTPUTS:
                      00423 
                      00424         LABEL?L _PRESET_OUTPUTS 
                          M         RST?RP
                          M     if (PREV_ALT != 0)
                          M         bcf     WDTCON, ADSHR
                          M PREV_ALT = 0
                          M     endif
                          M     if (PREV_BANK != 0)
                          M         movlb   0
                          M PREV_BANK = 0
                          M     endif
                          M     ifdef PM_USED
                          M         LALL
                          M _PRESET_OUTPUTS
                          M         XALL
                          M     else
0000FC                    M _PRESET_OUTPUTS
                          M     endif
                      00425 
                      00426 ; C:\USERS\ANDREW MCENTEE\DOCUMENTS\NTH SOLUTIONS\URICCHIO\PBP3\MPU-5X RECEIVER MOMENTARY MODE-1.PBP    
                            00154       BLUE_LED = 0
                      00427         MOVE?CT 000h, _BLUE_LED
                          M         CHK?RP  PORTA
                          M     if (((PORTA) & 8000h) != PREV_ALT)
                          M       if ((PORTA) & 8000h)
                          M         bsf     WDTCON, ADSHR
                          M       else
                          M         bcf     WDTCON, ADSHR
                          M       endif
                          M PREV_ALT = (PORTA) & 8000h
                          M     endif
                          M     if ((((PORTA) & 0fffh) > BANKA_END) & (((PORTA) & 0fffh) < (0f01h + BANKA_END)))
                          M       if (((PORTA) & 0f00h) != (PREV_BANK << 8))
                          M         movlb   high (PORTA)
                          M PREV_BANK = high (PORTA)
                          M       endif
MPASM 5.75  MPU-5X RECEIVER MOMENTARY MODE-1   4-2-2018  15:19:27         PAGE 26


LOC  OBJECT CODE     LINE SOURCE TEXT
  VALUE

                          M     endif
                          M     if (((000h) & 1) == 1)
                          M         bsf     PORTA,  000h
                          M     else
0000FC 9080               M         bcf     PORTA,  000h
                          M     endif
                      00428 
                      00429 ; C:\USERS\ANDREW MCENTEE\DOCUMENTS\NTH SOLUTIONS\URICCHIO\PBP3\MPU-5X RECEIVER MOMENTARY MODE-1.PBP    
                            00155       RED_LED = 0
                      00430         MOVE?CT 000h, _RED_LED
                          M         CHK?RP  PORTA
                          M     if (((PORTA) & 8000h) != PREV_ALT)
                          M       if ((PORTA) & 8000h)
                          M         bsf     WDTCON, ADSHR
                          M       else
                          M         bcf     WDTCON, ADSHR
                          M       endif
                          M PREV_ALT = (PORTA) & 8000h
                          M     endif
                          M     if ((((PORTA) & 0fffh) > BANKA_END) & (((PORTA) & 0fffh) < (0f01h + BANKA_END)))
                          M       if (((PORTA) & 0f00h) != (PREV_BANK << 8))
                          M         movlb   high (PORTA)
                          M PREV_BANK = high (PORTA)
                          M       endif
                          M     endif
                          M     if (((000h) & 1) == 1)
                          M         bsf     PORTA,  001h
                          M     else
0000FE 9280               M         bcf     PORTA,  001h
                          M     endif
                      00431 
                      00432 ; C:\USERS\ANDREW MCENTEE\DOCUMENTS\NTH SOLUTIONS\URICCHIO\PBP3\MPU-5X RECEIVER MOMENTARY MODE-1.PBP    
                            00156       PWR_ON = 0
                      00433         MOVE?CT 000h, _PWR_ON
                          M         CHK?RP  PORTA
                          M     if (((PORTA) & 8000h) != PREV_ALT)
                          M       if ((PORTA) & 8000h)
                          M         bsf     WDTCON, ADSHR
                          M       else
                          M         bcf     WDTCON, ADSHR
                          M       endif
                          M PREV_ALT = (PORTA) & 8000h
                          M     endif
                          M     if ((((PORTA) & 0fffh) > BANKA_END) & (((PORTA) & 0fffh) < (0f01h + BANKA_END)))
                          M       if (((PORTA) & 0f00h) != (PREV_BANK << 8))
                          M         movlb   high (PORTA)
                          M PREV_BANK = high (PORTA)
                          M       endif
                          M     endif
                          M     if (((000h) & 1) == 1)
                          M         bsf     PORTA,  002h
                          M     else
000100 9480               M         bcf     PORTA,  002h
MPASM 5.75  MPU-5X RECEIVER MOMENTARY MODE-1   4-2-2018  15:19:27         PAGE 27


LOC  OBJECT CODE     LINE SOURCE TEXT
  VALUE

                          M     endif
                      00434 
                      00435 ; C:\USERS\ANDREW MCENTEE\DOCUMENTS\NTH SOLUTIONS\URICCHIO\PBP3\MPU-5X RECEIVER MOMENTARY MODE-1.PBP    
                            00157       GRN_LED = 0
                      00436         MOVE?CT 000h, _GRN_LED
                          M         CHK?RP  PORTC
                          M     if (((PORTC) & 8000h) != PREV_ALT)
                          M       if ((PORTC) & 8000h)
                          M         bsf     WDTCON, ADSHR
                          M       else
                          M         bcf     WDTCON, ADSHR
                          M       endif
                          M PREV_ALT = (PORTC) & 8000h
                          M     endif
                          M     if ((((PORTC) & 0fffh) > BANKA_END) & (((PORTC) & 0fffh) < (0f01h + BANKA_END)))
                          M       if (((PORTC) & 0f00h) != (PREV_BANK << 8))
                          M         movlb   high (PORTC)
                          M PREV_BANK = high (PORTC)
                          M       endif
                          M     endif
                          M     if (((000h) & 1) == 1)
                          M         bsf     PORTC,  000h
                          M     else
000102 9082               M         bcf     PORTC,  000h
                          M     endif
                      00437 
                      00438 ; C:\USERS\ANDREW MCENTEE\DOCUMENTS\NTH SOLUTIONS\URICCHIO\PBP3\MPU-5X RECEIVER MOMENTARY MODE-1.PBP    
                            00158       ADO = 0
                      00439         MOVE?CT 000h, _ADO
                          M         CHK?RP  PORTA
                          M     if (((PORTA) & 8000h) != PREV_ALT)
                          M       if ((PORTA) & 8000h)
                          M         bsf     WDTCON, ADSHR
                          M       else
                          M         bcf     WDTCON, ADSHR
                          M       endif
                          M PREV_ALT = (PORTA) & 8000h
                          M     endif
                          M     if ((((PORTA) & 0fffh) > BANKA_END) & (((PORTA) & 0fffh) < (0f01h + BANKA_END)))
                          M       if (((PORTA) & 0f00h) != (PREV_BANK << 8))
                          M         movlb   high (PORTA)
                          M PREV_BANK = high (PORTA)
                          M       endif
                          M     endif
                          M     if (((000h) & 1) == 1)
                          M         bsf     PORTA,  003h
                          M     else
000104 9680               M         bcf     PORTA,  003h
                          M     endif
                      00440 
                      00441 ; C:\USERS\ANDREW MCENTEE\DOCUMENTS\NTH SOLUTIONS\URICCHIO\PBP3\MPU-5X RECEIVER MOMENTARY MODE-1.PBP    
                            00159       FLASH_CS = 0
                      00442         MOVE?CT 000h, _FLASH_CS
MPASM 5.75  MPU-5X RECEIVER MOMENTARY MODE-1   4-2-2018  15:19:27         PAGE 28


LOC  OBJECT CODE     LINE SOURCE TEXT
  VALUE

                          M         CHK?RP  PORTC
                          M     if (((PORTC) & 8000h) != PREV_ALT)
                          M       if ((PORTC) & 8000h)
                          M         bsf     WDTCON, ADSHR
                          M       else
                          M         bcf     WDTCON, ADSHR
                          M       endif
                          M PREV_ALT = (PORTC) & 8000h
                          M     endif
                          M     if ((((PORTC) & 0fffh) > BANKA_END) & (((PORTC) & 0fffh) < (0f01h + BANKA_END)))
                          M       if (((PORTC) & 0f00h) != (PREV_BANK << 8))
                          M         movlb   high (PORTC)
                          M PREV_BANK = high (PORTC)
                          M       endif
                          M     endif
                          M     if (((000h) & 1) == 1)
                          M         bsf     PORTC,  001h
                          M     else
000106 9282               M         bcf     PORTC,  001h
                          M     endif
                      00443 
                      00444 ; C:\USERS\ANDREW MCENTEE\DOCUMENTS\NTH SOLUTIONS\URICCHIO\PBP3\MPU-5X RECEIVER MOMENTARY MODE-1.PBP    
                            00160       SCK = 0
                      00445         MOVE?CT 000h, _SCK
                          M         CHK?RP  PORTC
                          M     if (((PORTC) & 8000h) != PREV_ALT)
                          M       if ((PORTC) & 8000h)
                          M         bsf     WDTCON, ADSHR
                          M       else
                          M         bcf     WDTCON, ADSHR
                          M       endif
                          M PREV_ALT = (PORTC) & 8000h
                          M     endif
                          M     if ((((PORTC) & 0fffh) > BANKA_END) & (((PORTC) & 0fffh) < (0f01h + BANKA_END)))
                          M       if (((PORTC) & 0f00h) != (PREV_BANK << 8))
                          M         movlb   high (PORTC)
                          M PREV_BANK = high (PORTC)
                          M       endif
                          M     endif
                          M     if (((000h) & 1) == 1)
                          M         bsf     PORTC,  003h
                          M     else
000108 9682               M         bcf     PORTC,  003h
                          M     endif
                      00446 
                      00447 ; C:\USERS\ANDREW MCENTEE\DOCUMENTS\NTH SOLUTIONS\URICCHIO\PBP3\MPU-5X RECEIVER MOMENTARY MODE-1.PBP    
                            00161       SDI = 0
                      00448         MOVE?CT 000h, _SDI
                          M         CHK?RP  PORTC
                          M     if (((PORTC) & 8000h) != PREV_ALT)
                          M       if ((PORTC) & 8000h)
                          M         bsf     WDTCON, ADSHR
                          M       else
MPASM 5.75  MPU-5X RECEIVER MOMENTARY MODE-1   4-2-2018  15:19:27         PAGE 29


LOC  OBJECT CODE     LINE SOURCE TEXT
  VALUE

                          M         bcf     WDTCON, ADSHR
                          M       endif
                          M PREV_ALT = (PORTC) & 8000h
                          M     endif
                          M     if ((((PORTC) & 0fffh) > BANKA_END) & (((PORTC) & 0fffh) < (0f01h + BANKA_END)))
                          M       if (((PORTC) & 0f00h) != (PREV_BANK << 8))
                          M         movlb   high (PORTC)
                          M PREV_BANK = high (PORTC)
                          M       endif
                          M     endif
                          M     if (((000h) & 1) == 1)
                          M         bsf     PORTC,  005h
                          M     else
00010A 9A82               M         bcf     PORTC,  005h
                          M     endif
                      00449 
                      00450 ; C:\USERS\ANDREW MCENTEE\DOCUMENTS\NTH SOLUTIONS\URICCHIO\PBP3\MPU-5X RECEIVER MOMENTARY MODE-1.PBP    
                            00164       SW_ON = 100
                      00451         MOVE?CW 064h, _SW_ON
                          M     ifdef USE_LINKER
                          M         CHK?RP  _SW_ON
                          M         movlw   low (064h)
                          M         movwf   _SW_ON
                          M         movlw   high (064h)
                          M         movwf   (_SW_ON) + 1
                          M     else
                          M         MOVE?CB low (064h), _SW_ON
                          M         CHK?RP  _SW_ON
                          M     if (((_SW_ON) & 8000h) != PREV_ALT)
                          M       if ((_SW_ON) & 8000h)
                          M         bsf     WDTCON, ADSHR
                          M       else
                          M         bcf     WDTCON, ADSHR
                          M       endif
                          M PREV_ALT = (_SW_ON) & 8000h
                          M     endif
                          M     if ((((_SW_ON) & 0fffh) > BANKA_END) & (((_SW_ON) & 0fffh) < (0f01h + BANKA_END)))
                          M       if (((_SW_ON) & 0f00h) != (PREV_BANK << 8))
                          M         movlb   high (_SW_ON)
                          M PREV_BANK = high (_SW_ON)
                          M       endif
                          M     endif
                          M     if (low (low (064h)) == 0)
                          M         clrf    _SW_ON
                          M     else
                          M       if (low (low (064h)) == 255)
                          M         setf    _SW_ON
                          M       else
00010C 0E64               M         movlw   low (low (064h))
00010E 6E1C               M         movwf   _SW_ON
                          M       endif
                          M     endif
                          M         MOVE?CB high (064h), (_SW_ON) + 1
MPASM 5.75  MPU-5X RECEIVER MOMENTARY MODE-1   4-2-2018  15:19:27         PAGE 30


LOC  OBJECT CODE     LINE SOURCE TEXT
  VALUE

                          M         CHK?RP  (_SW_ON) + 1
                          M     if ((((_SW_ON) + 1) & 8000h) != PREV_ALT)
                          M       if (((_SW_ON) + 1) & 8000h)
                          M         bsf     WDTCON, ADSHR
                          M       else
                          M         bcf     WDTCON, ADSHR
                          M       endif
                          M PREV_ALT = ((_SW_ON) + 1) & 8000h
                          M     endif
                          M     if (((((_SW_ON) + 1) & 0fffh) > BANKA_END) & ((((_SW_ON) + 1) & 0fffh) < (0f01h + BANKA_END)))
                          M       if ((((_SW_ON) + 1) & 0f00h) != (PREV_BANK << 8))
                          M         movlb   high ((_SW_ON) + 1)
                          M PREV_BANK = high ((_SW_ON) + 1)
                          M       endif
                          M     endif
                          M     if (low (high (064h)) == 0)
000110 6A1D               M         clrf    (_SW_ON) + 1
                          M     else
                          M       if (low (high (064h)) == 255)
                          M         setf    (_SW_ON) + 1
                          M       else
                          M         movlw   low (high (064h))
                          M         movwf   (_SW_ON) + 1
                          M       endif
                          M     endif
                          M     endif
                      00452 
                      00453 ; C:\USERS\ANDREW MCENTEE\DOCUMENTS\NTH SOLUTIONS\URICCHIO\PBP3\MPU-5X RECEIVER MOMENTARY MODE-1.PBP    
                            00165       SW_OFF = 300
                      00454         MOVE?CW 0012Ch, _SW_OFF
                          M     ifdef USE_LINKER
                          M         CHK?RP  _SW_OFF
                          M         movlw   low (0012Ch)
                          M         movwf   _SW_OFF
                          M         movlw   high (0012Ch)
                          M         movwf   (_SW_OFF) + 1
                          M     else
                          M         MOVE?CB low (0012Ch), _SW_OFF
                          M         CHK?RP  _SW_OFF
                          M     if (((_SW_OFF) & 8000h) != PREV_ALT)
                          M       if ((_SW_OFF) & 8000h)
                          M         bsf     WDTCON, ADSHR
                          M       else
                          M         bcf     WDTCON, ADSHR
                          M       endif
                          M PREV_ALT = (_SW_OFF) & 8000h
                          M     endif
                          M     if ((((_SW_OFF) & 0fffh) > BANKA_END) & (((_SW_OFF) & 0fffh) < (0f01h + BANKA_END)))
                          M       if (((_SW_OFF) & 0f00h) != (PREV_BANK << 8))
                          M         movlb   high (_SW_OFF)
                          M PREV_BANK = high (_SW_OFF)
                          M       endif
                          M     endif
MPASM 5.75  MPU-5X RECEIVER MOMENTARY MODE-1   4-2-2018  15:19:27         PAGE 31


LOC  OBJECT CODE     LINE SOURCE TEXT
  VALUE

                          M     if (low (low (0012Ch)) == 0)
                          M         clrf    _SW_OFF
                          M     else
                          M       if (low (low (0012Ch)) == 255)
                          M         setf    _SW_OFF
                          M       else
000112 0E2C               M         movlw   low (low (0012Ch))
000114 6E1A               M         movwf   _SW_OFF
                          M       endif
                          M     endif
                          M         MOVE?CB high (0012Ch), (_SW_OFF) + 1
                          M         CHK?RP  (_SW_OFF) + 1
                          M     if ((((_SW_OFF) + 1) & 8000h) != PREV_ALT)
                          M       if (((_SW_OFF) + 1) & 8000h)
                          M         bsf     WDTCON, ADSHR
                          M       else
                          M         bcf     WDTCON, ADSHR
                          M       endif
                          M PREV_ALT = ((_SW_OFF) + 1) & 8000h
                          M     endif
                          M     if (((((_SW_OFF) + 1) & 0fffh) > BANKA_END) & ((((_SW_OFF) + 1) & 0fffh) < (0f01h + BANKA_END)))
                          M       if ((((_SW_OFF) + 1) & 0f00h) != (PREV_BANK << 8))
                          M         movlb   high ((_SW_OFF) + 1)
                          M PREV_BANK = high ((_SW_OFF) + 1)
                          M       endif
                          M     endif
                          M     if (low (high (0012Ch)) == 0)
                          M         clrf    (_SW_OFF) + 1
                          M     else
                          M       if (low (high (0012Ch)) == 255)
                          M         setf    (_SW_OFF) + 1
                          M       else
000116 0E01               M         movlw   low (high (0012Ch))
000118 6E1B               M         movwf   (_SW_OFF) + 1
                          M       endif
                          M     endif
                          M     endif
                      00455 
                      00456 ; C:\USERS\ANDREW MCENTEE\DOCUMENTS\NTH SOLUTIONS\URICCHIO\PBP3\MPU-5X RECEIVER MOMENTARY MODE-1.PBP    
                            00167       PAUSE 500:RED_LED = 1:PAUSE 1000:RED_LED = 0    
                      00457         PAUSE?C 001F4h
                          M     if (((001F4h) >> 8) == 0)
                          M         MOVE?CA 001F4h
                          M         L?CALL  PAUSE
                          M     else
                          M         MOVE?CB (001F4h) >> 8, R1 + 1
                          M         CHK?RP  R1 + 1
                          M     if (((R1 + 1) & 8000h) != PREV_ALT)
                          M       if ((R1 + 1) & 8000h)
                          M         bsf     WDTCON, ADSHR
                          M       else
                          M         bcf     WDTCON, ADSHR
                          M       endif
MPASM 5.75  MPU-5X RECEIVER MOMENTARY MODE-1   4-2-2018  15:19:27         PAGE 32


LOC  OBJECT CODE     LINE SOURCE TEXT
  VALUE

                          M PREV_ALT = (R1 + 1) & 8000h
                          M     endif
                          M     if ((((R1 + 1) & 0fffh) > BANKA_END) & (((R1 + 1) & 0fffh) < (0f01h + BANKA_END)))
                          M       if (((R1 + 1) & 0f00h) != (PREV_BANK << 8))
                          M         movlb   high (R1 + 1)
                          M PREV_BANK = high (R1 + 1)
                          M       endif
                          M     endif
                          M     if (low ((001F4h) >> 8) == 0)
                          M         clrf    R1 + 1
                          M     else
                          M       if (low ((001F4h) >> 8) == 255)
                          M         setf    R1 + 1
                          M       else
00011A 0E01               M         movlw   low ((001F4h) >> 8)
00011C 6E05               M         movwf   R1 + 1
                          M       endif
                          M     endif
                          M         MOVE?CA low (001F4h)
00011E 0EF4               M         movlw   low (low (001F4h))
                          M         L?CALL  PAUSEL
                          M         RST?RP
                          M     if (PREV_ALT != 0)
                          M         bcf     WDTCON, ADSHR
                          M PREV_ALT = 0
                          M     endif
                          M     if (PREV_BANK != 0)
                          M         movlb   0
                          M PREV_BANK = 0
                          M     endif
                          M 
                          M     ifdef USE_LINKER
                          M         call    PAUSEL
                          M     else
                          M       if ((PAUSEL) < 1)
                          M         call    PAUSEL
                          M       else
                          M         if ((PAUSEL) > $)
                          M         call    PAUSEL
                          M         else
                          M           if ((PAUSEL) < ($ - 3ffh))
                          M         call    PAUSEL
                          M           else
000120 DFB1               M         rcall   PAUSEL
                          M           endif
                          M         endif
                          M       endif
                          M     endif
                          M     endif
                      00458 
                      00459 ; C:\USERS\ANDREW MCENTEE\DOCUMENTS\NTH SOLUTIONS\URICCHIO\PBP3\MPU-5X RECEIVER MOMENTARY MODE-1.PBP    
                            00167       PAUSE 500:RED_LED = 1:PAUSE 1000:RED_LED = 0    
                      00460         MOVE?CT 001h, _RED_LED
MPASM 5.75  MPU-5X RECEIVER MOMENTARY MODE-1   4-2-2018  15:19:27         PAGE 33


LOC  OBJECT CODE     LINE SOURCE TEXT
  VALUE

                          M         CHK?RP  PORTA
                          M     if (((PORTA) & 8000h) != PREV_ALT)
                          M       if ((PORTA) & 8000h)
                          M         bsf     WDTCON, ADSHR
                          M       else
                          M         bcf     WDTCON, ADSHR
                          M       endif
                          M PREV_ALT = (PORTA) & 8000h
                          M     endif
                          M     if ((((PORTA) & 0fffh) > BANKA_END) & (((PORTA) & 0fffh) < (0f01h + BANKA_END)))
                          M       if (((PORTA) & 0f00h) != (PREV_BANK << 8))
                          M         movlb   high (PORTA)
                          M PREV_BANK = high (PORTA)
                          M       endif
                          M     endif
                          M     if (((001h) & 1) == 1)
000122 8280               M         bsf     PORTA,  001h
                          M     else
                          M         bcf     PORTA,  001h
                          M     endif
                      00461 
                      00462 ; C:\USERS\ANDREW MCENTEE\DOCUMENTS\NTH SOLUTIONS\URICCHIO\PBP3\MPU-5X RECEIVER MOMENTARY MODE-1.PBP    
                            00167       PAUSE 500:RED_LED = 1:PAUSE 1000:RED_LED = 0    
                      00463         PAUSE?C 003E8h
                          M     if (((003E8h) >> 8) == 0)
                          M         MOVE?CA 003E8h
                          M         L?CALL  PAUSE
                          M     else
                          M         MOVE?CB (003E8h) >> 8, R1 + 1
                          M         CHK?RP  R1 + 1
                          M     if (((R1 + 1) & 8000h) != PREV_ALT)
                          M       if ((R1 + 1) & 8000h)
                          M         bsf     WDTCON, ADSHR
                          M       else
                          M         bcf     WDTCON, ADSHR
                          M       endif
                          M PREV_ALT = (R1 + 1) & 8000h
                          M     endif
                          M     if ((((R1 + 1) & 0fffh) > BANKA_END) & (((R1 + 1) & 0fffh) < (0f01h + BANKA_END)))
                          M       if (((R1 + 1) & 0f00h) != (PREV_BANK << 8))
                          M         movlb   high (R1 + 1)
                          M PREV_BANK = high (R1 + 1)
                          M       endif
                          M     endif
                          M     if (low ((003E8h) >> 8) == 0)
                          M         clrf    R1 + 1
                          M     else
                          M       if (low ((003E8h) >> 8) == 255)
                          M         setf    R1 + 1
                          M       else
000124 0E03               M         movlw   low ((003E8h) >> 8)
000126 6E05               M         movwf   R1 + 1
                          M       endif
MPASM 5.75  MPU-5X RECEIVER MOMENTARY MODE-1   4-2-2018  15:19:27         PAGE 34


LOC  OBJECT CODE     LINE SOURCE TEXT
  VALUE

                          M     endif
                          M         MOVE?CA low (003E8h)
000128 0EE8               M         movlw   low (low (003E8h))
                          M         L?CALL  PAUSEL
                          M         RST?RP
                          M     if (PREV_ALT != 0)
                          M         bcf     WDTCON, ADSHR
                          M PREV_ALT = 0
                          M     endif
                          M     if (PREV_BANK != 0)
                          M         movlb   0
                          M PREV_BANK = 0
                          M     endif
                          M 
                          M     ifdef USE_LINKER
                          M         call    PAUSEL
                          M     else
                          M       if ((PAUSEL) < 1)
                          M         call    PAUSEL
                          M       else
                          M         if ((PAUSEL) > $)
                          M         call    PAUSEL
                          M         else
                          M           if ((PAUSEL) < ($ - 3ffh))
                          M         call    PAUSEL
                          M           else
00012A DFAC               M         rcall   PAUSEL
                          M           endif
                          M         endif
                          M       endif
                          M     endif
                          M     endif
                      00464 
                      00465 ; C:\USERS\ANDREW MCENTEE\DOCUMENTS\NTH SOLUTIONS\URICCHIO\PBP3\MPU-5X RECEIVER MOMENTARY MODE-1.PBP    
                            00167       PAUSE 500:RED_LED = 1:PAUSE 1000:RED_LED = 0    
                      00466         MOVE?CT 000h, _RED_LED
                          M         CHK?RP  PORTA
                          M     if (((PORTA) & 8000h) != PREV_ALT)
                          M       if ((PORTA) & 8000h)
                          M         bsf     WDTCON, ADSHR
                          M       else
                          M         bcf     WDTCON, ADSHR
                          M       endif
                          M PREV_ALT = (PORTA) & 8000h
                          M     endif
                          M     if ((((PORTA) & 0fffh) > BANKA_END) & (((PORTA) & 0fffh) < (0f01h + BANKA_END)))
                          M       if (((PORTA) & 0f00h) != (PREV_BANK << 8))
                          M         movlb   high (PORTA)
                          M PREV_BANK = high (PORTA)
                          M       endif
                          M     endif
                          M     if (((000h) & 1) == 1)
                          M         bsf     PORTA,  001h
MPASM 5.75  MPU-5X RECEIVER MOMENTARY MODE-1   4-2-2018  15:19:27         PAGE 35


LOC  OBJECT CODE     LINE SOURCE TEXT
  VALUE

                          M     else
00012C 9280               M         bcf     PORTA,  001h
                          M     endif
                      00467 
                      00468 ; C:\USERS\ANDREW MCENTEE\DOCUMENTS\NTH SOLUTIONS\URICCHIO\PBP3\MPU-5X RECEIVER MOMENTARY MODE-1.PBP    
                            00168       SerOut ADO, N9600, [CLRLCD]:PAUSE 10:SerOut ADO,N9600,[CLRLCD,LITEON]   'This line i
                      00469         SERPIN?T        _ADO
                          M         BIT?R1  PORTA, 003h
00012E 0E80               M         movlw   low ((PORTA) + ((003h)  >> 3))
                          M         CHK?RP  RR1
                          M     if (((RR1)   & 8000h) != PREV_ALT)
                          M       if ((RR1)   & 8000h)
                          M         bsf     WDTCON, ADSHR
                          M       else
                          M         bcf     WDTCON, ADSHR
                          M       endif
                          M PREV_ALT = (RR1)   & 8000h
                          M     endif
                          M     if ((((RR1)   & 0fffh) > BANKA_END) & (((RR1)   & 0fffh) < (0f01h + BANKA_END)))
                          M       if (((RR1)   & 0f00h) != (PREV_BANK << 8))
                          M         movlb   high (RR1)
                          M PREV_BANK = high (RR1)
                          M       endif
                          M     endif
000130 6E16               M         movwf   RR1
000132 0E0F               M         movlw   high ((PORTA) + ((003h)  >> 3))
000134 6E18               M         movwf   RS1
                          M         BIT?W   003h
                          M     if (((003h)  & 7) == 0)
                          M         movlw   01h
                          M     endif
                          M     if (((003h)  & 7) == 1)
                          M         movlw   02h
                          M     endif
                          M     if (((003h)  & 7) == 2)
                          M         movlw   04h
                          M     endif
                          M     if (((003h)  & 7) == 3)
000136 0E08               M         movlw   08h
                          M     endif
                          M     if (((003h)  & 7) == 4)
                          M         movlw   10h
                          M     endif
                          M     if (((003h)  & 7) == 5)
                          M         movlw   20h
                          M     endif
                          M     if (((003h)  & 7) == 6)
                          M         movlw   40h
                          M     endif
                          M     if (((003h)  & 7) == 7)
                          M         movlw   80h
                          M     endif
000138 6E14               M         movwf   RM1
MPASM 5.75  MPU-5X RECEIVER MOMENTARY MODE-1   4-2-2018  15:19:27         PAGE 36


LOC  OBJECT CODE     LINE SOURCE TEXT
  VALUE

                      00470         SERMODE?C       _N9600
                          M         MOVE?CB _N9600, GOP
                          M         CHK?RP  GOP
                          M     if (((GOP)   & 8000h) != PREV_ALT)
                          M       if ((GOP)   & 8000h)
                          M         bsf     WDTCON, ADSHR
                          M       else
                          M         bcf     WDTCON, ADSHR
                          M       endif
                          M PREV_ALT = (GOP)   & 8000h
                          M     endif
                          M     if ((((GOP)   & 0fffh) > BANKA_END) & (((GOP)   & 0fffh) < (0f01h + BANKA_END)))
                          M       if (((GOP)   & 0f00h) != (PREV_BANK << 8))
                          M         movlb   high (GOP)
                          M PREV_BANK = high (GOP)
                          M       endif
                          M     endif
                          M     if (low (_N9600) == 0)
                          M         clrf    GOP
                          M     else
                          M       if (low (_N9600) == 255)
                          M         setf    GOP
                          M       else
00013A 0E06               M         movlw   low (_N9600)
00013C 6E01               M         movwf   GOP
                          M       endif
                          M     endif
                      00471         SEROUT?C        _CLRLCD
00013E 0E0C               M         movlw   _CLRLCD
                          M         L?CALL  SEROUT
                          M         RST?RP
                          M     if (PREV_ALT != 0)
                          M         bcf     WDTCON, ADSHR
                          M PREV_ALT = 0
                          M     endif
                          M     if (PREV_BANK != 0)
                          M         movlb   0
                          M PREV_BANK = 0
                          M     endif
                          M 
                          M     ifdef USE_LINKER
                          M         call    SEROUT
                          M     else
                          M       if ((SEROUT) < 1)
                          M         call    SEROUT
                          M       else
                          M         if ((SEROUT) > $)
                          M         call    SEROUT
                          M         else
                          M           if ((SEROUT) < ($ - 3ffh))
                          M         call    SEROUT
                          M           else
000140 DF61               M         rcall   SEROUT
MPASM 5.75  MPU-5X RECEIVER MOMENTARY MODE-1   4-2-2018  15:19:27         PAGE 37


LOC  OBJECT CODE     LINE SOURCE TEXT
  VALUE

                          M           endif
                          M         endif
                          M       endif
                          M     endif
                      00472 
                      00473 ; C:\USERS\ANDREW MCENTEE\DOCUMENTS\NTH SOLUTIONS\URICCHIO\PBP3\MPU-5X RECEIVER MOMENTARY MODE-1.PBP    
                            00168       SerOut ADO, N9600, [CLRLCD]:PAUSE 10:SerOut ADO,N9600,[CLRLCD,LITEON]   'This line i
                      00474         PAUSE?C 00Ah
                          M     if (((00Ah) >> 8) == 0)
                          M         MOVE?CA 00Ah
000142 0E0A               M         movlw   low (00Ah)
                          M         L?CALL  PAUSE
                          M         RST?RP
                          M     if (PREV_ALT != 0)
                          M         bcf     WDTCON, ADSHR
                          M PREV_ALT = 0
                          M     endif
                          M     if (PREV_BANK != 0)
                          M         movlb   0
                          M PREV_BANK = 0
                          M     endif
                          M 
                          M     ifdef USE_LINKER
                          M         call    PAUSE
                          M     else
                          M       if ((PAUSE) < 1)
                          M         call    PAUSE
                          M       else
                          M         if ((PAUSE) > $)
                          M         call    PAUSE
                          M         else
                          M           if ((PAUSE) < ($ - 3ffh))
                          M         call    PAUSE
                          M           else
000144 DF9E               M         rcall   PAUSE
                          M           endif
                          M         endif
                          M       endif
                          M     endif
                          M     else
                          M         MOVE?CB (00Ah) >> 8, R1 + 1
                          M         MOVE?CA low (00Ah)
                          M         L?CALL  PAUSEL
                          M     endif
                      00475 
                      00476 ; C:\USERS\ANDREW MCENTEE\DOCUMENTS\NTH SOLUTIONS\URICCHIO\PBP3\MPU-5X RECEIVER MOMENTARY MODE-1.PBP    
                            00168       SerOut ADO, N9600, [CLRLCD]:PAUSE 10:SerOut ADO,N9600,[CLRLCD,LITEON]   'This line i
                      00477         SERPIN?T        _ADO
                          M         BIT?R1  PORTA, 003h
000146 0E80               M         movlw   low ((PORTA) + ((003h)  >> 3))
                          M         CHK?RP  RR1
                          M     if (((RR1)   & 8000h) != PREV_ALT)
                          M       if ((RR1)   & 8000h)
MPASM 5.75  MPU-5X RECEIVER MOMENTARY MODE-1   4-2-2018  15:19:27         PAGE 38


LOC  OBJECT CODE     LINE SOURCE TEXT
  VALUE

                          M         bsf     WDTCON, ADSHR
                          M       else
                          M         bcf     WDTCON, ADSHR
                          M       endif
                          M PREV_ALT = (RR1)   & 8000h
                          M     endif
                          M     if ((((RR1)   & 0fffh) > BANKA_END) & (((RR1)   & 0fffh) < (0f01h + BANKA_END)))
                          M       if (((RR1)   & 0f00h) != (PREV_BANK << 8))
                          M         movlb   high (RR1)
                          M PREV_BANK = high (RR1)
                          M       endif
                          M     endif
000148 6E16               M         movwf   RR1
00014A 0E0F               M         movlw   high ((PORTA) + ((003h)  >> 3))
00014C 6E18               M         movwf   RS1
                          M         BIT?W   003h
                          M     if (((003h)  & 7) == 0)
                          M         movlw   01h
                          M     endif
                          M     if (((003h)  & 7) == 1)
                          M         movlw   02h
                          M     endif
                          M     if (((003h)  & 7) == 2)
                          M         movlw   04h
                          M     endif
                          M     if (((003h)  & 7) == 3)
00014E 0E08               M         movlw   08h
                          M     endif
                          M     if (((003h)  & 7) == 4)
                          M         movlw   10h
                          M     endif
                          M     if (((003h)  & 7) == 5)
                          M         movlw   20h
                          M     endif
                          M     if (((003h)  & 7) == 6)
                          M         movlw   40h
                          M     endif
                          M     if (((003h)  & 7) == 7)
                          M         movlw   80h
                          M     endif
000150 6E14               M         movwf   RM1
                      00478         SERMODE?C       _N9600
                          M         MOVE?CB _N9600, GOP
                          M         CHK?RP  GOP
                          M     if (((GOP)   & 8000h) != PREV_ALT)
                          M       if ((GOP)   & 8000h)
                          M         bsf     WDTCON, ADSHR
                          M       else
                          M         bcf     WDTCON, ADSHR
                          M       endif
                          M PREV_ALT = (GOP)   & 8000h
                          M     endif
                          M     if ((((GOP)   & 0fffh) > BANKA_END) & (((GOP)   & 0fffh) < (0f01h + BANKA_END)))
MPASM 5.75  MPU-5X RECEIVER MOMENTARY MODE-1   4-2-2018  15:19:27         PAGE 39


LOC  OBJECT CODE     LINE SOURCE TEXT
  VALUE

                          M       if (((GOP)   & 0f00h) != (PREV_BANK << 8))
                          M         movlb   high (GOP)
                          M PREV_BANK = high (GOP)
                          M       endif
                          M     endif
                          M     if (low (_N9600) == 0)
                          M         clrf    GOP
                          M     else
                          M       if (low (_N9600) == 255)
                          M         setf    GOP
                          M       else
000152 0E06               M         movlw   low (_N9600)
000154 6E01               M         movwf   GOP
                          M       endif
                          M     endif
                      00479         SEROUT?C        _CLRLCD
000156 0E0C               M         movlw   _CLRLCD
                          M         L?CALL  SEROUT
                          M         RST?RP
                          M     if (PREV_ALT != 0)
                          M         bcf     WDTCON, ADSHR
                          M PREV_ALT = 0
                          M     endif
                          M     if (PREV_BANK != 0)
                          M         movlb   0
                          M PREV_BANK = 0
                          M     endif
                          M 
                          M     ifdef USE_LINKER
                          M         call    SEROUT
                          M     else
                          M       if ((SEROUT) < 1)
                          M         call    SEROUT
                          M       else
                          M         if ((SEROUT) > $)
                          M         call    SEROUT
                          M         else
                          M           if ((SEROUT) < ($ - 3ffh))
                          M         call    SEROUT
                          M           else
000158 DF55               M         rcall   SEROUT
                          M           endif
                          M         endif
                          M       endif
                          M     endif
                      00480         SEROUT?C        _LITEON
00015A 0E0E               M         movlw   _LITEON
                          M         L?CALL  SEROUT
                          M         RST?RP
                          M     if (PREV_ALT != 0)
                          M         bcf     WDTCON, ADSHR
                          M PREV_ALT = 0
                          M     endif
MPASM 5.75  MPU-5X RECEIVER MOMENTARY MODE-1   4-2-2018  15:19:27         PAGE 40


LOC  OBJECT CODE     LINE SOURCE TEXT
  VALUE

                          M     if (PREV_BANK != 0)
                          M         movlb   0
                          M PREV_BANK = 0
                          M     endif
                          M 
                          M     ifdef USE_LINKER
                          M         call    SEROUT
                          M     else
                          M       if ((SEROUT) < 1)
                          M         call    SEROUT
                          M       else
                          M         if ((SEROUT) > $)
                          M         call    SEROUT
                          M         else
                          M           if ((SEROUT) < ($ - 3ffh))
                          M         call    SEROUT
                          M           else
00015C DF53               M         rcall   SEROUT
                          M           endif
                          M         endif
                          M       endif
                          M     endif
                      00481 
                      00482 ; C:\USERS\ANDREW MCENTEE\DOCUMENTS\NTH SOLUTIONS\URICCHIO\PBP3\MPU-5X RECEIVER MOMENTARY MODE-1.PBP    
                            00169       serout ADO, N9600, [POSCMD,LINE1,"MPU-5x"]                              'PRINT PROGR
                      00483         SERPIN?T        _ADO
                          M         BIT?R1  PORTA, 003h
00015E 0E80               M         movlw   low ((PORTA) + ((003h)  >> 3))
                          M         CHK?RP  RR1
                          M     if (((RR1)   & 8000h) != PREV_ALT)
                          M       if ((RR1)   & 8000h)
                          M         bsf     WDTCON, ADSHR
                          M       else
                          M         bcf     WDTCON, ADSHR
                          M       endif
                          M PREV_ALT = (RR1)   & 8000h
                          M     endif
                          M     if ((((RR1)   & 0fffh) > BANKA_END) & (((RR1)   & 0fffh) < (0f01h + BANKA_END)))
                          M       if (((RR1)   & 0f00h) != (PREV_BANK << 8))
                          M         movlb   high (RR1)
                          M PREV_BANK = high (RR1)
                          M       endif
                          M     endif
000160 6E16               M         movwf   RR1
000162 0E0F               M         movlw   high ((PORTA) + ((003h)  >> 3))
000164 6E18               M         movwf   RS1
                          M         BIT?W   003h
                          M     if (((003h)  & 7) == 0)
                          M         movlw   01h
                          M     endif
                          M     if (((003h)  & 7) == 1)
                          M         movlw   02h
                          M     endif
MPASM 5.75  MPU-5X RECEIVER MOMENTARY MODE-1   4-2-2018  15:19:27         PAGE 41


LOC  OBJECT CODE     LINE SOURCE TEXT
  VALUE

                          M     if (((003h)  & 7) == 2)
                          M         movlw   04h
                          M     endif
                          M     if (((003h)  & 7) == 3)
000166 0E08               M         movlw   08h
                          M     endif
                          M     if (((003h)  & 7) == 4)
                          M         movlw   10h
                          M     endif
                          M     if (((003h)  & 7) == 5)
                          M         movlw   20h
                          M     endif
                          M     if (((003h)  & 7) == 6)
                          M         movlw   40h
                          M     endif
                          M     if (((003h)  & 7) == 7)
                          M         movlw   80h
                          M     endif
000168 6E14               M         movwf   RM1
                      00484         SERMODE?C       _N9600
                          M         MOVE?CB _N9600, GOP
                          M         CHK?RP  GOP
                          M     if (((GOP)   & 8000h) != PREV_ALT)
                          M       if ((GOP)   & 8000h)
                          M         bsf     WDTCON, ADSHR
                          M       else
                          M         bcf     WDTCON, ADSHR
                          M       endif
                          M PREV_ALT = (GOP)   & 8000h
                          M     endif
                          M     if ((((GOP)   & 0fffh) > BANKA_END) & (((GOP)   & 0fffh) < (0f01h + BANKA_END)))
                          M       if (((GOP)   & 0f00h) != (PREV_BANK << 8))
                          M         movlb   high (GOP)
                          M PREV_BANK = high (GOP)
                          M       endif
                          M     endif
                          M     if (low (_N9600) == 0)
                          M         clrf    GOP
                          M     else
                          M       if (low (_N9600) == 255)
                          M         setf    GOP
                          M       else
00016A 0E06               M         movlw   low (_N9600)
00016C 6E01               M         movwf   GOP
                          M       endif
                          M     endif
                      00485         SEROUT?C        _POSCMD
00016E 0E10               M         movlw   _POSCMD
                          M         L?CALL  SEROUT
                          M         RST?RP
                          M     if (PREV_ALT != 0)
                          M         bcf     WDTCON, ADSHR
                          M PREV_ALT = 0
MPASM 5.75  MPU-5X RECEIVER MOMENTARY MODE-1   4-2-2018  15:19:27         PAGE 42


LOC  OBJECT CODE     LINE SOURCE TEXT
  VALUE

                          M     endif
                          M     if (PREV_BANK != 0)
                          M         movlb   0
                          M PREV_BANK = 0
                          M     endif
                          M 
                          M     ifdef USE_LINKER
                          M         call    SEROUT
                          M     else
                          M       if ((SEROUT) < 1)
                          M         call    SEROUT
                          M       else
                          M         if ((SEROUT) > $)
                          M         call    SEROUT
                          M         else
                          M           if ((SEROUT) < ($ - 3ffh))
                          M         call    SEROUT
                          M           else
000170 DF49               M         rcall   SEROUT
                          M           endif
                          M         endif
                          M       endif
                          M     endif
                      00486         SEROUT?C        _LINE1
000172 0E40               M         movlw   _LINE1
                          M         L?CALL  SEROUT
                          M         RST?RP
                          M     if (PREV_ALT != 0)
                          M         bcf     WDTCON, ADSHR
                          M PREV_ALT = 0
                          M     endif
                          M     if (PREV_BANK != 0)
                          M         movlb   0
                          M PREV_BANK = 0
                          M     endif
                          M 
                          M     ifdef USE_LINKER
                          M         call    SEROUT
                          M     else
                          M       if ((SEROUT) < 1)
                          M         call    SEROUT
                          M       else
                          M         if ((SEROUT) > $)
                          M         call    SEROUT
                          M         else
                          M           if ((SEROUT) < ($ - 3ffh))
                          M         call    SEROUT
                          M           else
000174 DF47               M         rcall   SEROUT
                          M           endif
                          M         endif
                          M       endif
                          M     endif
MPASM 5.75  MPU-5X RECEIVER MOMENTARY MODE-1   4-2-2018  15:19:27         PAGE 43


LOC  OBJECT CODE     LINE SOURCE TEXT
  VALUE

                      00487         SEROUT?C        04Dh
000176 0E4D               M         movlw   04Dh
                          M         L?CALL  SEROUT
                          M         RST?RP
                          M     if (PREV_ALT != 0)
                          M         bcf     WDTCON, ADSHR
                          M PREV_ALT = 0
                          M     endif
                          M     if (PREV_BANK != 0)
                          M         movlb   0
                          M PREV_BANK = 0
                          M     endif
                          M 
                          M     ifdef USE_LINKER
                          M         call    SEROUT
                          M     else
                          M       if ((SEROUT) < 1)
                          M         call    SEROUT
                          M       else
                          M         if ((SEROUT) > $)
                          M         call    SEROUT
                          M         else
                          M           if ((SEROUT) < ($ - 3ffh))
                          M         call    SEROUT
                          M           else
000178 DF45               M         rcall   SEROUT
                          M           endif
                          M         endif
                          M       endif
                          M     endif
                      00488         SEROUT?C        050h
00017A 0E50               M         movlw   050h
                          M         L?CALL  SEROUT
                          M         RST?RP
                          M     if (PREV_ALT != 0)
                          M         bcf     WDTCON, ADSHR
                          M PREV_ALT = 0
                          M     endif
                          M     if (PREV_BANK != 0)
                          M         movlb   0
                          M PREV_BANK = 0
                          M     endif
                          M 
                          M     ifdef USE_LINKER
                          M         call    SEROUT
                          M     else
                          M       if ((SEROUT) < 1)
                          M         call    SEROUT
                          M       else
                          M         if ((SEROUT) > $)
                          M         call    SEROUT
                          M         else
                          M           if ((SEROUT) < ($ - 3ffh))
MPASM 5.75  MPU-5X RECEIVER MOMENTARY MODE-1   4-2-2018  15:19:27         PAGE 44


LOC  OBJECT CODE     LINE SOURCE TEXT
  VALUE

                          M         call    SEROUT
                          M           else
00017C DF43               M         rcall   SEROUT
                          M           endif
                          M         endif
                          M       endif
                          M     endif
                      00489         SEROUT?C        055h
00017E 0E55               M         movlw   055h
                          M         L?CALL  SEROUT
                          M         RST?RP
                          M     if (PREV_ALT != 0)
                          M         bcf     WDTCON, ADSHR
                          M PREV_ALT = 0
                          M     endif
                          M     if (PREV_BANK != 0)
                          M         movlb   0
                          M PREV_BANK = 0
                          M     endif
                          M 
                          M     ifdef USE_LINKER
                          M         call    SEROUT
                          M     else
                          M       if ((SEROUT) < 1)
                          M         call    SEROUT
                          M       else
                          M         if ((SEROUT) > $)
                          M         call    SEROUT
                          M         else
                          M           if ((SEROUT) < ($ - 3ffh))
                          M         call    SEROUT
                          M           else
000180 DF41               M         rcall   SEROUT
                          M           endif
                          M         endif
                          M       endif
                          M     endif
                      00490         SEROUT?C        02Dh
000182 0E2D               M         movlw   02Dh
                          M         L?CALL  SEROUT
                          M         RST?RP
                          M     if (PREV_ALT != 0)
                          M         bcf     WDTCON, ADSHR
                          M PREV_ALT = 0
                          M     endif
                          M     if (PREV_BANK != 0)
                          M         movlb   0
                          M PREV_BANK = 0
                          M     endif
                          M 
                          M     ifdef USE_LINKER
                          M         call    SEROUT
                          M     else
MPASM 5.75  MPU-5X RECEIVER MOMENTARY MODE-1   4-2-2018  15:19:27         PAGE 45


LOC  OBJECT CODE     LINE SOURCE TEXT
  VALUE

                          M       if ((SEROUT) < 1)
                          M         call    SEROUT
                          M       else
                          M         if ((SEROUT) > $)
                          M         call    SEROUT
                          M         else
                          M           if ((SEROUT) < ($ - 3ffh))
                          M         call    SEROUT
                          M           else
000184 DF3F               M         rcall   SEROUT
                          M           endif
                          M         endif
                          M       endif
                          M     endif
                      00491         SEROUT?C        035h
000186 0E35               M         movlw   035h
                          M         L?CALL  SEROUT
                          M         RST?RP
                          M     if (PREV_ALT != 0)
                          M         bcf     WDTCON, ADSHR
                          M PREV_ALT = 0
                          M     endif
                          M     if (PREV_BANK != 0)
                          M         movlb   0
                          M PREV_BANK = 0
                          M     endif
                          M 
                          M     ifdef USE_LINKER
                          M         call    SEROUT
                          M     else
                          M       if ((SEROUT) < 1)
                          M         call    SEROUT
                          M       else
                          M         if ((SEROUT) > $)
                          M         call    SEROUT
                          M         else
                          M           if ((SEROUT) < ($ - 3ffh))
                          M         call    SEROUT
                          M           else
000188 DF3D               M         rcall   SEROUT
                          M           endif
                          M         endif
                          M       endif
                          M     endif
                      00492         SEROUT?C        078h
00018A 0E78               M         movlw   078h
                          M         L?CALL  SEROUT
                          M         RST?RP
                          M     if (PREV_ALT != 0)
                          M         bcf     WDTCON, ADSHR
                          M PREV_ALT = 0
                          M     endif
                          M     if (PREV_BANK != 0)
MPASM 5.75  MPU-5X RECEIVER MOMENTARY MODE-1   4-2-2018  15:19:27         PAGE 46


LOC  OBJECT CODE     LINE SOURCE TEXT
  VALUE

                          M         movlb   0
                          M PREV_BANK = 0
                          M     endif
                          M 
                          M     ifdef USE_LINKER
                          M         call    SEROUT
                          M     else
                          M       if ((SEROUT) < 1)
                          M         call    SEROUT
                          M       else
                          M         if ((SEROUT) > $)
                          M         call    SEROUT
                          M         else
                          M           if ((SEROUT) < ($ - 3ffh))
                          M         call    SEROUT
                          M           else
00018C DF3B               M         rcall   SEROUT
                          M           endif
                          M         endif
                          M       endif
                          M     endif
                      00493 
                      00494 ; C:\USERS\ANDREW MCENTEE\DOCUMENTS\NTH SOLUTIONS\URICCHIO\PBP3\MPU-5X RECEIVER MOMENTARY MODE-1.PBP    
                            00170       serout ADO, N9600, [POSCMD,LINE2,"Receiver"]
                      00495         SERPIN?T        _ADO
                          M         BIT?R1  PORTA, 003h
00018E 0E80               M         movlw   low ((PORTA) + ((003h)  >> 3))
                          M         CHK?RP  RR1
                          M     if (((RR1)   & 8000h) != PREV_ALT)
                          M       if ((RR1)   & 8000h)
                          M         bsf     WDTCON, ADSHR
                          M       else
                          M         bcf     WDTCON, ADSHR
                          M       endif
                          M PREV_ALT = (RR1)   & 8000h
                          M     endif
                          M     if ((((RR1)   & 0fffh) > BANKA_END) & (((RR1)   & 0fffh) < (0f01h + BANKA_END)))
                          M       if (((RR1)   & 0f00h) != (PREV_BANK << 8))
                          M         movlb   high (RR1)
                          M PREV_BANK = high (RR1)
                          M       endif
                          M     endif
000190 6E16               M         movwf   RR1
000192 0E0F               M         movlw   high ((PORTA) + ((003h)  >> 3))
000194 6E18               M         movwf   RS1
                          M         BIT?W   003h
                          M     if (((003h)  & 7) == 0)
                          M         movlw   01h
                          M     endif
                          M     if (((003h)  & 7) == 1)
                          M         movlw   02h
                          M     endif
                          M     if (((003h)  & 7) == 2)
MPASM 5.75  MPU-5X RECEIVER MOMENTARY MODE-1   4-2-2018  15:19:27         PAGE 47


LOC  OBJECT CODE     LINE SOURCE TEXT
  VALUE

                          M         movlw   04h
                          M     endif
                          M     if (((003h)  & 7) == 3)
000196 0E08               M         movlw   08h
                          M     endif
                          M     if (((003h)  & 7) == 4)
                          M         movlw   10h
                          M     endif
                          M     if (((003h)  & 7) == 5)
                          M         movlw   20h
                          M     endif
                          M     if (((003h)  & 7) == 6)
                          M         movlw   40h
                          M     endif
                          M     if (((003h)  & 7) == 7)
                          M         movlw   80h
                          M     endif
000198 6E14               M         movwf   RM1
                      00496         SERMODE?C       _N9600
                          M         MOVE?CB _N9600, GOP
                          M         CHK?RP  GOP
                          M     if (((GOP)   & 8000h) != PREV_ALT)
                          M       if ((GOP)   & 8000h)
                          M         bsf     WDTCON, ADSHR
                          M       else
                          M         bcf     WDTCON, ADSHR
                          M       endif
                          M PREV_ALT = (GOP)   & 8000h
                          M     endif
                          M     if ((((GOP)   & 0fffh) > BANKA_END) & (((GOP)   & 0fffh) < (0f01h + BANKA_END)))
                          M       if (((GOP)   & 0f00h) != (PREV_BANK << 8))
                          M         movlb   high (GOP)
                          M PREV_BANK = high (GOP)
                          M       endif
                          M     endif
                          M     if (low (_N9600) == 0)
                          M         clrf    GOP
                          M     else
                          M       if (low (_N9600) == 255)
                          M         setf    GOP
                          M       else
00019A 0E06               M         movlw   low (_N9600)
00019C 6E01               M         movwf   GOP
                          M       endif
                          M     endif
                      00497         SEROUT?C        _POSCMD
00019E 0E10               M         movlw   _POSCMD
                          M         L?CALL  SEROUT
                          M         RST?RP
                          M     if (PREV_ALT != 0)
                          M         bcf     WDTCON, ADSHR
                          M PREV_ALT = 0
                          M     endif
MPASM 5.75  MPU-5X RECEIVER MOMENTARY MODE-1   4-2-2018  15:19:27         PAGE 48


LOC  OBJECT CODE     LINE SOURCE TEXT
  VALUE

                          M     if (PREV_BANK != 0)
                          M         movlb   0
                          M PREV_BANK = 0
                          M     endif
                          M 
                          M     ifdef USE_LINKER
                          M         call    SEROUT
                          M     else
                          M       if ((SEROUT) < 1)
                          M         call    SEROUT
                          M       else
                          M         if ((SEROUT) > $)
                          M         call    SEROUT
                          M         else
                          M           if ((SEROUT) < ($ - 3ffh))
                          M         call    SEROUT
                          M           else
0001A0 DF31               M         rcall   SEROUT
                          M           endif
                          M         endif
                          M       endif
                          M     endif
                      00498         SEROUT?C        _LINE2
0001A2 0E54               M         movlw   _LINE2
                          M         L?CALL  SEROUT
                          M         RST?RP
                          M     if (PREV_ALT != 0)
                          M         bcf     WDTCON, ADSHR
                          M PREV_ALT = 0
                          M     endif
                          M     if (PREV_BANK != 0)
                          M         movlb   0
                          M PREV_BANK = 0
                          M     endif
                          M 
                          M     ifdef USE_LINKER
                          M         call    SEROUT
                          M     else
                          M       if ((SEROUT) < 1)
                          M         call    SEROUT
                          M       else
                          M         if ((SEROUT) > $)
                          M         call    SEROUT
                          M         else
                          M           if ((SEROUT) < ($ - 3ffh))
                          M         call    SEROUT
                          M           else
0001A4 DF2F               M         rcall   SEROUT
                          M           endif
                          M         endif
                          M       endif
                          M     endif
                      00499         SEROUT?C        052h
MPASM 5.75  MPU-5X RECEIVER MOMENTARY MODE-1   4-2-2018  15:19:27         PAGE 49


LOC  OBJECT CODE     LINE SOURCE TEXT
  VALUE

0001A6 0E52               M         movlw   052h
                          M         L?CALL  SEROUT
                          M         RST?RP
                          M     if (PREV_ALT != 0)
                          M         bcf     WDTCON, ADSHR
                          M PREV_ALT = 0
                          M     endif
                          M     if (PREV_BANK != 0)
                          M         movlb   0
                          M PREV_BANK = 0
                          M     endif
                          M 
                          M     ifdef USE_LINKER
                          M         call    SEROUT
                          M     else
                          M       if ((SEROUT) < 1)
                          M         call    SEROUT
                          M       else
                          M         if ((SEROUT) > $)
                          M         call    SEROUT
                          M         else
                          M           if ((SEROUT) < ($ - 3ffh))
                          M         call    SEROUT
                          M           else
0001A8 DF2D               M         rcall   SEROUT
                          M           endif
                          M         endif
                          M       endif
                          M     endif
                      00500         SEROUT?C        065h
0001AA 0E65               M         movlw   065h
                          M         L?CALL  SEROUT
                          M         RST?RP
                          M     if (PREV_ALT != 0)
                          M         bcf     WDTCON, ADSHR
                          M PREV_ALT = 0
                          M     endif
                          M     if (PREV_BANK != 0)
                          M         movlb   0
                          M PREV_BANK = 0
                          M     endif
                          M 
                          M     ifdef USE_LINKER
                          M         call    SEROUT
                          M     else
                          M       if ((SEROUT) < 1)
                          M         call    SEROUT
                          M       else
                          M         if ((SEROUT) > $)
                          M         call    SEROUT
                          M         else
                          M           if ((SEROUT) < ($ - 3ffh))
                          M         call    SEROUT
MPASM 5.75  MPU-5X RECEIVER MOMENTARY MODE-1   4-2-2018  15:19:27         PAGE 50


LOC  OBJECT CODE     LINE SOURCE TEXT
  VALUE

                          M           else
0001AC DF2B               M         rcall   SEROUT
                          M           endif
                          M         endif
                          M       endif
                          M     endif
                      00501         SEROUT?C        063h
0001AE 0E63               M         movlw   063h
                          M         L?CALL  SEROUT
                          M         RST?RP
                          M     if (PREV_ALT != 0)
                          M         bcf     WDTCON, ADSHR
                          M PREV_ALT = 0
                          M     endif
                          M     if (PREV_BANK != 0)
                          M         movlb   0
                          M PREV_BANK = 0
                          M     endif
                          M 
                          M     ifdef USE_LINKER
                          M         call    SEROUT
                          M     else
                          M       if ((SEROUT) < 1)
                          M         call    SEROUT
                          M       else
                          M         if ((SEROUT) > $)
                          M         call    SEROUT
                          M         else
                          M           if ((SEROUT) < ($ - 3ffh))
                          M         call    SEROUT
                          M           else
0001B0 DF29               M         rcall   SEROUT
                          M           endif
                          M         endif
                          M       endif
                          M     endif
                      00502         SEROUT?C        065h
0001B2 0E65               M         movlw   065h
                          M         L?CALL  SEROUT
                          M         RST?RP
                          M     if (PREV_ALT != 0)
                          M         bcf     WDTCON, ADSHR
                          M PREV_ALT = 0
                          M     endif
                          M     if (PREV_BANK != 0)
                          M         movlb   0
                          M PREV_BANK = 0
                          M     endif
                          M 
                          M     ifdef USE_LINKER
                          M         call    SEROUT
                          M     else
                          M       if ((SEROUT) < 1)
MPASM 5.75  MPU-5X RECEIVER MOMENTARY MODE-1   4-2-2018  15:19:27         PAGE 51


LOC  OBJECT CODE     LINE SOURCE TEXT
  VALUE

                          M         call    SEROUT
                          M       else
                          M         if ((SEROUT) > $)
                          M         call    SEROUT
                          M         else
                          M           if ((SEROUT) < ($ - 3ffh))
                          M         call    SEROUT
                          M           else
0001B4 DF27               M         rcall   SEROUT
                          M           endif
                          M         endif
                          M       endif
                          M     endif
                      00503         SEROUT?C        069h
0001B6 0E69               M         movlw   069h
                          M         L?CALL  SEROUT
                          M         RST?RP
                          M     if (PREV_ALT != 0)
                          M         bcf     WDTCON, ADSHR
                          M PREV_ALT = 0
                          M     endif
                          M     if (PREV_BANK != 0)
                          M         movlb   0
                          M PREV_BANK = 0
                          M     endif
                          M 
                          M     ifdef USE_LINKER
                          M         call    SEROUT
                          M     else
                          M       if ((SEROUT) < 1)
                          M         call    SEROUT
                          M       else
                          M         if ((SEROUT) > $)
                          M         call    SEROUT
                          M         else
                          M           if ((SEROUT) < ($ - 3ffh))
                          M         call    SEROUT
                          M           else
0001B8 DF25               M         rcall   SEROUT
                          M           endif
                          M         endif
                          M       endif
                          M     endif
                      00504         SEROUT?C        076h
0001BA 0E76               M         movlw   076h
                          M         L?CALL  SEROUT
                          M         RST?RP
                          M     if (PREV_ALT != 0)
                          M         bcf     WDTCON, ADSHR
                          M PREV_ALT = 0
                          M     endif
                          M     if (PREV_BANK != 0)
                          M         movlb   0
MPASM 5.75  MPU-5X RECEIVER MOMENTARY MODE-1   4-2-2018  15:19:27         PAGE 52


LOC  OBJECT CODE     LINE SOURCE TEXT
  VALUE

                          M PREV_BANK = 0
                          M     endif
                          M 
                          M     ifdef USE_LINKER
                          M         call    SEROUT
                          M     else
                          M       if ((SEROUT) < 1)
                          M         call    SEROUT
                          M       else
                          M         if ((SEROUT) > $)
                          M         call    SEROUT
                          M         else
                          M           if ((SEROUT) < ($ - 3ffh))
                          M         call    SEROUT
                          M           else
0001BC DF23               M         rcall   SEROUT
                          M           endif
                          M         endif
                          M       endif
                          M     endif
                      00505         SEROUT?C        065h
0001BE 0E65               M         movlw   065h
                          M         L?CALL  SEROUT
                          M         RST?RP
                          M     if (PREV_ALT != 0)
                          M         bcf     WDTCON, ADSHR
                          M PREV_ALT = 0
                          M     endif
                          M     if (PREV_BANK != 0)
                          M         movlb   0
                          M PREV_BANK = 0
                          M     endif
                          M 
                          M     ifdef USE_LINKER
                          M         call    SEROUT
                          M     else
                          M       if ((SEROUT) < 1)
                          M         call    SEROUT
                          M       else
                          M         if ((SEROUT) > $)
                          M         call    SEROUT
                          M         else
                          M           if ((SEROUT) < ($ - 3ffh))
                          M         call    SEROUT
                          M           else
0001C0 DF21               M         rcall   SEROUT
                          M           endif
                          M         endif
                          M       endif
                          M     endif
                      00506         SEROUT?C        072h
0001C2 0E72               M         movlw   072h
                          M         L?CALL  SEROUT
MPASM 5.75  MPU-5X RECEIVER MOMENTARY MODE-1   4-2-2018  15:19:27         PAGE 53


LOC  OBJECT CODE     LINE SOURCE TEXT
  VALUE

                          M         RST?RP
                          M     if (PREV_ALT != 0)
                          M         bcf     WDTCON, ADSHR
                          M PREV_ALT = 0
                          M     endif
                          M     if (PREV_BANK != 0)
                          M         movlb   0
                          M PREV_BANK = 0
                          M     endif
                          M 
                          M     ifdef USE_LINKER
                          M         call    SEROUT
                          M     else
                          M       if ((SEROUT) < 1)
                          M         call    SEROUT
                          M       else
                          M         if ((SEROUT) > $)
                          M         call    SEROUT
                          M         else
                          M           if ((SEROUT) < ($ - 3ffh))
                          M         call    SEROUT
                          M           else
0001C4 DF1F               M         rcall   SEROUT
                          M           endif
                          M         endif
                          M       endif
                          M     endif
                      00507 
                      00508 ; C:\USERS\ANDREW MCENTEE\DOCUMENTS\NTH SOLUTIONS\URICCHIO\PBP3\MPU-5X RECEIVER MOMENTARY MODE-1.PBP    
                            00171       serout ADO, N9600, [POSCMD,LINE3,"MOMENTARY Mode-1"]
                      00509         SERPIN?T        _ADO
                          M         BIT?R1  PORTA, 003h
0001C6 0E80               M         movlw   low ((PORTA) + ((003h)  >> 3))
                          M         CHK?RP  RR1
                          M     if (((RR1)   & 8000h) != PREV_ALT)
                          M       if ((RR1)   & 8000h)
                          M         bsf     WDTCON, ADSHR
                          M       else
                          M         bcf     WDTCON, ADSHR
                          M       endif
                          M PREV_ALT = (RR1)   & 8000h
                          M     endif
                          M     if ((((RR1)   & 0fffh) > BANKA_END) & (((RR1)   & 0fffh) < (0f01h + BANKA_END)))
                          M       if (((RR1)   & 0f00h) != (PREV_BANK << 8))
                          M         movlb   high (RR1)
                          M PREV_BANK = high (RR1)
                          M       endif
                          M     endif
0001C8 6E16               M         movwf   RR1
0001CA 0E0F               M         movlw   high ((PORTA) + ((003h)  >> 3))
0001CC 6E18               M         movwf   RS1
                          M         BIT?W   003h
                          M     if (((003h)  & 7) == 0)
MPASM 5.75  MPU-5X RECEIVER MOMENTARY MODE-1   4-2-2018  15:19:27         PAGE 54


LOC  OBJECT CODE     LINE SOURCE TEXT
  VALUE

                          M         movlw   01h
                          M     endif
                          M     if (((003h)  & 7) == 1)
                          M         movlw   02h
                          M     endif
                          M     if (((003h)  & 7) == 2)
                          M         movlw   04h
                          M     endif
                          M     if (((003h)  & 7) == 3)
0001CE 0E08               M         movlw   08h
                          M     endif
                          M     if (((003h)  & 7) == 4)
                          M         movlw   10h
                          M     endif
                          M     if (((003h)  & 7) == 5)
                          M         movlw   20h
                          M     endif
                          M     if (((003h)  & 7) == 6)
                          M         movlw   40h
                          M     endif
                          M     if (((003h)  & 7) == 7)
                          M         movlw   80h
                          M     endif
0001D0 6E14               M         movwf   RM1
                      00510         SERMODE?C       _N9600
                          M         MOVE?CB _N9600, GOP
                          M         CHK?RP  GOP
                          M     if (((GOP)   & 8000h) != PREV_ALT)
                          M       if ((GOP)   & 8000h)
                          M         bsf     WDTCON, ADSHR
                          M       else
                          M         bcf     WDTCON, ADSHR
                          M       endif
                          M PREV_ALT = (GOP)   & 8000h
                          M     endif
                          M     if ((((GOP)   & 0fffh) > BANKA_END) & (((GOP)   & 0fffh) < (0f01h + BANKA_END)))
                          M       if (((GOP)   & 0f00h) != (PREV_BANK << 8))
                          M         movlb   high (GOP)
                          M PREV_BANK = high (GOP)
                          M       endif
                          M     endif
                          M     if (low (_N9600) == 0)
                          M         clrf    GOP
                          M     else
                          M       if (low (_N9600) == 255)
                          M         setf    GOP
                          M       else
0001D2 0E06               M         movlw   low (_N9600)
0001D4 6E01               M         movwf   GOP
                          M       endif
                          M     endif
                      00511         SEROUT?C        _POSCMD
0001D6 0E10               M         movlw   _POSCMD
MPASM 5.75  MPU-5X RECEIVER MOMENTARY MODE-1   4-2-2018  15:19:27         PAGE 55


LOC  OBJECT CODE     LINE SOURCE TEXT
  VALUE

                          M         L?CALL  SEROUT
                          M         RST?RP
                          M     if (PREV_ALT != 0)
                          M         bcf     WDTCON, ADSHR
                          M PREV_ALT = 0
                          M     endif
                          M     if (PREV_BANK != 0)
                          M         movlb   0
                          M PREV_BANK = 0
                          M     endif
                          M 
                          M     ifdef USE_LINKER
                          M         call    SEROUT
                          M     else
                          M       if ((SEROUT) < 1)
                          M         call    SEROUT
                          M       else
                          M         if ((SEROUT) > $)
                          M         call    SEROUT
                          M         else
                          M           if ((SEROUT) < ($ - 3ffh))
                          M         call    SEROUT
                          M           else
0001D8 DF15               M         rcall   SEROUT
                          M           endif
                          M         endif
                          M       endif
                          M     endif
                      00512         SEROUT?C        _LINE3
0001DA 0E68               M         movlw   _LINE3
                          M         L?CALL  SEROUT
                          M         RST?RP
                          M     if (PREV_ALT != 0)
                          M         bcf     WDTCON, ADSHR
                          M PREV_ALT = 0
                          M     endif
                          M     if (PREV_BANK != 0)
                          M         movlb   0
                          M PREV_BANK = 0
                          M     endif
                          M 
                          M     ifdef USE_LINKER
                          M         call    SEROUT
                          M     else
                          M       if ((SEROUT) < 1)
                          M         call    SEROUT
                          M       else
                          M         if ((SEROUT) > $)
                          M         call    SEROUT
                          M         else
                          M           if ((SEROUT) < ($ - 3ffh))
                          M         call    SEROUT
                          M           else
MPASM 5.75  MPU-5X RECEIVER MOMENTARY MODE-1   4-2-2018  15:19:27         PAGE 56


LOC  OBJECT CODE     LINE SOURCE TEXT
  VALUE

0001DC DF13               M         rcall   SEROUT
                          M           endif
                          M         endif
                          M       endif
                          M     endif
                      00513         SEROUT?C        04Dh
0001DE 0E4D               M         movlw   04Dh
                          M         L?CALL  SEROUT
                          M         RST?RP
                          M     if (PREV_ALT != 0)
                          M         bcf     WDTCON, ADSHR
                          M PREV_ALT = 0
                          M     endif
                          M     if (PREV_BANK != 0)
                          M         movlb   0
                          M PREV_BANK = 0
                          M     endif
                          M 
                          M     ifdef USE_LINKER
                          M         call    SEROUT
                          M     else
                          M       if ((SEROUT) < 1)
                          M         call    SEROUT
                          M       else
                          M         if ((SEROUT) > $)
                          M         call    SEROUT
                          M         else
                          M           if ((SEROUT) < ($ - 3ffh))
                          M         call    SEROUT
                          M           else
0001E0 DF11               M         rcall   SEROUT
                          M           endif
                          M         endif
                          M       endif
                          M     endif
                      00514         SEROUT?C        04Fh
0001E2 0E4F               M         movlw   04Fh
                          M         L?CALL  SEROUT
                          M         RST?RP
                          M     if (PREV_ALT != 0)
                          M         bcf     WDTCON, ADSHR
                          M PREV_ALT = 0
                          M     endif
                          M     if (PREV_BANK != 0)
                          M         movlb   0
                          M PREV_BANK = 0
                          M     endif
                          M 
                          M     ifdef USE_LINKER
                          M         call    SEROUT
                          M     else
                          M       if ((SEROUT) < 1)
                          M         call    SEROUT
MPASM 5.75  MPU-5X RECEIVER MOMENTARY MODE-1   4-2-2018  15:19:27         PAGE 57


LOC  OBJECT CODE     LINE SOURCE TEXT
  VALUE

                          M       else
                          M         if ((SEROUT) > $)
                          M         call    SEROUT
                          M         else
                          M           if ((SEROUT) < ($ - 3ffh))
                          M         call    SEROUT
                          M           else
0001E4 DF0F               M         rcall   SEROUT
                          M           endif
                          M         endif
                          M       endif
                          M     endif
                      00515         SEROUT?C        04Dh
0001E6 0E4D               M         movlw   04Dh
                          M         L?CALL  SEROUT
                          M         RST?RP
                          M     if (PREV_ALT != 0)
                          M         bcf     WDTCON, ADSHR
                          M PREV_ALT = 0
                          M     endif
                          M     if (PREV_BANK != 0)
                          M         movlb   0
                          M PREV_BANK = 0
                          M     endif
                          M 
                          M     ifdef USE_LINKER
                          M         call    SEROUT
                          M     else
                          M       if ((SEROUT) < 1)
                          M         call    SEROUT
                          M       else
                          M         if ((SEROUT) > $)
                          M         call    SEROUT
                          M         else
                          M           if ((SEROUT) < ($ - 3ffh))
                          M         call    SEROUT
                          M           else
0001E8 DF0D               M         rcall   SEROUT
                          M           endif
                          M         endif
                          M       endif
                          M     endif
                      00516         SEROUT?C        045h
0001EA 0E45               M         movlw   045h
                          M         L?CALL  SEROUT
                          M         RST?RP
                          M     if (PREV_ALT != 0)
                          M         bcf     WDTCON, ADSHR
                          M PREV_ALT = 0
                          M     endif
                          M     if (PREV_BANK != 0)
                          M         movlb   0
                          M PREV_BANK = 0
MPASM 5.75  MPU-5X RECEIVER MOMENTARY MODE-1   4-2-2018  15:19:27         PAGE 58


LOC  OBJECT CODE     LINE SOURCE TEXT
  VALUE

                          M     endif
                          M 
                          M     ifdef USE_LINKER
                          M         call    SEROUT
                          M     else
                          M       if ((SEROUT) < 1)
                          M         call    SEROUT
                          M       else
                          M         if ((SEROUT) > $)
                          M         call    SEROUT
                          M         else
                          M           if ((SEROUT) < ($ - 3ffh))
                          M         call    SEROUT
                          M           else
0001EC DF0B               M         rcall   SEROUT
                          M           endif
                          M         endif
                          M       endif
                          M     endif
                      00517         SEROUT?C        04Eh
0001EE 0E4E               M         movlw   04Eh
                          M         L?CALL  SEROUT
                          M         RST?RP
                          M     if (PREV_ALT != 0)
                          M         bcf     WDTCON, ADSHR
                          M PREV_ALT = 0
                          M     endif
                          M     if (PREV_BANK != 0)
                          M         movlb   0
                          M PREV_BANK = 0
                          M     endif
                          M 
                          M     ifdef USE_LINKER
                          M         call    SEROUT
                          M     else
                          M       if ((SEROUT) < 1)
                          M         call    SEROUT
                          M       else
                          M         if ((SEROUT) > $)
                          M         call    SEROUT
                          M         else
                          M           if ((SEROUT) < ($ - 3ffh))
                          M         call    SEROUT
                          M           else
0001F0 DF09               M         rcall   SEROUT
                          M           endif
                          M         endif
                          M       endif
                          M     endif
                      00518         SEROUT?C        054h
0001F2 0E54               M         movlw   054h
                          M         L?CALL  SEROUT
                          M         RST?RP
MPASM 5.75  MPU-5X RECEIVER MOMENTARY MODE-1   4-2-2018  15:19:27         PAGE 59


LOC  OBJECT CODE     LINE SOURCE TEXT
  VALUE

                          M     if (PREV_ALT != 0)
                          M         bcf     WDTCON, ADSHR
                          M PREV_ALT = 0
                          M     endif
                          M     if (PREV_BANK != 0)
                          M         movlb   0
                          M PREV_BANK = 0
                          M     endif
                          M 
                          M     ifdef USE_LINKER
                          M         call    SEROUT
                          M     else
                          M       if ((SEROUT) < 1)
                          M         call    SEROUT
                          M       else
                          M         if ((SEROUT) > $)
                          M         call    SEROUT
                          M         else
                          M           if ((SEROUT) < ($ - 3ffh))
                          M         call    SEROUT
                          M           else
0001F4 DF07               M         rcall   SEROUT
                          M           endif
                          M         endif
                          M       endif
                          M     endif
                      00519         SEROUT?C        041h
0001F6 0E41               M         movlw   041h
                          M         L?CALL  SEROUT
                          M         RST?RP
                          M     if (PREV_ALT != 0)
                          M         bcf     WDTCON, ADSHR
                          M PREV_ALT = 0
                          M     endif
                          M     if (PREV_BANK != 0)
                          M         movlb   0
                          M PREV_BANK = 0
                          M     endif
                          M 
                          M     ifdef USE_LINKER
                          M         call    SEROUT
                          M     else
                          M       if ((SEROUT) < 1)
                          M         call    SEROUT
                          M       else
                          M         if ((SEROUT) > $)
                          M         call    SEROUT
                          M         else
                          M           if ((SEROUT) < ($ - 3ffh))
                          M         call    SEROUT
                          M           else
0001F8 DF05               M         rcall   SEROUT
                          M           endif
MPASM 5.75  MPU-5X RECEIVER MOMENTARY MODE-1   4-2-2018  15:19:27         PAGE 60


LOC  OBJECT CODE     LINE SOURCE TEXT
  VALUE

                          M         endif
                          M       endif
                          M     endif
                      00520         SEROUT?C        052h
0001FA 0E52               M         movlw   052h
                          M         L?CALL  SEROUT
                          M         RST?RP
                          M     if (PREV_ALT != 0)
                          M         bcf     WDTCON, ADSHR
                          M PREV_ALT = 0
                          M     endif
                          M     if (PREV_BANK != 0)
                          M         movlb   0
                          M PREV_BANK = 0
                          M     endif
                          M 
                          M     ifdef USE_LINKER
                          M         call    SEROUT
                          M     else
                          M       if ((SEROUT) < 1)
                          M         call    SEROUT
                          M       else
                          M         if ((SEROUT) > $)
                          M         call    SEROUT
                          M         else
                          M           if ((SEROUT) < ($ - 3ffh))
                          M         call    SEROUT
                          M           else
0001FC DF03               M         rcall   SEROUT
                          M           endif
                          M         endif
                          M       endif
                          M     endif
                      00521         SEROUT?C        059h
0001FE 0E59               M         movlw   059h
                          M         L?CALL  SEROUT
                          M         RST?RP
                          M     if (PREV_ALT != 0)
                          M         bcf     WDTCON, ADSHR
                          M PREV_ALT = 0
                          M     endif
                          M     if (PREV_BANK != 0)
                          M         movlb   0
                          M PREV_BANK = 0
                          M     endif
                          M 
                          M     ifdef USE_LINKER
                          M         call    SEROUT
                          M     else
                          M       if ((SEROUT) < 1)
                          M         call    SEROUT
                          M       else
                          M         if ((SEROUT) > $)
MPASM 5.75  MPU-5X RECEIVER MOMENTARY MODE-1   4-2-2018  15:19:27         PAGE 61


LOC  OBJECT CODE     LINE SOURCE TEXT
  VALUE

                          M         call    SEROUT
                          M         else
                          M           if ((SEROUT) < ($ - 3ffh))
                          M         call    SEROUT
                          M           else
000200 DF01               M         rcall   SEROUT
                          M           endif
                          M         endif
                          M       endif
                          M     endif
                      00522         SEROUT?C        020h
000202 0E20               M         movlw   020h
                          M         L?CALL  SEROUT
                          M         RST?RP
                          M     if (PREV_ALT != 0)
                          M         bcf     WDTCON, ADSHR
                          M PREV_ALT = 0
                          M     endif
                          M     if (PREV_BANK != 0)
                          M         movlb   0
                          M PREV_BANK = 0
                          M     endif
                          M 
                          M     ifdef USE_LINKER
                          M         call    SEROUT
                          M     else
                          M       if ((SEROUT) < 1)
                          M         call    SEROUT
                          M       else
                          M         if ((SEROUT) > $)
                          M         call    SEROUT
                          M         else
                          M           if ((SEROUT) < ($ - 3ffh))
                          M         call    SEROUT
                          M           else
000204 DEFF               M         rcall   SEROUT
                          M           endif
                          M         endif
                          M       endif
                          M     endif
                      00523         SEROUT?C        04Dh
000206 0E4D               M         movlw   04Dh
                          M         L?CALL  SEROUT
                          M         RST?RP
                          M     if (PREV_ALT != 0)
                          M         bcf     WDTCON, ADSHR
                          M PREV_ALT = 0
                          M     endif
                          M     if (PREV_BANK != 0)
                          M         movlb   0
                          M PREV_BANK = 0
                          M     endif
                          M 
MPASM 5.75  MPU-5X RECEIVER MOMENTARY MODE-1   4-2-2018  15:19:27         PAGE 62


LOC  OBJECT CODE     LINE SOURCE TEXT
  VALUE

                          M     ifdef USE_LINKER
                          M         call    SEROUT
                          M     else
                          M       if ((SEROUT) < 1)
                          M         call    SEROUT
                          M       else
                          M         if ((SEROUT) > $)
                          M         call    SEROUT
                          M         else
                          M           if ((SEROUT) < ($ - 3ffh))
                          M         call    SEROUT
                          M           else
000208 DEFD               M         rcall   SEROUT
                          M           endif
                          M         endif
                          M       endif
                          M     endif
                      00524         SEROUT?C        06Fh
00020A 0E6F               M         movlw   06Fh
                          M         L?CALL  SEROUT
                          M         RST?RP
                          M     if (PREV_ALT != 0)
                          M         bcf     WDTCON, ADSHR
                          M PREV_ALT = 0
                          M     endif
                          M     if (PREV_BANK != 0)
                          M         movlb   0
                          M PREV_BANK = 0
                          M     endif
                          M 
                          M     ifdef USE_LINKER
                          M         call    SEROUT
                          M     else
                          M       if ((SEROUT) < 1)
                          M         call    SEROUT
                          M       else
                          M         if ((SEROUT) > $)
                          M         call    SEROUT
                          M         else
                          M           if ((SEROUT) < ($ - 3ffh))
                          M         call    SEROUT
                          M           else
00020C DEFB               M         rcall   SEROUT
                          M           endif
                          M         endif
                          M       endif
                          M     endif
                      00525         SEROUT?C        064h
00020E 0E64               M         movlw   064h
                          M         L?CALL  SEROUT
                          M         RST?RP
                          M     if (PREV_ALT != 0)
                          M         bcf     WDTCON, ADSHR
MPASM 5.75  MPU-5X RECEIVER MOMENTARY MODE-1   4-2-2018  15:19:27         PAGE 63


LOC  OBJECT CODE     LINE SOURCE TEXT
  VALUE

                          M PREV_ALT = 0
                          M     endif
                          M     if (PREV_BANK != 0)
                          M         movlb   0
                          M PREV_BANK = 0
                          M     endif
                          M 
                          M     ifdef USE_LINKER
                          M         call    SEROUT
                          M     else
                          M       if ((SEROUT) < 1)
                          M         call    SEROUT
                          M       else
                          M         if ((SEROUT) > $)
                          M         call    SEROUT
                          M         else
                          M           if ((SEROUT) < ($ - 3ffh))
                          M         call    SEROUT
                          M           else
000210 DEF9               M         rcall   SEROUT
                          M           endif
                          M         endif
                          M       endif
                          M     endif
                      00526         SEROUT?C        065h
000212 0E65               M         movlw   065h
                          M         L?CALL  SEROUT
                          M         RST?RP
                          M     if (PREV_ALT != 0)
                          M         bcf     WDTCON, ADSHR
                          M PREV_ALT = 0
                          M     endif
                          M     if (PREV_BANK != 0)
                          M         movlb   0
                          M PREV_BANK = 0
                          M     endif
                          M 
                          M     ifdef USE_LINKER
                          M         call    SEROUT
                          M     else
                          M       if ((SEROUT) < 1)
                          M         call    SEROUT
                          M       else
                          M         if ((SEROUT) > $)
                          M         call    SEROUT
                          M         else
                          M           if ((SEROUT) < ($ - 3ffh))
                          M         call    SEROUT
                          M           else
000214 DEF7               M         rcall   SEROUT
                          M           endif
                          M         endif
                          M       endif
MPASM 5.75  MPU-5X RECEIVER MOMENTARY MODE-1   4-2-2018  15:19:27         PAGE 64


LOC  OBJECT CODE     LINE SOURCE TEXT
  VALUE

                          M     endif
                      00527         SEROUT?C        02Dh
000216 0E2D               M         movlw   02Dh
                          M         L?CALL  SEROUT
                          M         RST?RP
                          M     if (PREV_ALT != 0)
                          M         bcf     WDTCON, ADSHR
                          M PREV_ALT = 0
                          M     endif
                          M     if (PREV_BANK != 0)
                          M         movlb   0
                          M PREV_BANK = 0
                          M     endif
                          M 
                          M     ifdef USE_LINKER
                          M         call    SEROUT
                          M     else
                          M       if ((SEROUT) < 1)
                          M         call    SEROUT
                          M       else
                          M         if ((SEROUT) > $)
                          M         call    SEROUT
                          M         else
                          M           if ((SEROUT) < ($ - 3ffh))
                          M         call    SEROUT
                          M           else
000218 DEF5               M         rcall   SEROUT
                          M           endif
                          M         endif
                          M       endif
                          M     endif
                      00528         SEROUT?C        031h
00021A 0E31               M         movlw   031h
                          M         L?CALL  SEROUT
                          M         RST?RP
                          M     if (PREV_ALT != 0)
                          M         bcf     WDTCON, ADSHR
                          M PREV_ALT = 0
                          M     endif
                          M     if (PREV_BANK != 0)
                          M         movlb   0
                          M PREV_BANK = 0
                          M     endif
                          M 
                          M     ifdef USE_LINKER
                          M         call    SEROUT
                          M     else
                          M       if ((SEROUT) < 1)
                          M         call    SEROUT
                          M       else
                          M         if ((SEROUT) > $)
                          M         call    SEROUT
                          M         else
MPASM 5.75  MPU-5X RECEIVER MOMENTARY MODE-1   4-2-2018  15:19:27         PAGE 65


LOC  OBJECT CODE     LINE SOURCE TEXT
  VALUE

                          M           if ((SEROUT) < ($ - 3ffh))
                          M         call    SEROUT
                          M           else
00021C DEF3               M         rcall   SEROUT
                          M           endif
                          M         endif
                          M       endif
                          M     endif
                      00529 
                      00530 ; C:\USERS\ANDREW MCENTEE\DOCUMENTS\NTH SOLUTIONS\URICCHIO\PBP3\MPU-5X RECEIVER MOMENTARY MODE-1.PBP    
                            00172       serout ADO, N9600, [POSCMD,LINE4,"3/25/2018     (elc)"]                 'PRINT DATE 
                      00531         SERPIN?T        _ADO
                          M         BIT?R1  PORTA, 003h
00021E 0E80               M         movlw   low ((PORTA) + ((003h)  >> 3))
                          M         CHK?RP  RR1
                          M     if (((RR1)   & 8000h) != PREV_ALT)
                          M       if ((RR1)   & 8000h)
                          M         bsf     WDTCON, ADSHR
                          M       else
                          M         bcf     WDTCON, ADSHR
                          M       endif
                          M PREV_ALT = (RR1)   & 8000h
                          M     endif
                          M     if ((((RR1)   & 0fffh) > BANKA_END) & (((RR1)   & 0fffh) < (0f01h + BANKA_END)))
                          M       if (((RR1)   & 0f00h) != (PREV_BANK << 8))
                          M         movlb   high (RR1)
                          M PREV_BANK = high (RR1)
                          M       endif
                          M     endif
000220 6E16               M         movwf   RR1
000222 0E0F               M         movlw   high ((PORTA) + ((003h)  >> 3))
000224 6E18               M         movwf   RS1
                          M         BIT?W   003h
                          M     if (((003h)  & 7) == 0)
                          M         movlw   01h
                          M     endif
                          M     if (((003h)  & 7) == 1)
                          M         movlw   02h
                          M     endif
                          M     if (((003h)  & 7) == 2)
                          M         movlw   04h
                          M     endif
                          M     if (((003h)  & 7) == 3)
000226 0E08               M         movlw   08h
                          M     endif
                          M     if (((003h)  & 7) == 4)
                          M         movlw   10h
                          M     endif
                          M     if (((003h)  & 7) == 5)
                          M         movlw   20h
                          M     endif
                          M     if (((003h)  & 7) == 6)
                          M         movlw   40h
MPASM 5.75  MPU-5X RECEIVER MOMENTARY MODE-1   4-2-2018  15:19:27         PAGE 66


LOC  OBJECT CODE     LINE SOURCE TEXT
  VALUE

                          M     endif
                          M     if (((003h)  & 7) == 7)
                          M         movlw   80h
                          M     endif
000228 6E14               M         movwf   RM1
                      00532         SERMODE?C       _N9600
                          M         MOVE?CB _N9600, GOP
                          M         CHK?RP  GOP
                          M     if (((GOP)   & 8000h) != PREV_ALT)
                          M       if ((GOP)   & 8000h)
                          M         bsf     WDTCON, ADSHR
                          M       else
                          M         bcf     WDTCON, ADSHR
                          M       endif
                          M PREV_ALT = (GOP)   & 8000h
                          M     endif
                          M     if ((((GOP)   & 0fffh) > BANKA_END) & (((GOP)   & 0fffh) < (0f01h + BANKA_END)))
                          M       if (((GOP)   & 0f00h) != (PREV_BANK << 8))
                          M         movlb   high (GOP)
                          M PREV_BANK = high (GOP)
                          M       endif
                          M     endif
                          M     if (low (_N9600) == 0)
                          M         clrf    GOP
                          M     else
                          M       if (low (_N9600) == 255)
                          M         setf    GOP
                          M       else
00022A 0E06               M         movlw   low (_N9600)
00022C 6E01               M         movwf   GOP
                          M       endif
                          M     endif
                      00533         SEROUT?C        _POSCMD
00022E 0E10               M         movlw   _POSCMD
                          M         L?CALL  SEROUT
                          M         RST?RP
                          M     if (PREV_ALT != 0)
                          M         bcf     WDTCON, ADSHR
                          M PREV_ALT = 0
                          M     endif
                          M     if (PREV_BANK != 0)
                          M         movlb   0
                          M PREV_BANK = 0
                          M     endif
                          M 
                          M     ifdef USE_LINKER
                          M         call    SEROUT
                          M     else
                          M       if ((SEROUT) < 1)
                          M         call    SEROUT
                          M       else
                          M         if ((SEROUT) > $)
                          M         call    SEROUT
MPASM 5.75  MPU-5X RECEIVER MOMENTARY MODE-1   4-2-2018  15:19:27         PAGE 67


LOC  OBJECT CODE     LINE SOURCE TEXT
  VALUE

                          M         else
                          M           if ((SEROUT) < ($ - 3ffh))
                          M         call    SEROUT
                          M           else
000230 DEE9               M         rcall   SEROUT
                          M           endif
                          M         endif
                          M       endif
                          M     endif
                      00534         SEROUT?C        _LINE4
000232 0E7C               M         movlw   _LINE4
                          M         L?CALL  SEROUT
                          M         RST?RP
                          M     if (PREV_ALT != 0)
                          M         bcf     WDTCON, ADSHR
                          M PREV_ALT = 0
                          M     endif
                          M     if (PREV_BANK != 0)
                          M         movlb   0
                          M PREV_BANK = 0
                          M     endif
                          M 
                          M     ifdef USE_LINKER
                          M         call    SEROUT
                          M     else
                          M       if ((SEROUT) < 1)
                          M         call    SEROUT
                          M       else
                          M         if ((SEROUT) > $)
                          M         call    SEROUT
                          M         else
                          M           if ((SEROUT) < ($ - 3ffh))
                          M         call    SEROUT
                          M           else
000234 DEE7               M         rcall   SEROUT
                          M           endif
                          M         endif
                          M       endif
                          M     endif
                      00535         SEROUT?C        033h
000236 0E33               M         movlw   033h
                          M         L?CALL  SEROUT
                          M         RST?RP
                          M     if (PREV_ALT != 0)
                          M         bcf     WDTCON, ADSHR
                          M PREV_ALT = 0
                          M     endif
                          M     if (PREV_BANK != 0)
                          M         movlb   0
                          M PREV_BANK = 0
                          M     endif
                          M 
                          M     ifdef USE_LINKER
MPASM 5.75  MPU-5X RECEIVER MOMENTARY MODE-1   4-2-2018  15:19:27         PAGE 68


LOC  OBJECT CODE     LINE SOURCE TEXT
  VALUE

                          M         call    SEROUT
                          M     else
                          M       if ((SEROUT) < 1)
                          M         call    SEROUT
                          M       else
                          M         if ((SEROUT) > $)
                          M         call    SEROUT
                          M         else
                          M           if ((SEROUT) < ($ - 3ffh))
                          M         call    SEROUT
                          M           else
000238 DEE5               M         rcall   SEROUT
                          M           endif
                          M         endif
                          M       endif
                          M     endif
                      00536         SEROUT?C        02Fh
00023A 0E2F               M         movlw   02Fh
                          M         L?CALL  SEROUT
                          M         RST?RP
                          M     if (PREV_ALT != 0)
                          M         bcf     WDTCON, ADSHR
                          M PREV_ALT = 0
                          M     endif
                          M     if (PREV_BANK != 0)
                          M         movlb   0
                          M PREV_BANK = 0
                          M     endif
                          M 
                          M     ifdef USE_LINKER
                          M         call    SEROUT
                          M     else
                          M       if ((SEROUT) < 1)
                          M         call    SEROUT
                          M       else
                          M         if ((SEROUT) > $)
                          M         call    SEROUT
                          M         else
                          M           if ((SEROUT) < ($ - 3ffh))
                          M         call    SEROUT
                          M           else
00023C DEE3               M         rcall   SEROUT
                          M           endif
                          M         endif
                          M       endif
                          M     endif
                      00537         SEROUT?C        032h
00023E 0E32               M         movlw   032h
                          M         L?CALL  SEROUT
                          M         RST?RP
                          M     if (PREV_ALT != 0)
                          M         bcf     WDTCON, ADSHR
                          M PREV_ALT = 0
MPASM 5.75  MPU-5X RECEIVER MOMENTARY MODE-1   4-2-2018  15:19:27         PAGE 69


LOC  OBJECT CODE     LINE SOURCE TEXT
  VALUE

                          M     endif
                          M     if (PREV_BANK != 0)
                          M         movlb   0
                          M PREV_BANK = 0
                          M     endif
                          M 
                          M     ifdef USE_LINKER
                          M         call    SEROUT
                          M     else
                          M       if ((SEROUT) < 1)
                          M         call    SEROUT
                          M       else
                          M         if ((SEROUT) > $)
                          M         call    SEROUT
                          M         else
                          M           if ((SEROUT) < ($ - 3ffh))
                          M         call    SEROUT
                          M           else
000240 DEE1               M         rcall   SEROUT
                          M           endif
                          M         endif
                          M       endif
                          M     endif
                      00538         SEROUT?C        035h
000242 0E35               M         movlw   035h
                          M         L?CALL  SEROUT
                          M         RST?RP
                          M     if (PREV_ALT != 0)
                          M         bcf     WDTCON, ADSHR
                          M PREV_ALT = 0
                          M     endif
                          M     if (PREV_BANK != 0)
                          M         movlb   0
                          M PREV_BANK = 0
                          M     endif
                          M 
                          M     ifdef USE_LINKER
                          M         call    SEROUT
                          M     else
                          M       if ((SEROUT) < 1)
                          M         call    SEROUT
                          M       else
                          M         if ((SEROUT) > $)
                          M         call    SEROUT
                          M         else
                          M           if ((SEROUT) < ($ - 3ffh))
                          M         call    SEROUT
                          M           else
000244 DEDF               M         rcall   SEROUT
                          M           endif
                          M         endif
                          M       endif
                          M     endif
MPASM 5.75  MPU-5X RECEIVER MOMENTARY MODE-1   4-2-2018  15:19:27         PAGE 70


LOC  OBJECT CODE     LINE SOURCE TEXT
  VALUE

                      00539         SEROUT?C        02Fh
000246 0E2F               M         movlw   02Fh
                          M         L?CALL  SEROUT
                          M         RST?RP
                          M     if (PREV_ALT != 0)
                          M         bcf     WDTCON, ADSHR
                          M PREV_ALT = 0
                          M     endif
                          M     if (PREV_BANK != 0)
                          M         movlb   0
                          M PREV_BANK = 0
                          M     endif
                          M 
                          M     ifdef USE_LINKER
                          M         call    SEROUT
                          M     else
                          M       if ((SEROUT) < 1)
                          M         call    SEROUT
                          M       else
                          M         if ((SEROUT) > $)
                          M         call    SEROUT
                          M         else
                          M           if ((SEROUT) < ($ - 3ffh))
                          M         call    SEROUT
                          M           else
000248 DEDD               M         rcall   SEROUT
                          M           endif
                          M         endif
                          M       endif
                          M     endif
                      00540         SEROUT?C        032h
00024A 0E32               M         movlw   032h
                          M         L?CALL  SEROUT
                          M         RST?RP
                          M     if (PREV_ALT != 0)
                          M         bcf     WDTCON, ADSHR
                          M PREV_ALT = 0
                          M     endif
                          M     if (PREV_BANK != 0)
                          M         movlb   0
                          M PREV_BANK = 0
                          M     endif
                          M 
                          M     ifdef USE_LINKER
                          M         call    SEROUT
                          M     else
                          M       if ((SEROUT) < 1)
                          M         call    SEROUT
                          M       else
                          M         if ((SEROUT) > $)
                          M         call    SEROUT
                          M         else
                          M           if ((SEROUT) < ($ - 3ffh))
MPASM 5.75  MPU-5X RECEIVER MOMENTARY MODE-1   4-2-2018  15:19:27         PAGE 71


LOC  OBJECT CODE     LINE SOURCE TEXT
  VALUE

                          M         call    SEROUT
                          M           else
00024C DEDB               M         rcall   SEROUT
                          M           endif
                          M         endif
                          M       endif
                          M     endif
                      00541         SEROUT?C        030h
00024E 0E30               M         movlw   030h
                          M         L?CALL  SEROUT
                          M         RST?RP
                          M     if (PREV_ALT != 0)
                          M         bcf     WDTCON, ADSHR
                          M PREV_ALT = 0
                          M     endif
                          M     if (PREV_BANK != 0)
                          M         movlb   0
                          M PREV_BANK = 0
                          M     endif
                          M 
                          M     ifdef USE_LINKER
                          M         call    SEROUT
                          M     else
                          M       if ((SEROUT) < 1)
                          M         call    SEROUT
                          M       else
                          M         if ((SEROUT) > $)
                          M         call    SEROUT
                          M         else
                          M           if ((SEROUT) < ($ - 3ffh))
                          M         call    SEROUT
                          M           else
000250 DED9               M         rcall   SEROUT
                          M           endif
                          M         endif
                          M       endif
                          M     endif
                      00542         SEROUT?C        031h
000252 0E31               M         movlw   031h
                          M         L?CALL  SEROUT
                          M         RST?RP
                          M     if (PREV_ALT != 0)
                          M         bcf     WDTCON, ADSHR
                          M PREV_ALT = 0
                          M     endif
                          M     if (PREV_BANK != 0)
                          M         movlb   0
                          M PREV_BANK = 0
                          M     endif
                          M 
                          M     ifdef USE_LINKER
                          M         call    SEROUT
                          M     else
MPASM 5.75  MPU-5X RECEIVER MOMENTARY MODE-1   4-2-2018  15:19:27         PAGE 72


LOC  OBJECT CODE     LINE SOURCE TEXT
  VALUE

                          M       if ((SEROUT) < 1)
                          M         call    SEROUT
                          M       else
                          M         if ((SEROUT) > $)
                          M         call    SEROUT
                          M         else
                          M           if ((SEROUT) < ($ - 3ffh))
                          M         call    SEROUT
                          M           else
000254 DED7               M         rcall   SEROUT
                          M           endif
                          M         endif
                          M       endif
                          M     endif
                      00543         SEROUT?C        038h
000256 0E38               M         movlw   038h
                          M         L?CALL  SEROUT
                          M         RST?RP
                          M     if (PREV_ALT != 0)
                          M         bcf     WDTCON, ADSHR
                          M PREV_ALT = 0
                          M     endif
                          M     if (PREV_BANK != 0)
                          M         movlb   0
                          M PREV_BANK = 0
                          M     endif
                          M 
                          M     ifdef USE_LINKER
                          M         call    SEROUT
                          M     else
                          M       if ((SEROUT) < 1)
                          M         call    SEROUT
                          M       else
                          M         if ((SEROUT) > $)
                          M         call    SEROUT
                          M         else
                          M           if ((SEROUT) < ($ - 3ffh))
                          M         call    SEROUT
                          M           else
000258 DED5               M         rcall   SEROUT
                          M           endif
                          M         endif
                          M       endif
                          M     endif
                      00544         SEROUT?C        020h
00025A 0E20               M         movlw   020h
                          M         L?CALL  SEROUT
                          M         RST?RP
                          M     if (PREV_ALT != 0)
                          M         bcf     WDTCON, ADSHR
                          M PREV_ALT = 0
                          M     endif
                          M     if (PREV_BANK != 0)
MPASM 5.75  MPU-5X RECEIVER MOMENTARY MODE-1   4-2-2018  15:19:27         PAGE 73


LOC  OBJECT CODE     LINE SOURCE TEXT
  VALUE

                          M         movlb   0
                          M PREV_BANK = 0
                          M     endif
                          M 
                          M     ifdef USE_LINKER
                          M         call    SEROUT
                          M     else
                          M       if ((SEROUT) < 1)
                          M         call    SEROUT
                          M       else
                          M         if ((SEROUT) > $)
                          M         call    SEROUT
                          M         else
                          M           if ((SEROUT) < ($ - 3ffh))
                          M         call    SEROUT
                          M           else
00025C DED3               M         rcall   SEROUT
                          M           endif
                          M         endif
                          M       endif
                          M     endif
                      00545         SEROUT?C        020h
00025E 0E20               M         movlw   020h
                          M         L?CALL  SEROUT
                          M         RST?RP
                          M     if (PREV_ALT != 0)
                          M         bcf     WDTCON, ADSHR
                          M PREV_ALT = 0
                          M     endif
                          M     if (PREV_BANK != 0)
                          M         movlb   0
                          M PREV_BANK = 0
                          M     endif
                          M 
                          M     ifdef USE_LINKER
                          M         call    SEROUT
                          M     else
                          M       if ((SEROUT) < 1)
                          M         call    SEROUT
                          M       else
                          M         if ((SEROUT) > $)
                          M         call    SEROUT
                          M         else
                          M           if ((SEROUT) < ($ - 3ffh))
                          M         call    SEROUT
                          M           else
000260 DED1               M         rcall   SEROUT
                          M           endif
                          M         endif
                          M       endif
                          M     endif
                      00546         SEROUT?C        020h
000262 0E20               M         movlw   020h
MPASM 5.75  MPU-5X RECEIVER MOMENTARY MODE-1   4-2-2018  15:19:27         PAGE 74


LOC  OBJECT CODE     LINE SOURCE TEXT
  VALUE

                          M         L?CALL  SEROUT
                          M         RST?RP
                          M     if (PREV_ALT != 0)
                          M         bcf     WDTCON, ADSHR
                          M PREV_ALT = 0
                          M     endif
                          M     if (PREV_BANK != 0)
                          M         movlb   0
                          M PREV_BANK = 0
                          M     endif
                          M 
                          M     ifdef USE_LINKER
                          M         call    SEROUT
                          M     else
                          M       if ((SEROUT) < 1)
                          M         call    SEROUT
                          M       else
                          M         if ((SEROUT) > $)
                          M         call    SEROUT
                          M         else
                          M           if ((SEROUT) < ($ - 3ffh))
                          M         call    SEROUT
                          M           else
000264 DECF               M         rcall   SEROUT
                          M           endif
                          M         endif
                          M       endif
                          M     endif
                      00547         SEROUT?C        020h
000266 0E20               M         movlw   020h
                          M         L?CALL  SEROUT
                          M         RST?RP
                          M     if (PREV_ALT != 0)
                          M         bcf     WDTCON, ADSHR
                          M PREV_ALT = 0
                          M     endif
                          M     if (PREV_BANK != 0)
                          M         movlb   0
                          M PREV_BANK = 0
                          M     endif
                          M 
                          M     ifdef USE_LINKER
                          M         call    SEROUT
                          M     else
                          M       if ((SEROUT) < 1)
                          M         call    SEROUT
                          M       else
                          M         if ((SEROUT) > $)
                          M         call    SEROUT
                          M         else
                          M           if ((SEROUT) < ($ - 3ffh))
                          M         call    SEROUT
                          M           else
MPASM 5.75  MPU-5X RECEIVER MOMENTARY MODE-1   4-2-2018  15:19:27         PAGE 75


LOC  OBJECT CODE     LINE SOURCE TEXT
  VALUE

000268 DECD               M         rcall   SEROUT
                          M           endif
                          M         endif
                          M       endif
                          M     endif
                      00548         SEROUT?C        020h
00026A 0E20               M         movlw   020h
                          M         L?CALL  SEROUT
                          M         RST?RP
                          M     if (PREV_ALT != 0)
                          M         bcf     WDTCON, ADSHR
                          M PREV_ALT = 0
                          M     endif
                          M     if (PREV_BANK != 0)
                          M         movlb   0
                          M PREV_BANK = 0
                          M     endif
                          M 
                          M     ifdef USE_LINKER
                          M         call    SEROUT
                          M     else
                          M       if ((SEROUT) < 1)
                          M         call    SEROUT
                          M       else
                          M         if ((SEROUT) > $)
                          M         call    SEROUT
                          M         else
                          M           if ((SEROUT) < ($ - 3ffh))
                          M         call    SEROUT
                          M           else
00026C DECB               M         rcall   SEROUT
                          M           endif
                          M         endif
                          M       endif
                          M     endif
                      00549         SEROUT?C        028h
00026E 0E28               M         movlw   028h
                          M         L?CALL  SEROUT
                          M         RST?RP
                          M     if (PREV_ALT != 0)
                          M         bcf     WDTCON, ADSHR
                          M PREV_ALT = 0
                          M     endif
                          M     if (PREV_BANK != 0)
                          M         movlb   0
                          M PREV_BANK = 0
                          M     endif
                          M 
                          M     ifdef USE_LINKER
                          M         call    SEROUT
                          M     else
                          M       if ((SEROUT) < 1)
                          M         call    SEROUT
MPASM 5.75  MPU-5X RECEIVER MOMENTARY MODE-1   4-2-2018  15:19:27         PAGE 76


LOC  OBJECT CODE     LINE SOURCE TEXT
  VALUE

                          M       else
                          M         if ((SEROUT) > $)
                          M         call    SEROUT
                          M         else
                          M           if ((SEROUT) < ($ - 3ffh))
                          M         call    SEROUT
                          M           else
000270 DEC9               M         rcall   SEROUT
                          M           endif
                          M         endif
                          M       endif
                          M     endif
                      00550         SEROUT?C        065h
000272 0E65               M         movlw   065h
                          M         L?CALL  SEROUT
                          M         RST?RP
                          M     if (PREV_ALT != 0)
                          M         bcf     WDTCON, ADSHR
                          M PREV_ALT = 0
                          M     endif
                          M     if (PREV_BANK != 0)
                          M         movlb   0
                          M PREV_BANK = 0
                          M     endif
                          M 
                          M     ifdef USE_LINKER
                          M         call    SEROUT
                          M     else
                          M       if ((SEROUT) < 1)
                          M         call    SEROUT
                          M       else
                          M         if ((SEROUT) > $)
                          M         call    SEROUT
                          M         else
                          M           if ((SEROUT) < ($ - 3ffh))
                          M         call    SEROUT
                          M           else
000274 DEC7               M         rcall   SEROUT
                          M           endif
                          M         endif
                          M       endif
                          M     endif
                      00551         SEROUT?C        06Ch
000276 0E6C               M         movlw   06Ch
                          M         L?CALL  SEROUT
                          M         RST?RP
                          M     if (PREV_ALT != 0)
                          M         bcf     WDTCON, ADSHR
                          M PREV_ALT = 0
                          M     endif
                          M     if (PREV_BANK != 0)
                          M         movlb   0
                          M PREV_BANK = 0
MPASM 5.75  MPU-5X RECEIVER MOMENTARY MODE-1   4-2-2018  15:19:27         PAGE 77


LOC  OBJECT CODE     LINE SOURCE TEXT
  VALUE

                          M     endif
                          M 
                          M     ifdef USE_LINKER
                          M         call    SEROUT
                          M     else
                          M       if ((SEROUT) < 1)
                          M         call    SEROUT
                          M       else
                          M         if ((SEROUT) > $)
                          M         call    SEROUT
                          M         else
                          M           if ((SEROUT) < ($ - 3ffh))
                          M         call    SEROUT
                          M           else
000278 DEC5               M         rcall   SEROUT
                          M           endif
                          M         endif
                          M       endif
                          M     endif
                      00552         SEROUT?C        063h
00027A 0E63               M         movlw   063h
                          M         L?CALL  SEROUT
                          M         RST?RP
                          M     if (PREV_ALT != 0)
                          M         bcf     WDTCON, ADSHR
                          M PREV_ALT = 0
                          M     endif
                          M     if (PREV_BANK != 0)
                          M         movlb   0
                          M PREV_BANK = 0
                          M     endif
                          M 
                          M     ifdef USE_LINKER
                          M         call    SEROUT
                          M     else
                          M       if ((SEROUT) < 1)
                          M         call    SEROUT
                          M       else
                          M         if ((SEROUT) > $)
                          M         call    SEROUT
                          M         else
                          M           if ((SEROUT) < ($ - 3ffh))
                          M         call    SEROUT
                          M           else
00027C DEC3               M         rcall   SEROUT
                          M           endif
                          M         endif
                          M       endif
                          M     endif
                      00553         SEROUT?C        029h
00027E 0E29               M         movlw   029h
                          M         L?CALL  SEROUT
                          M         RST?RP
MPASM 5.75  MPU-5X RECEIVER MOMENTARY MODE-1   4-2-2018  15:19:27         PAGE 78


LOC  OBJECT CODE     LINE SOURCE TEXT
  VALUE

                          M     if (PREV_ALT != 0)
                          M         bcf     WDTCON, ADSHR
                          M PREV_ALT = 0
                          M     endif
                          M     if (PREV_BANK != 0)
                          M         movlb   0
                          M PREV_BANK = 0
                          M     endif
                          M 
                          M     ifdef USE_LINKER
                          M         call    SEROUT
                          M     else
                          M       if ((SEROUT) < 1)
                          M         call    SEROUT
                          M       else
                          M         if ((SEROUT) > $)
                          M         call    SEROUT
                          M         else
                          M           if ((SEROUT) < ($ - 3ffh))
                          M         call    SEROUT
                          M           else
000280 DEC1               M         rcall   SEROUT
                          M           endif
                          M         endif
                          M       endif
                          M     endif
                      00554 
                      00555 ; C:\USERS\ANDREW MCENTEE\DOCUMENTS\NTH SOLUTIONS\URICCHIO\PBP3\MPU-5X RECEIVER MOMENTARY MODE-1.PBP    
                            00173       SCK = 0
                      00556         MOVE?CT 000h, _SCK
                          M         CHK?RP  PORTC
                          M     if (((PORTC) & 8000h) != PREV_ALT)
                          M       if ((PORTC) & 8000h)
                          M         bsf     WDTCON, ADSHR
                          M       else
                          M         bcf     WDTCON, ADSHR
                          M       endif
                          M PREV_ALT = (PORTC) & 8000h
                          M     endif
                          M     if ((((PORTC) & 0fffh) > BANKA_END) & (((PORTC) & 0fffh) < (0f01h + BANKA_END)))
                          M       if (((PORTC) & 0f00h) != (PREV_BANK << 8))
                          M         movlb   high (PORTC)
                          M PREV_BANK = high (PORTC)
                          M       endif
                          M     endif
                          M     if (((000h) & 1) == 1)
                          M         bsf     PORTC,  003h
                          M     else
000282 9682               M         bcf     PORTC,  003h
                          M     endif
                      00557 
                      00558 ; C:\USERS\ANDREW MCENTEE\DOCUMENTS\NTH SOLUTIONS\URICCHIO\PBP3\MPU-5X RECEIVER MOMENTARY MODE-1.PBP    
                            00175   DOZE_UNTIL_PB_PRESSED:
MPASM 5.75  MPU-5X RECEIVER MOMENTARY MODE-1   4-2-2018  15:19:27         PAGE 79


LOC  OBJECT CODE     LINE SOURCE TEXT
  VALUE

                      00559 
                      00560         LABEL?L _DOZE_UNTIL_PB_PRESSED  
                          M         RST?RP
                          M     if (PREV_ALT != 0)
                          M         bcf     WDTCON, ADSHR
                          M PREV_ALT = 0
                          M     endif
                          M     if (PREV_BANK != 0)
                          M         movlb   0
                          M PREV_BANK = 0
                          M     endif
                          M     ifdef PM_USED
                          M         LALL
                          M _DOZE_UNTIL_PB_PRESSED
                          M         XALL
                          M     else
000284                    M _DOZE_UNTIL_PB_PRESSED
                          M     endif
                      00561 
                      00562 ; C:\USERS\ANDREW MCENTEE\DOCUMENTS\NTH SOLUTIONS\URICCHIO\PBP3\MPU-5X RECEIVER MOMENTARY MODE-1.PBP    
                            00176       GRN_LED = 0
                      00563         MOVE?CT 000h, _GRN_LED
                          M         CHK?RP  PORTC
                          M     if (((PORTC) & 8000h) != PREV_ALT)
                          M       if ((PORTC) & 8000h)
                          M         bsf     WDTCON, ADSHR
                          M       else
                          M         bcf     WDTCON, ADSHR
                          M       endif
                          M PREV_ALT = (PORTC) & 8000h
                          M     endif
                          M     if ((((PORTC) & 0fffh) > BANKA_END) & (((PORTC) & 0fffh) < (0f01h + BANKA_END)))
                          M       if (((PORTC) & 0f00h) != (PREV_BANK << 8))
                          M         movlb   high (PORTC)
                          M PREV_BANK = high (PORTC)
                          M       endif
                          M     endif
                          M     if (((000h) & 1) == 1)
                          M         bsf     PORTC,  000h
                          M     else
000284 9082               M         bcf     PORTC,  000h
                          M     endif
                      00564 
                      00565 ; C:\USERS\ANDREW MCENTEE\DOCUMENTS\NTH SOLUTIONS\URICCHIO\PBP3\MPU-5X RECEIVER MOMENTARY MODE-1.PBP    
                            00177       IF PB == 1 then WAKE_UP
                      00566         CMPEQ?TCL       _PB, 001h, _WAKE_UP
                          M     if (((001h) == 0) | ((001h) == 1))
                          M         CLRWDT?
                          M     ifndef NO_CLRWDT
000286 0004               M         clrwdt
                          M     endif
                          M         BIT?GOTO 001h, PORTB, 005h, _WAKE_UP
                          M     ifdef USE_LINKER
MPASM 5.75  MPU-5X RECEIVER MOMENTARY MODE-1   4-2-2018  15:19:27         PAGE 80


LOC  OBJECT CODE     LINE SOURCE TEXT
  VALUE

                          M         CLRWDT?
                          M     else
                          M       if ($ == (_WAKE_UP))
                          M         CLRWDT?
                          M       endif
                          M     endif
                          M 
                          M     if (((PORTB) > BANKA_END) & ((PORTB) < (0f01h + BANKA_END)))
                          M         bcf     STATUS, OV
                          M         CHK?RP  PORTB
                          M       if ((001h)   == 0)
                          M         btfss   PORTB, 005h
                          M       else
                          M         btfsc   PORTB, 005h
                          M       endif
                          M         bsf     STATUS, OV
                          M         RST?RP
                          M       ifdef USE_LINKER
                          M         btfsc   STATUS, OV
                          M         goto    _WAKE_UP
                          M       else
                          M         if ((_WAKE_UP) < 1)
                          M         btfsc   STATUS, OV
                          M         goto    _WAKE_UP
                          M         else
                          M           if ((_WAKE_UP) > $)
                          M         btfsc   STATUS, OV
                          M         goto    _WAKE_UP
                          M           else
                          M             if ((_WAKE_UP) < ($ - 7fh))
                          M         btfsc   STATUS, OV
                          M         goto    _WAKE_UP
                          M             else
                          M         bov     _WAKE_UP
                          M             endif
                          M           endif
                          M         endif
                          M       endif
                          M     else
                          M         RST?RP
                          M     if (PREV_ALT != 0)
                          M         bcf     WDTCON, ADSHR
                          M PREV_ALT = 0
                          M     endif
                          M     if (PREV_BANK != 0)
                          M         movlb   0
                          M PREV_BANK = 0
                          M     endif
                          M       if ((001h)   == 0)
                          M         btfss   PORTB, 005h
                          M       else
000288 BA81               M         btfsc   PORTB, 005h
                          M       endif
MPASM 5.75  MPU-5X RECEIVER MOMENTARY MODE-1   4-2-2018  15:19:27         PAGE 81


LOC  OBJECT CODE     LINE SOURCE TEXT
  VALUE

                          M       ifdef USE_LINKER
                          M         goto    _WAKE_UP
                          M       else
                          M         if ((_WAKE_UP) < 1)
                          M         goto    _WAKE_UP
                          M         else
                          M           if ((_WAKE_UP) > $)
00028A EF49 F001          M         goto    _WAKE_UP
                          M           else
                          M             if ((_WAKE_UP) < ($ - 3ffh))
                          M         goto    _WAKE_UP
                          M             else
                          M         bra     _WAKE_UP
                          M             endif
                          M           endif
                          M         endif
                          M       endif
                          M     endif
                          M     endif
                      00567 
                      00568 ; C:\USERS\ANDREW MCENTEE\DOCUMENTS\NTH SOLUTIONS\URICCHIO\PBP3\MPU-5X RECEIVER MOMENTARY MODE-1.PBP    
                            00178       NAP 0
                      00569         NAP?C   000h
00028E 0003               M         sleep
                      00570 
                      00571 ; C:\USERS\ANDREW MCENTEE\DOCUMENTS\NTH SOLUTIONS\URICCHIO\PBP3\MPU-5X RECEIVER MOMENTARY MODE-1.PBP    
                            00179       GOTO DOZE_UNTIL_PB_PRESSED
                      00572         GOTO?L  _DOZE_UNTIL_PB_PRESSED
                          M         L?GOTO  _DOZE_UNTIL_PB_PRESSED
                          M     ifdef USE_LINKER
                          M         CLRWDT?
                          M     else
                          M       if ($ == (_DOZE_UNTIL_PB_PRESSED))
                          M         CLRWDT?
                          M       endif
                          M     endif
                          M 
                          M         RST?RP
                          M     if (PREV_ALT != 0)
                          M         bcf     WDTCON, ADSHR
                          M PREV_ALT = 0
                          M     endif
                          M     if (PREV_BANK != 0)
                          M         movlb   0
                          M PREV_BANK = 0
                          M     endif
                          M 
                          M     ifdef USE_LINKER
                          M         goto    _DOZE_UNTIL_PB_PRESSED
                          M     else
                          M       if ((_DOZE_UNTIL_PB_PRESSED) < 1)
                          M         goto    _DOZE_UNTIL_PB_PRESSED
                          M       else
MPASM 5.75  MPU-5X RECEIVER MOMENTARY MODE-1   4-2-2018  15:19:27         PAGE 82


LOC  OBJECT CODE     LINE SOURCE TEXT
  VALUE

                          M         if ((_DOZE_UNTIL_PB_PRESSED) > $)
                          M         goto    _DOZE_UNTIL_PB_PRESSED
                          M         else
                          M           if ((_DOZE_UNTIL_PB_PRESSED) < ($ - 3ffh))
                          M         goto    _DOZE_UNTIL_PB_PRESSED
                          M           else
000290 D7F9               M         bra     _DOZE_UNTIL_PB_PRESSED
                          M           endif
                          M         endif
                          M       endif
                          M     endif
                      00573 
                      00574 ; C:\USERS\ANDREW MCENTEE\DOCUMENTS\NTH SOLUTIONS\URICCHIO\PBP3\MPU-5X RECEIVER MOMENTARY MODE-1.PBP    
                            00181   WAKE_UP:
                      00575 
                      00576         LABEL?L _WAKE_UP        
                          M         RST?RP
                          M     if (PREV_ALT != 0)
                          M         bcf     WDTCON, ADSHR
                          M PREV_ALT = 0
                          M     endif
                          M     if (PREV_BANK != 0)
                          M         movlb   0
                          M PREV_BANK = 0
                          M     endif
                          M     ifdef PM_USED
                          M         LALL
                          M _WAKE_UP
                          M         XALL
                          M     else
000292                    M _WAKE_UP
                          M     endif
                      00577 
                      00578 ; C:\USERS\ANDREW MCENTEE\DOCUMENTS\NTH SOLUTIONS\URICCHIO\PBP3\MPU-5X RECEIVER MOMENTARY MODE-1.PBP    
                            00182       GRN_LED = 1
                      00579         MOVE?CT 001h, _GRN_LED
                          M         CHK?RP  PORTC
                          M     if (((PORTC) & 8000h) != PREV_ALT)
                          M       if ((PORTC) & 8000h)
                          M         bsf     WDTCON, ADSHR
                          M       else
                          M         bcf     WDTCON, ADSHR
                          M       endif
                          M PREV_ALT = (PORTC) & 8000h
                          M     endif
                          M     if ((((PORTC) & 0fffh) > BANKA_END) & (((PORTC) & 0fffh) < (0f01h + BANKA_END)))
                          M       if (((PORTC) & 0f00h) != (PREV_BANK << 8))
                          M         movlb   high (PORTC)
                          M PREV_BANK = high (PORTC)
                          M       endif
                          M     endif
                          M     if (((001h) & 1) == 1)
000292 8082               M         bsf     PORTC,  000h
MPASM 5.75  MPU-5X RECEIVER MOMENTARY MODE-1   4-2-2018  15:19:27         PAGE 83


LOC  OBJECT CODE     LINE SOURCE TEXT
  VALUE

                          M     else
                          M         bcf     PORTC,  000h
                          M     endif
                      00580 
                      00581 ; C:\USERS\ANDREW MCENTEE\DOCUMENTS\NTH SOLUTIONS\URICCHIO\PBP3\MPU-5X RECEIVER MOMENTARY MODE-1.PBP    
                            00183       SerOut ADO, N9600, [CLRLCD]:PAUSE 10
                      00582         SERPIN?T        _ADO
                          M         BIT?R1  PORTA, 003h
000294 0E80               M         movlw   low ((PORTA) + ((003h)  >> 3))
                          M         CHK?RP  RR1
                          M     if (((RR1)   & 8000h) != PREV_ALT)
                          M       if ((RR1)   & 8000h)
                          M         bsf     WDTCON, ADSHR
                          M       else
                          M         bcf     WDTCON, ADSHR
                          M       endif
                          M PREV_ALT = (RR1)   & 8000h
                          M     endif
                          M     if ((((RR1)   & 0fffh) > BANKA_END) & (((RR1)   & 0fffh) < (0f01h + BANKA_END)))
                          M       if (((RR1)   & 0f00h) != (PREV_BANK << 8))
                          M         movlb   high (RR1)
                          M PREV_BANK = high (RR1)
                          M       endif
                          M     endif
000296 6E16               M         movwf   RR1
000298 0E0F               M         movlw   high ((PORTA) + ((003h)  >> 3))
00029A 6E18               M         movwf   RS1
                          M         BIT?W   003h
                          M     if (((003h)  & 7) == 0)
                          M         movlw   01h
                          M     endif
                          M     if (((003h)  & 7) == 1)
                          M         movlw   02h
                          M     endif
                          M     if (((003h)  & 7) == 2)
                          M         movlw   04h
                          M     endif
                          M     if (((003h)  & 7) == 3)
00029C 0E08               M         movlw   08h
                          M     endif
                          M     if (((003h)  & 7) == 4)
                          M         movlw   10h
                          M     endif
                          M     if (((003h)  & 7) == 5)
                          M         movlw   20h
                          M     endif
                          M     if (((003h)  & 7) == 6)
                          M         movlw   40h
                          M     endif
                          M     if (((003h)  & 7) == 7)
                          M         movlw   80h
                          M     endif
00029E 6E14               M         movwf   RM1
MPASM 5.75  MPU-5X RECEIVER MOMENTARY MODE-1   4-2-2018  15:19:27         PAGE 84


LOC  OBJECT CODE     LINE SOURCE TEXT
  VALUE

                      00583         SERMODE?C       _N9600
                          M         MOVE?CB _N9600, GOP
                          M         CHK?RP  GOP
                          M     if (((GOP)   & 8000h) != PREV_ALT)
                          M       if ((GOP)   & 8000h)
                          M         bsf     WDTCON, ADSHR
                          M       else
                          M         bcf     WDTCON, ADSHR
                          M       endif
                          M PREV_ALT = (GOP)   & 8000h
                          M     endif
                          M     if ((((GOP)   & 0fffh) > BANKA_END) & (((GOP)   & 0fffh) < (0f01h + BANKA_END)))
                          M       if (((GOP)   & 0f00h) != (PREV_BANK << 8))
                          M         movlb   high (GOP)
                          M PREV_BANK = high (GOP)
                          M       endif
                          M     endif
                          M     if (low (_N9600) == 0)
                          M         clrf    GOP
                          M     else
                          M       if (low (_N9600) == 255)
                          M         setf    GOP
                          M       else
0002A0 0E06               M         movlw   low (_N9600)
0002A2 6E01               M         movwf   GOP
                          M       endif
                          M     endif
                      00584         SEROUT?C        _CLRLCD
0002A4 0E0C               M         movlw   _CLRLCD
                          M         L?CALL  SEROUT
                          M         RST?RP
                          M     if (PREV_ALT != 0)
                          M         bcf     WDTCON, ADSHR
                          M PREV_ALT = 0
                          M     endif
                          M     if (PREV_BANK != 0)
                          M         movlb   0
                          M PREV_BANK = 0
                          M     endif
                          M 
                          M     ifdef USE_LINKER
                          M         call    SEROUT
                          M     else
                          M       if ((SEROUT) < 1)
                          M         call    SEROUT
                          M       else
                          M         if ((SEROUT) > $)
                          M         call    SEROUT
                          M         else
                          M           if ((SEROUT) < ($ - 3ffh))
                          M         call    SEROUT
                          M           else
0002A6 DEAE               M         rcall   SEROUT
MPASM 5.75  MPU-5X RECEIVER MOMENTARY MODE-1   4-2-2018  15:19:27         PAGE 85


LOC  OBJECT CODE     LINE SOURCE TEXT
  VALUE

                          M           endif
                          M         endif
                          M       endif
                          M     endif
                      00585 
                      00586 ; C:\USERS\ANDREW MCENTEE\DOCUMENTS\NTH SOLUTIONS\URICCHIO\PBP3\MPU-5X RECEIVER MOMENTARY MODE-1.PBP    
                            00183       SerOut ADO, N9600, [CLRLCD]:PAUSE 10
                      00587         PAUSE?C 00Ah
                          M     if (((00Ah) >> 8) == 0)
                          M         MOVE?CA 00Ah
0002A8 0E0A               M         movlw   low (00Ah)
                          M         L?CALL  PAUSE
                          M         RST?RP
                          M     if (PREV_ALT != 0)
                          M         bcf     WDTCON, ADSHR
                          M PREV_ALT = 0
                          M     endif
                          M     if (PREV_BANK != 0)
                          M         movlb   0
                          M PREV_BANK = 0
                          M     endif
                          M 
                          M     ifdef USE_LINKER
                          M         call    PAUSE
                          M     else
                          M       if ((PAUSE) < 1)
                          M         call    PAUSE
                          M       else
                          M         if ((PAUSE) > $)
                          M         call    PAUSE
                          M         else
                          M           if ((PAUSE) < ($ - 3ffh))
                          M         call    PAUSE
                          M           else
0002AA DEEB               M         rcall   PAUSE
                          M           endif
                          M         endif
                          M       endif
                          M     endif
                          M     else
                          M         MOVE?CB (00Ah) >> 8, R1 + 1
                          M         MOVE?CA low (00Ah)
                          M         L?CALL  PAUSEL
                          M     endif
                      00588 
                      00589 ; C:\USERS\ANDREW MCENTEE\DOCUMENTS\NTH SOLUTIONS\URICCHIO\PBP3\MPU-5X RECEIVER MOMENTARY MODE-1.PBP    
                            00184       serout ADO, N9600, [POSCMD,LINE1,"Press PB to PROGRAM"]
                      00590         SERPIN?T        _ADO
                          M         BIT?R1  PORTA, 003h
0002AC 0E80               M         movlw   low ((PORTA) + ((003h)  >> 3))
                          M         CHK?RP  RR1
                          M     if (((RR1)   & 8000h) != PREV_ALT)
                          M       if ((RR1)   & 8000h)
MPASM 5.75  MPU-5X RECEIVER MOMENTARY MODE-1   4-2-2018  15:19:27         PAGE 86


LOC  OBJECT CODE     LINE SOURCE TEXT
  VALUE

                          M         bsf     WDTCON, ADSHR
                          M       else
                          M         bcf     WDTCON, ADSHR
                          M       endif
                          M PREV_ALT = (RR1)   & 8000h
                          M     endif
                          M     if ((((RR1)   & 0fffh) > BANKA_END) & (((RR1)   & 0fffh) < (0f01h + BANKA_END)))
                          M       if (((RR1)   & 0f00h) != (PREV_BANK << 8))
                          M         movlb   high (RR1)
                          M PREV_BANK = high (RR1)
                          M       endif
                          M     endif
0002AE 6E16               M         movwf   RR1
0002B0 0E0F               M         movlw   high ((PORTA) + ((003h)  >> 3))
0002B2 6E18               M         movwf   RS1
                          M         BIT?W   003h
                          M     if (((003h)  & 7) == 0)
                          M         movlw   01h
                          M     endif
                          M     if (((003h)  & 7) == 1)
                          M         movlw   02h
                          M     endif
                          M     if (((003h)  & 7) == 2)
                          M         movlw   04h
                          M     endif
                          M     if (((003h)  & 7) == 3)
0002B4 0E08               M         movlw   08h
                          M     endif
                          M     if (((003h)  & 7) == 4)
                          M         movlw   10h
                          M     endif
                          M     if (((003h)  & 7) == 5)
                          M         movlw   20h
                          M     endif
                          M     if (((003h)  & 7) == 6)
                          M         movlw   40h
                          M     endif
                          M     if (((003h)  & 7) == 7)
                          M         movlw   80h
                          M     endif
0002B6 6E14               M         movwf   RM1
                      00591         SERMODE?C       _N9600
                          M         MOVE?CB _N9600, GOP
                          M         CHK?RP  GOP
                          M     if (((GOP)   & 8000h) != PREV_ALT)
                          M       if ((GOP)   & 8000h)
                          M         bsf     WDTCON, ADSHR
                          M       else
                          M         bcf     WDTCON, ADSHR
                          M       endif
                          M PREV_ALT = (GOP)   & 8000h
                          M     endif
                          M     if ((((GOP)   & 0fffh) > BANKA_END) & (((GOP)   & 0fffh) < (0f01h + BANKA_END)))
MPASM 5.75  MPU-5X RECEIVER MOMENTARY MODE-1   4-2-2018  15:19:27         PAGE 87


LOC  OBJECT CODE     LINE SOURCE TEXT
  VALUE

                          M       if (((GOP)   & 0f00h) != (PREV_BANK << 8))
                          M         movlb   high (GOP)
                          M PREV_BANK = high (GOP)
                          M       endif
                          M     endif
                          M     if (low (_N9600) == 0)
                          M         clrf    GOP
                          M     else
                          M       if (low (_N9600) == 255)
                          M         setf    GOP
                          M       else
0002B8 0E06               M         movlw   low (_N9600)
0002BA 6E01               M         movwf   GOP
                          M       endif
                          M     endif
                      00592         SEROUT?C        _POSCMD
0002BC 0E10               M         movlw   _POSCMD
                          M         L?CALL  SEROUT
                          M         RST?RP
                          M     if (PREV_ALT != 0)
                          M         bcf     WDTCON, ADSHR
                          M PREV_ALT = 0
                          M     endif
                          M     if (PREV_BANK != 0)
                          M         movlb   0
                          M PREV_BANK = 0
                          M     endif
                          M 
                          M     ifdef USE_LINKER
                          M         call    SEROUT
                          M     else
                          M       if ((SEROUT) < 1)
                          M         call    SEROUT
                          M       else
                          M         if ((SEROUT) > $)
                          M         call    SEROUT
                          M         else
                          M           if ((SEROUT) < ($ - 3ffh))
                          M         call    SEROUT
                          M           else
0002BE DEA2               M         rcall   SEROUT
                          M           endif
                          M         endif
                          M       endif
                          M     endif
                      00593         SEROUT?C        _LINE1
0002C0 0E40               M         movlw   _LINE1
                          M         L?CALL  SEROUT
                          M         RST?RP
                          M     if (PREV_ALT != 0)
                          M         bcf     WDTCON, ADSHR
                          M PREV_ALT = 0
                          M     endif
MPASM 5.75  MPU-5X RECEIVER MOMENTARY MODE-1   4-2-2018  15:19:27         PAGE 88


LOC  OBJECT CODE     LINE SOURCE TEXT
  VALUE

                          M     if (PREV_BANK != 0)
                          M         movlb   0
                          M PREV_BANK = 0
                          M     endif
                          M 
                          M     ifdef USE_LINKER
                          M         call    SEROUT
                          M     else
                          M       if ((SEROUT) < 1)
                          M         call    SEROUT
                          M       else
                          M         if ((SEROUT) > $)
                          M         call    SEROUT
                          M         else
                          M           if ((SEROUT) < ($ - 3ffh))
                          M         call    SEROUT
                          M           else
0002C2 DEA0               M         rcall   SEROUT
                          M           endif
                          M         endif
                          M       endif
                          M     endif
                      00594         SEROUT?C        050h
0002C4 0E50               M         movlw   050h
                          M         L?CALL  SEROUT
                          M         RST?RP
                          M     if (PREV_ALT != 0)
                          M         bcf     WDTCON, ADSHR
                          M PREV_ALT = 0
                          M     endif
                          M     if (PREV_BANK != 0)
                          M         movlb   0
                          M PREV_BANK = 0
                          M     endif
                          M 
                          M     ifdef USE_LINKER
                          M         call    SEROUT
                          M     else
                          M       if ((SEROUT) < 1)
                          M         call    SEROUT
                          M       else
                          M         if ((SEROUT) > $)
                          M         call    SEROUT
                          M         else
                          M           if ((SEROUT) < ($ - 3ffh))
                          M         call    SEROUT
                          M           else
0002C6 DE9E               M         rcall   SEROUT
                          M           endif
                          M         endif
                          M       endif
                          M     endif
                      00595         SEROUT?C        072h
MPASM 5.75  MPU-5X RECEIVER MOMENTARY MODE-1   4-2-2018  15:19:27         PAGE 89


LOC  OBJECT CODE     LINE SOURCE TEXT
  VALUE

0002C8 0E72               M         movlw   072h
                          M         L?CALL  SEROUT
                          M         RST?RP
                          M     if (PREV_ALT != 0)
                          M         bcf     WDTCON, ADSHR
                          M PREV_ALT = 0
                          M     endif
                          M     if (PREV_BANK != 0)
                          M         movlb   0
                          M PREV_BANK = 0
                          M     endif
                          M 
                          M     ifdef USE_LINKER
                          M         call    SEROUT
                          M     else
                          M       if ((SEROUT) < 1)
                          M         call    SEROUT
                          M       else
                          M         if ((SEROUT) > $)
                          M         call    SEROUT
                          M         else
                          M           if ((SEROUT) < ($ - 3ffh))
                          M         call    SEROUT
                          M           else
0002CA DE9C               M         rcall   SEROUT
                          M           endif
                          M         endif
                          M       endif
                          M     endif
                      00596         SEROUT?C        065h
0002CC 0E65               M         movlw   065h
                          M         L?CALL  SEROUT
                          M         RST?RP
                          M     if (PREV_ALT != 0)
                          M         bcf     WDTCON, ADSHR
                          M PREV_ALT = 0
                          M     endif
                          M     if (PREV_BANK != 0)
                          M         movlb   0
                          M PREV_BANK = 0
                          M     endif
                          M 
                          M     ifdef USE_LINKER
                          M         call    SEROUT
                          M     else
                          M       if ((SEROUT) < 1)
                          M         call    SEROUT
                          M       else
                          M         if ((SEROUT) > $)
                          M         call    SEROUT
                          M         else
                          M           if ((SEROUT) < ($ - 3ffh))
                          M         call    SEROUT
MPASM 5.75  MPU-5X RECEIVER MOMENTARY MODE-1   4-2-2018  15:19:27         PAGE 90


LOC  OBJECT CODE     LINE SOURCE TEXT
  VALUE

                          M           else
0002CE DE9A               M         rcall   SEROUT
                          M           endif
                          M         endif
                          M       endif
                          M     endif
                      00597         SEROUT?C        073h
0002D0 0E73               M         movlw   073h
                          M         L?CALL  SEROUT
                          M         RST?RP
                          M     if (PREV_ALT != 0)
                          M         bcf     WDTCON, ADSHR
                          M PREV_ALT = 0
                          M     endif
                          M     if (PREV_BANK != 0)
                          M         movlb   0
                          M PREV_BANK = 0
                          M     endif
                          M 
                          M     ifdef USE_LINKER
                          M         call    SEROUT
                          M     else
                          M       if ((SEROUT) < 1)
                          M         call    SEROUT
                          M       else
                          M         if ((SEROUT) > $)
                          M         call    SEROUT
                          M         else
                          M           if ((SEROUT) < ($ - 3ffh))
                          M         call    SEROUT
                          M           else
0002D2 DE98               M         rcall   SEROUT
                          M           endif
                          M         endif
                          M       endif
                          M     endif
                      00598         SEROUT?C        073h
0002D4 0E73               M         movlw   073h
                          M         L?CALL  SEROUT
                          M         RST?RP
                          M     if (PREV_ALT != 0)
                          M         bcf     WDTCON, ADSHR
                          M PREV_ALT = 0
                          M     endif
                          M     if (PREV_BANK != 0)
                          M         movlb   0
                          M PREV_BANK = 0
                          M     endif
                          M 
                          M     ifdef USE_LINKER
                          M         call    SEROUT
                          M     else
                          M       if ((SEROUT) < 1)
MPASM 5.75  MPU-5X RECEIVER MOMENTARY MODE-1   4-2-2018  15:19:27         PAGE 91


LOC  OBJECT CODE     LINE SOURCE TEXT
  VALUE

                          M         call    SEROUT
                          M       else
                          M         if ((SEROUT) > $)
                          M         call    SEROUT
                          M         else
                          M           if ((SEROUT) < ($ - 3ffh))
                          M         call    SEROUT
                          M           else
0002D6 DE96               M         rcall   SEROUT
                          M           endif
                          M         endif
                          M       endif
                          M     endif
                      00599         SEROUT?C        020h
0002D8 0E20               M         movlw   020h
                          M         L?CALL  SEROUT
                          M         RST?RP
                          M     if (PREV_ALT != 0)
                          M         bcf     WDTCON, ADSHR
                          M PREV_ALT = 0
                          M     endif
                          M     if (PREV_BANK != 0)
                          M         movlb   0
                          M PREV_BANK = 0
                          M     endif
                          M 
                          M     ifdef USE_LINKER
                          M         call    SEROUT
                          M     else
                          M       if ((SEROUT) < 1)
                          M         call    SEROUT
                          M       else
                          M         if ((SEROUT) > $)
                          M         call    SEROUT
                          M         else
                          M           if ((SEROUT) < ($ - 3ffh))
                          M         call    SEROUT
                          M           else
0002DA DE94               M         rcall   SEROUT
                          M           endif
                          M         endif
                          M       endif
                          M     endif
                      00600         SEROUT?C        050h
0002DC 0E50               M         movlw   050h
                          M         L?CALL  SEROUT
                          M         RST?RP
                          M     if (PREV_ALT != 0)
                          M         bcf     WDTCON, ADSHR
                          M PREV_ALT = 0
                          M     endif
                          M     if (PREV_BANK != 0)
                          M         movlb   0
MPASM 5.75  MPU-5X RECEIVER MOMENTARY MODE-1   4-2-2018  15:19:27         PAGE 92


LOC  OBJECT CODE     LINE SOURCE TEXT
  VALUE

                          M PREV_BANK = 0
                          M     endif
                          M 
                          M     ifdef USE_LINKER
                          M         call    SEROUT
                          M     else
                          M       if ((SEROUT) < 1)
                          M         call    SEROUT
                          M       else
                          M         if ((SEROUT) > $)
                          M         call    SEROUT
                          M         else
                          M           if ((SEROUT) < ($ - 3ffh))
                          M         call    SEROUT
                          M           else
0002DE DE92               M         rcall   SEROUT
                          M           endif
                          M         endif
                          M       endif
                          M     endif
                      00601         SEROUT?C        042h
0002E0 0E42               M         movlw   042h
                          M         L?CALL  SEROUT
                          M         RST?RP
                          M     if (PREV_ALT != 0)
                          M         bcf     WDTCON, ADSHR
                          M PREV_ALT = 0
                          M     endif
                          M     if (PREV_BANK != 0)
                          M         movlb   0
                          M PREV_BANK = 0
                          M     endif
                          M 
                          M     ifdef USE_LINKER
                          M         call    SEROUT
                          M     else
                          M       if ((SEROUT) < 1)
                          M         call    SEROUT
                          M       else
                          M         if ((SEROUT) > $)
                          M         call    SEROUT
                          M         else
                          M           if ((SEROUT) < ($ - 3ffh))
                          M         call    SEROUT
                          M           else
0002E2 DE90               M         rcall   SEROUT
                          M           endif
                          M         endif
                          M       endif
                          M     endif
                      00602         SEROUT?C        020h
0002E4 0E20               M         movlw   020h
                          M         L?CALL  SEROUT
MPASM 5.75  MPU-5X RECEIVER MOMENTARY MODE-1   4-2-2018  15:19:27         PAGE 93


LOC  OBJECT CODE     LINE SOURCE TEXT
  VALUE

                          M         RST?RP
                          M     if (PREV_ALT != 0)
                          M         bcf     WDTCON, ADSHR
                          M PREV_ALT = 0
                          M     endif
                          M     if (PREV_BANK != 0)
                          M         movlb   0
                          M PREV_BANK = 0
                          M     endif
                          M 
                          M     ifdef USE_LINKER
                          M         call    SEROUT
                          M     else
                          M       if ((SEROUT) < 1)
                          M         call    SEROUT
                          M       else
                          M         if ((SEROUT) > $)
                          M         call    SEROUT
                          M         else
                          M           if ((SEROUT) < ($ - 3ffh))
                          M         call    SEROUT
                          M           else
0002E6 DE8E               M         rcall   SEROUT
                          M           endif
                          M         endif
                          M       endif
                          M     endif
                      00603         SEROUT?C        074h
0002E8 0E74               M         movlw   074h
                          M         L?CALL  SEROUT
                          M         RST?RP
                          M     if (PREV_ALT != 0)
                          M         bcf     WDTCON, ADSHR
                          M PREV_ALT = 0
                          M     endif
                          M     if (PREV_BANK != 0)
                          M         movlb   0
                          M PREV_BANK = 0
                          M     endif
                          M 
                          M     ifdef USE_LINKER
                          M         call    SEROUT
                          M     else
                          M       if ((SEROUT) < 1)
                          M         call    SEROUT
                          M       else
                          M         if ((SEROUT) > $)
                          M         call    SEROUT
                          M         else
                          M           if ((SEROUT) < ($ - 3ffh))
                          M         call    SEROUT
                          M           else
0002EA DE8C               M         rcall   SEROUT
MPASM 5.75  MPU-5X RECEIVER MOMENTARY MODE-1   4-2-2018  15:19:27         PAGE 94


LOC  OBJECT CODE     LINE SOURCE TEXT
  VALUE

                          M           endif
                          M         endif
                          M       endif
                          M     endif
                      00604         SEROUT?C        06Fh
0002EC 0E6F               M         movlw   06Fh
                          M         L?CALL  SEROUT
                          M         RST?RP
                          M     if (PREV_ALT != 0)
                          M         bcf     WDTCON, ADSHR
                          M PREV_ALT = 0
                          M     endif
                          M     if (PREV_BANK != 0)
                          M         movlb   0
                          M PREV_BANK = 0
                          M     endif
                          M 
                          M     ifdef USE_LINKER
                          M         call    SEROUT
                          M     else
                          M       if ((SEROUT) < 1)
                          M         call    SEROUT
                          M       else
                          M         if ((SEROUT) > $)
                          M         call    SEROUT
                          M         else
                          M           if ((SEROUT) < ($ - 3ffh))
                          M         call    SEROUT
                          M           else
0002EE DE8A               M         rcall   SEROUT
                          M           endif
                          M         endif
                          M       endif
                          M     endif
                      00605         SEROUT?C        020h
0002F0 0E20               M         movlw   020h
                          M         L?CALL  SEROUT
                          M         RST?RP
                          M     if (PREV_ALT != 0)
                          M         bcf     WDTCON, ADSHR
                          M PREV_ALT = 0
                          M     endif
                          M     if (PREV_BANK != 0)
                          M         movlb   0
                          M PREV_BANK = 0
                          M     endif
                          M 
                          M     ifdef USE_LINKER
                          M         call    SEROUT
                          M     else
                          M       if ((SEROUT) < 1)
                          M         call    SEROUT
                          M       else
MPASM 5.75  MPU-5X RECEIVER MOMENTARY MODE-1   4-2-2018  15:19:27         PAGE 95


LOC  OBJECT CODE     LINE SOURCE TEXT
  VALUE

                          M         if ((SEROUT) > $)
                          M         call    SEROUT
                          M         else
                          M           if ((SEROUT) < ($ - 3ffh))
                          M         call    SEROUT
                          M           else
0002F2 DE88               M         rcall   SEROUT
                          M           endif
                          M         endif
                          M       endif
                          M     endif
                      00606         SEROUT?C        050h
0002F4 0E50               M         movlw   050h
                          M         L?CALL  SEROUT
                          M         RST?RP
                          M     if (PREV_ALT != 0)
                          M         bcf     WDTCON, ADSHR
                          M PREV_ALT = 0
                          M     endif
                          M     if (PREV_BANK != 0)
                          M         movlb   0
                          M PREV_BANK = 0
                          M     endif
                          M 
                          M     ifdef USE_LINKER
                          M         call    SEROUT
                          M     else
                          M       if ((SEROUT) < 1)
                          M         call    SEROUT
                          M       else
                          M         if ((SEROUT) > $)
                          M         call    SEROUT
                          M         else
                          M           if ((SEROUT) < ($ - 3ffh))
                          M         call    SEROUT
                          M           else
0002F6 DE86               M         rcall   SEROUT
                          M           endif
                          M         endif
                          M       endif
                          M     endif
                      00607         SEROUT?C        052h
0002F8 0E52               M         movlw   052h
                          M         L?CALL  SEROUT
                          M         RST?RP
                          M     if (PREV_ALT != 0)
                          M         bcf     WDTCON, ADSHR
                          M PREV_ALT = 0
                          M     endif
                          M     if (PREV_BANK != 0)
                          M         movlb   0
                          M PREV_BANK = 0
                          M     endif
MPASM 5.75  MPU-5X RECEIVER MOMENTARY MODE-1   4-2-2018  15:19:27         PAGE 96


LOC  OBJECT CODE     LINE SOURCE TEXT
  VALUE

                          M 
                          M     ifdef USE_LINKER
                          M         call    SEROUT
                          M     else
                          M       if ((SEROUT) < 1)
                          M         call    SEROUT
                          M       else
                          M         if ((SEROUT) > $)
                          M         call    SEROUT
                          M         else
                          M           if ((SEROUT) < ($ - 3ffh))
                          M         call    SEROUT
                          M           else
0002FA DE84               M         rcall   SEROUT
                          M           endif
                          M         endif
                          M       endif
                          M     endif
                      00608         SEROUT?C        04Fh
0002FC 0E4F               M         movlw   04Fh
                          M         L?CALL  SEROUT
                          M         RST?RP
                          M     if (PREV_ALT != 0)
                          M         bcf     WDTCON, ADSHR
                          M PREV_ALT = 0
                          M     endif
                          M     if (PREV_BANK != 0)
                          M         movlb   0
                          M PREV_BANK = 0
                          M     endif
                          M 
                          M     ifdef USE_LINKER
                          M         call    SEROUT
                          M     else
                          M       if ((SEROUT) < 1)
                          M         call    SEROUT
                          M       else
                          M         if ((SEROUT) > $)
                          M         call    SEROUT
                          M         else
                          M           if ((SEROUT) < ($ - 3ffh))
                          M         call    SEROUT
                          M           else
0002FE DE82               M         rcall   SEROUT
                          M           endif
                          M         endif
                          M       endif
                          M     endif
                      00609         SEROUT?C        047h
000300 0E47               M         movlw   047h
                          M         L?CALL  SEROUT
                          M         RST?RP
                          M     if (PREV_ALT != 0)
MPASM 5.75  MPU-5X RECEIVER MOMENTARY MODE-1   4-2-2018  15:19:27         PAGE 97


LOC  OBJECT CODE     LINE SOURCE TEXT
  VALUE

                          M         bcf     WDTCON, ADSHR
                          M PREV_ALT = 0
                          M     endif
                          M     if (PREV_BANK != 0)
                          M         movlb   0
                          M PREV_BANK = 0
                          M     endif
                          M 
                          M     ifdef USE_LINKER
                          M         call    SEROUT
                          M     else
                          M       if ((SEROUT) < 1)
                          M         call    SEROUT
                          M       else
                          M         if ((SEROUT) > $)
                          M         call    SEROUT
                          M         else
                          M           if ((SEROUT) < ($ - 3ffh))
                          M         call    SEROUT
                          M           else
000302 DE80               M         rcall   SEROUT
                          M           endif
                          M         endif
                          M       endif
                          M     endif
                      00610         SEROUT?C        052h
000304 0E52               M         movlw   052h
                          M         L?CALL  SEROUT
                          M         RST?RP
                          M     if (PREV_ALT != 0)
                          M         bcf     WDTCON, ADSHR
                          M PREV_ALT = 0
                          M     endif
                          M     if (PREV_BANK != 0)
                          M         movlb   0
                          M PREV_BANK = 0
                          M     endif
                          M 
                          M     ifdef USE_LINKER
                          M         call    SEROUT
                          M     else
                          M       if ((SEROUT) < 1)
                          M         call    SEROUT
                          M       else
                          M         if ((SEROUT) > $)
                          M         call    SEROUT
                          M         else
                          M           if ((SEROUT) < ($ - 3ffh))
                          M         call    SEROUT
                          M           else
000306 DE7E               M         rcall   SEROUT
                          M           endif
                          M         endif
MPASM 5.75  MPU-5X RECEIVER MOMENTARY MODE-1   4-2-2018  15:19:27         PAGE 98


LOC  OBJECT CODE     LINE SOURCE TEXT
  VALUE

                          M       endif
                          M     endif
                      00611         SEROUT?C        041h
000308 0E41               M         movlw   041h
                          M         L?CALL  SEROUT
                          M         RST?RP
                          M     if (PREV_ALT != 0)
                          M         bcf     WDTCON, ADSHR
                          M PREV_ALT = 0
                          M     endif
                          M     if (PREV_BANK != 0)
                          M         movlb   0
                          M PREV_BANK = 0
                          M     endif
                          M 
                          M     ifdef USE_LINKER
                          M         call    SEROUT
                          M     else
                          M       if ((SEROUT) < 1)
                          M         call    SEROUT
                          M       else
                          M         if ((SEROUT) > $)
                          M         call    SEROUT
                          M         else
                          M           if ((SEROUT) < ($ - 3ffh))
                          M         call    SEROUT
                          M           else
00030A DE7C               M         rcall   SEROUT
                          M           endif
                          M         endif
                          M       endif
                          M     endif
                      00612         SEROUT?C        04Dh
00030C 0E4D               M         movlw   04Dh
                          M         L?CALL  SEROUT
                          M         RST?RP
                          M     if (PREV_ALT != 0)
                          M         bcf     WDTCON, ADSHR
                          M PREV_ALT = 0
                          M     endif
                          M     if (PREV_BANK != 0)
                          M         movlb   0
                          M PREV_BANK = 0
                          M     endif
                          M 
                          M     ifdef USE_LINKER
                          M         call    SEROUT
                          M     else
                          M       if ((SEROUT) < 1)
                          M         call    SEROUT
                          M       else
                          M         if ((SEROUT) > $)
                          M         call    SEROUT
MPASM 5.75  MPU-5X RECEIVER MOMENTARY MODE-1   4-2-2018  15:19:27         PAGE 99


LOC  OBJECT CODE     LINE SOURCE TEXT
  VALUE

                          M         else
                          M           if ((SEROUT) < ($ - 3ffh))
                          M         call    SEROUT
                          M           else
00030E DE7A               M         rcall   SEROUT
                          M           endif
                          M         endif
                          M       endif
                          M     endif
                      00613 
                      00614 ; C:\USERS\ANDREW MCENTEE\DOCUMENTS\NTH SOLUTIONS\URICCHIO\PBP3\MPU-5X RECEIVER MOMENTARY MODE-1.PBP    
                            00185       SCK = 0
                      00615         MOVE?CT 000h, _SCK
                          M         CHK?RP  PORTC
                          M     if (((PORTC) & 8000h) != PREV_ALT)
                          M       if ((PORTC) & 8000h)
                          M         bsf     WDTCON, ADSHR
                          M       else
                          M         bcf     WDTCON, ADSHR
                          M       endif
                          M PREV_ALT = (PORTC) & 8000h
                          M     endif
                          M     if ((((PORTC) & 0fffh) > BANKA_END) & (((PORTC) & 0fffh) < (0f01h + BANKA_END)))
                          M       if (((PORTC) & 0f00h) != (PREV_BANK << 8))
                          M         movlb   high (PORTC)
                          M PREV_BANK = high (PORTC)
                          M       endif
                          M     endif
                          M     if (((000h) & 1) == 1)
                          M         bsf     PORTC,  003h
                          M     else
000310 9682               M         bcf     PORTC,  003h
                          M     endif
                      00616 
                      00617 ; C:\USERS\ANDREW MCENTEE\DOCUMENTS\NTH SOLUTIONS\URICCHIO\PBP3\MPU-5X RECEIVER MOMENTARY MODE-1.PBP    
                            00186       PAUSE 1000
                      00618         PAUSE?C 003E8h
                          M     if (((003E8h) >> 8) == 0)
                          M         MOVE?CA 003E8h
                          M         L?CALL  PAUSE
                          M     else
                          M         MOVE?CB (003E8h) >> 8, R1 + 1
                          M         CHK?RP  R1 + 1
                          M     if (((R1 + 1) & 8000h) != PREV_ALT)
                          M       if ((R1 + 1) & 8000h)
                          M         bsf     WDTCON, ADSHR
                          M       else
                          M         bcf     WDTCON, ADSHR
                          M       endif
                          M PREV_ALT = (R1 + 1) & 8000h
                          M     endif
                          M     if ((((R1 + 1) & 0fffh) > BANKA_END) & (((R1 + 1) & 0fffh) < (0f01h + BANKA_END)))
                          M       if (((R1 + 1) & 0f00h) != (PREV_BANK << 8))
MPASM 5.75  MPU-5X RECEIVER MOMENTARY MODE-1   4-2-2018  15:19:27         PAGE 100


LOC  OBJECT CODE     LINE SOURCE TEXT
  VALUE

                          M         movlb   high (R1 + 1)
                          M PREV_BANK = high (R1 + 1)
                          M       endif
                          M     endif
                          M     if (low ((003E8h) >> 8) == 0)
                          M         clrf    R1 + 1
                          M     else
                          M       if (low ((003E8h) >> 8) == 255)
                          M         setf    R1 + 1
                          M       else
000312 0E03               M         movlw   low ((003E8h) >> 8)
000314 6E05               M         movwf   R1 + 1
                          M       endif
                          M     endif
                          M         MOVE?CA low (003E8h)
000316 0EE8               M         movlw   low (low (003E8h))
                          M         L?CALL  PAUSEL
                          M         RST?RP
                          M     if (PREV_ALT != 0)
                          M         bcf     WDTCON, ADSHR
                          M PREV_ALT = 0
                          M     endif
                          M     if (PREV_BANK != 0)
                          M         movlb   0
                          M PREV_BANK = 0
                          M     endif
                          M 
                          M     ifdef USE_LINKER
                          M         call    PAUSEL
                          M     else
                          M       if ((PAUSEL) < 1)
                          M         call    PAUSEL
                          M       else
                          M         if ((PAUSEL) > $)
                          M         call    PAUSEL
                          M         else
                          M           if ((PAUSEL) < ($ - 3ffh))
                          M         call    PAUSEL
                          M           else
000318 DEB5               M         rcall   PAUSEL
                          M           endif
                          M         endif
                          M       endif
                          M     endif
                          M     endif
                      00619 
                      00620 ; C:\USERS\ANDREW MCENTEE\DOCUMENTS\NTH SOLUTIONS\URICCHIO\PBP3\MPU-5X RECEIVER MOMENTARY MODE-1.PBP    
                            00188   DOZE_UNTIL_PB_PRESSED1:
                      00621 
                      00622         LABEL?L _DOZE_UNTIL_PB_PRESSED1 
                          M         RST?RP
                          M     if (PREV_ALT != 0)
                          M         bcf     WDTCON, ADSHR
MPASM 5.75  MPU-5X RECEIVER MOMENTARY MODE-1   4-2-2018  15:19:27         PAGE 101


LOC  OBJECT CODE     LINE SOURCE TEXT
  VALUE

                          M PREV_ALT = 0
                          M     endif
                          M     if (PREV_BANK != 0)
                          M         movlb   0
                          M PREV_BANK = 0
                          M     endif
                          M     ifdef PM_USED
                          M         LALL
                          M _DOZE_UNTIL_PB_PRESSED1
                          M         XALL
                          M     else
00031A                    M _DOZE_UNTIL_PB_PRESSED1
                          M     endif
                      00623 
                      00624 ; C:\USERS\ANDREW MCENTEE\DOCUMENTS\NTH SOLUTIONS\URICCHIO\PBP3\MPU-5X RECEIVER MOMENTARY MODE-1.PBP    
                            00189       IF PB == 1 then PROGRAM_RCVR
                      00625         CMPEQ?TCL       _PB, 001h, _PROGRAM_RCVR
                          M     if (((001h) == 0) | ((001h) == 1))
                          M         CLRWDT?
                          M     ifndef NO_CLRWDT
00031A 0004               M         clrwdt
                          M     endif
                          M         BIT?GOTO 001h, PORTB, 005h, _PROGRAM_RCVR
                          M     ifdef USE_LINKER
                          M         CLRWDT?
                          M     else
                          M       if ($ == (_PROGRAM_RCVR))
                          M         CLRWDT?
                          M       endif
                          M     endif
                          M 
                          M     if (((PORTB) > BANKA_END) & ((PORTB) < (0f01h + BANKA_END)))
                          M         bcf     STATUS, OV
                          M         CHK?RP  PORTB
                          M       if ((001h)   == 0)
                          M         btfss   PORTB, 005h
                          M       else
                          M         btfsc   PORTB, 005h
                          M       endif
                          M         bsf     STATUS, OV
                          M         RST?RP
                          M       ifdef USE_LINKER
                          M         btfsc   STATUS, OV
                          M         goto    _PROGRAM_RCVR
                          M       else
                          M         if ((_PROGRAM_RCVR) < 1)
                          M         btfsc   STATUS, OV
                          M         goto    _PROGRAM_RCVR
                          M         else
                          M           if ((_PROGRAM_RCVR) > $)
                          M         btfsc   STATUS, OV
                          M         goto    _PROGRAM_RCVR
                          M           else
MPASM 5.75  MPU-5X RECEIVER MOMENTARY MODE-1   4-2-2018  15:19:27         PAGE 102


LOC  OBJECT CODE     LINE SOURCE TEXT
  VALUE

                          M             if ((_PROGRAM_RCVR) < ($ - 7fh))
                          M         btfsc   STATUS, OV
                          M         goto    _PROGRAM_RCVR
                          M             else
                          M         bov     _PROGRAM_RCVR
                          M             endif
                          M           endif
                          M         endif
                          M       endif
                          M     else
                          M         RST?RP
                          M     if (PREV_ALT != 0)
                          M         bcf     WDTCON, ADSHR
                          M PREV_ALT = 0
                          M     endif
                          M     if (PREV_BANK != 0)
                          M         movlb   0
                          M PREV_BANK = 0
                          M     endif
                          M       if ((001h)   == 0)
                          M         btfss   PORTB, 005h
                          M       else
00031C BA81               M         btfsc   PORTB, 005h
                          M       endif
                          M       ifdef USE_LINKER
                          M         goto    _PROGRAM_RCVR
                          M       else
                          M         if ((_PROGRAM_RCVR) < 1)
                          M         goto    _PROGRAM_RCVR
                          M         else
                          M           if ((_PROGRAM_RCVR) > $)
00031E EF93 F001          M         goto    _PROGRAM_RCVR
                          M           else
                          M             if ((_PROGRAM_RCVR) < ($ - 3ffh))
                          M         goto    _PROGRAM_RCVR
                          M             else
                          M         bra     _PROGRAM_RCVR
                          M             endif
                          M           endif
                          M         endif
                          M       endif
                          M     endif
                          M     endif
                      00626 
                      00627 ; C:\USERS\ANDREW MCENTEE\DOCUMENTS\NTH SOLUTIONS\URICCHIO\PBP3\MPU-5X RECEIVER MOMENTARY MODE-1.PBP    
                            00190       NAP 0
                      00628         NAP?C   000h
000322 0003               M         sleep
                      00629 
                      00630 ; C:\USERS\ANDREW MCENTEE\DOCUMENTS\NTH SOLUTIONS\URICCHIO\PBP3\MPU-5X RECEIVER MOMENTARY MODE-1.PBP    
                            00191       GOTO DOZE_UNTIL_PB_PRESSED1
                      00631         GOTO?L  _DOZE_UNTIL_PB_PRESSED1
                          M         L?GOTO  _DOZE_UNTIL_PB_PRESSED1
MPASM 5.75  MPU-5X RECEIVER MOMENTARY MODE-1   4-2-2018  15:19:27         PAGE 103


LOC  OBJECT CODE     LINE SOURCE TEXT
  VALUE

                          M     ifdef USE_LINKER
                          M         CLRWDT?
                          M     else
                          M       if ($ == (_DOZE_UNTIL_PB_PRESSED1))
                          M         CLRWDT?
                          M       endif
                          M     endif
                          M 
                          M         RST?RP
                          M     if (PREV_ALT != 0)
                          M         bcf     WDTCON, ADSHR
                          M PREV_ALT = 0
                          M     endif
                          M     if (PREV_BANK != 0)
                          M         movlb   0
                          M PREV_BANK = 0
                          M     endif
                          M 
                          M     ifdef USE_LINKER
                          M         goto    _DOZE_UNTIL_PB_PRESSED1
                          M     else
                          M       if ((_DOZE_UNTIL_PB_PRESSED1) < 1)
                          M         goto    _DOZE_UNTIL_PB_PRESSED1
                          M       else
                          M         if ((_DOZE_UNTIL_PB_PRESSED1) > $)
                          M         goto    _DOZE_UNTIL_PB_PRESSED1
                          M         else
                          M           if ((_DOZE_UNTIL_PB_PRESSED1) < ($ - 3ffh))
                          M         goto    _DOZE_UNTIL_PB_PRESSED1
                          M           else
000324 D7FA               M         bra     _DOZE_UNTIL_PB_PRESSED1
                          M           endif
                          M         endif
                          M       endif
                          M     endif
                      00632 
                      00633 ; C:\USERS\ANDREW MCENTEE\DOCUMENTS\NTH SOLUTIONS\URICCHIO\PBP3\MPU-5X RECEIVER MOMENTARY MODE-1.PBP    
                            00193   PROGRAM_RCVR:
                      00634 
                      00635         LABEL?L _PROGRAM_RCVR   
                          M         RST?RP
                          M     if (PREV_ALT != 0)
                          M         bcf     WDTCON, ADSHR
                          M PREV_ALT = 0
                          M     endif
                          M     if (PREV_BANK != 0)
                          M         movlb   0
                          M PREV_BANK = 0
                          M     endif
                          M     ifdef PM_USED
                          M         LALL
                          M _PROGRAM_RCVR
                          M         XALL
MPASM 5.75  MPU-5X RECEIVER MOMENTARY MODE-1   4-2-2018  15:19:27         PAGE 104


LOC  OBJECT CODE     LINE SOURCE TEXT
  VALUE

                          M     else
000326                    M _PROGRAM_RCVR
                          M     endif
                      00636 
                      00637 ; C:\USERS\ANDREW MCENTEE\DOCUMENTS\NTH SOLUTIONS\URICCHIO\PBP3\MPU-5X RECEIVER MOMENTARY MODE-1.PBP    
                            00194       GRN_LED = 0
                      00638         MOVE?CT 000h, _GRN_LED
                          M         CHK?RP  PORTC
                          M     if (((PORTC) & 8000h) != PREV_ALT)
                          M       if ((PORTC) & 8000h)
                          M         bsf     WDTCON, ADSHR
                          M       else
                          M         bcf     WDTCON, ADSHR
                          M       endif
                          M PREV_ALT = (PORTC) & 8000h
                          M     endif
                          M     if ((((PORTC) & 0fffh) > BANKA_END) & (((PORTC) & 0fffh) < (0f01h + BANKA_END)))
                          M       if (((PORTC) & 0f00h) != (PREV_BANK << 8))
                          M         movlb   high (PORTC)
                          M PREV_BANK = high (PORTC)
                          M       endif
                          M     endif
                          M     if (((000h) & 1) == 1)
                          M         bsf     PORTC,  000h
                          M     else
000326 9082               M         bcf     PORTC,  000h
                          M     endif
                      00639 
                      00640 ; C:\USERS\ANDREW MCENTEE\DOCUMENTS\NTH SOLUTIONS\URICCHIO\PBP3\MPU-5X RECEIVER MOMENTARY MODE-1.PBP    
                            00195       RED_LED = 1
                      00641         MOVE?CT 001h, _RED_LED
                          M         CHK?RP  PORTA
                          M     if (((PORTA) & 8000h) != PREV_ALT)
                          M       if ((PORTA) & 8000h)
                          M         bsf     WDTCON, ADSHR
                          M       else
                          M         bcf     WDTCON, ADSHR
                          M       endif
                          M PREV_ALT = (PORTA) & 8000h
                          M     endif
                          M     if ((((PORTA) & 0fffh) > BANKA_END) & (((PORTA) & 0fffh) < (0f01h + BANKA_END)))
                          M       if (((PORTA) & 0f00h) != (PREV_BANK << 8))
                          M         movlb   high (PORTA)
                          M PREV_BANK = high (PORTA)
                          M       endif
                          M     endif
                          M     if (((001h) & 1) == 1)
000328 8280               M         bsf     PORTA,  001h
                          M     else
                          M         bcf     PORTA,  001h
                          M     endif
                      00642 
                      00643 ; C:\USERS\ANDREW MCENTEE\DOCUMENTS\NTH SOLUTIONS\URICCHIO\PBP3\MPU-5X RECEIVER MOMENTARY MODE-1.PBP    
MPASM 5.75  MPU-5X RECEIVER MOMENTARY MODE-1   4-2-2018  15:19:27         PAGE 105


LOC  OBJECT CODE     LINE SOURCE TEXT
  VALUE

                            00196       SerOut ADO, N9600, [CLRLCD]:PAUSE 10
                      00644         SERPIN?T        _ADO
                          M         BIT?R1  PORTA, 003h
00032A 0E80               M         movlw   low ((PORTA) + ((003h)  >> 3))
                          M         CHK?RP  RR1
                          M     if (((RR1)   & 8000h) != PREV_ALT)
                          M       if ((RR1)   & 8000h)
                          M         bsf     WDTCON, ADSHR
                          M       else
                          M         bcf     WDTCON, ADSHR
                          M       endif
                          M PREV_ALT = (RR1)   & 8000h
                          M     endif
                          M     if ((((RR1)   & 0fffh) > BANKA_END) & (((RR1)   & 0fffh) < (0f01h + BANKA_END)))
                          M       if (((RR1)   & 0f00h) != (PREV_BANK << 8))
                          M         movlb   high (RR1)
                          M PREV_BANK = high (RR1)
                          M       endif
                          M     endif
00032C 6E16               M         movwf   RR1
00032E 0E0F               M         movlw   high ((PORTA) + ((003h)  >> 3))
000330 6E18               M         movwf   RS1
                          M         BIT?W   003h
                          M     if (((003h)  & 7) == 0)
                          M         movlw   01h
                          M     endif
                          M     if (((003h)  & 7) == 1)
                          M         movlw   02h
                          M     endif
                          M     if (((003h)  & 7) == 2)
                          M         movlw   04h
                          M     endif
                          M     if (((003h)  & 7) == 3)
000332 0E08               M         movlw   08h
                          M     endif
                          M     if (((003h)  & 7) == 4)
                          M         movlw   10h
                          M     endif
                          M     if (((003h)  & 7) == 5)
                          M         movlw   20h
                          M     endif
                          M     if (((003h)  & 7) == 6)
                          M         movlw   40h
                          M     endif
                          M     if (((003h)  & 7) == 7)
                          M         movlw   80h
                          M     endif
000334 6E14               M         movwf   RM1
                      00645         SERMODE?C       _N9600
                          M         MOVE?CB _N9600, GOP
                          M         CHK?RP  GOP
                          M     if (((GOP)   & 8000h) != PREV_ALT)
                          M       if ((GOP)   & 8000h)
MPASM 5.75  MPU-5X RECEIVER MOMENTARY MODE-1   4-2-2018  15:19:27         PAGE 106


LOC  OBJECT CODE     LINE SOURCE TEXT
  VALUE

                          M         bsf     WDTCON, ADSHR
                          M       else
                          M         bcf     WDTCON, ADSHR
                          M       endif
                          M PREV_ALT = (GOP)   & 8000h
                          M     endif
                          M     if ((((GOP)   & 0fffh) > BANKA_END) & (((GOP)   & 0fffh) < (0f01h + BANKA_END)))
                          M       if (((GOP)   & 0f00h) != (PREV_BANK << 8))
                          M         movlb   high (GOP)
                          M PREV_BANK = high (GOP)
                          M       endif
                          M     endif
                          M     if (low (_N9600) == 0)
                          M         clrf    GOP
                          M     else
                          M       if (low (_N9600) == 255)
                          M         setf    GOP
                          M       else
000336 0E06               M         movlw   low (_N9600)
000338 6E01               M         movwf   GOP
                          M       endif
                          M     endif
                      00646         SEROUT?C        _CLRLCD
00033A 0E0C               M         movlw   _CLRLCD
                          M         L?CALL  SEROUT
                          M         RST?RP
                          M     if (PREV_ALT != 0)
                          M         bcf     WDTCON, ADSHR
                          M PREV_ALT = 0
                          M     endif
                          M     if (PREV_BANK != 0)
                          M         movlb   0
                          M PREV_BANK = 0
                          M     endif
                          M 
                          M     ifdef USE_LINKER
                          M         call    SEROUT
                          M     else
                          M       if ((SEROUT) < 1)
                          M         call    SEROUT
                          M       else
                          M         if ((SEROUT) > $)
                          M         call    SEROUT
                          M         else
                          M           if ((SEROUT) < ($ - 3ffh))
                          M         call    SEROUT
                          M           else
00033C DE63               M         rcall   SEROUT
                          M           endif
                          M         endif
                          M       endif
                          M     endif
                      00647 
MPASM 5.75  MPU-5X RECEIVER MOMENTARY MODE-1   4-2-2018  15:19:27         PAGE 107


LOC  OBJECT CODE     LINE SOURCE TEXT
  VALUE

                      00648 ; C:\USERS\ANDREW MCENTEE\DOCUMENTS\NTH SOLUTIONS\URICCHIO\PBP3\MPU-5X RECEIVER MOMENTARY MODE-1.PBP    
                            00196       SerOut ADO, N9600, [CLRLCD]:PAUSE 10
                      00649         PAUSE?C 00Ah
                          M     if (((00Ah) >> 8) == 0)
                          M         MOVE?CA 00Ah
00033E 0E0A               M         movlw   low (00Ah)
                          M         L?CALL  PAUSE
                          M         RST?RP
                          M     if (PREV_ALT != 0)
                          M         bcf     WDTCON, ADSHR
                          M PREV_ALT = 0
                          M     endif
                          M     if (PREV_BANK != 0)
                          M         movlb   0
                          M PREV_BANK = 0
                          M     endif
                          M 
                          M     ifdef USE_LINKER
                          M         call    PAUSE
                          M     else
                          M       if ((PAUSE) < 1)
                          M         call    PAUSE
                          M       else
                          M         if ((PAUSE) > $)
                          M         call    PAUSE
                          M         else
                          M           if ((PAUSE) < ($ - 3ffh))
                          M         call    PAUSE
                          M           else
000340 DEA0               M         rcall   PAUSE
                          M           endif
                          M         endif
                          M       endif
                          M     endif
                          M     else
                          M         MOVE?CB (00Ah) >> 8, R1 + 1
                          M         MOVE?CA low (00Ah)
                          M         L?CALL  PAUSEL
                          M     endif
                      00650 
                      00651 ; C:\USERS\ANDREW MCENTEE\DOCUMENTS\NTH SOLUTIONS\URICCHIO\PBP3\MPU-5X RECEIVER MOMENTARY MODE-1.PBP    
                            00197       serout ADO, N9600, [POSCMD,LINE1,"PROGRAMMING Receiver"]
                      00652         SERPIN?T        _ADO
                          M         BIT?R1  PORTA, 003h
000342 0E80               M         movlw   low ((PORTA) + ((003h)  >> 3))
                          M         CHK?RP  RR1
                          M     if (((RR1)   & 8000h) != PREV_ALT)
                          M       if ((RR1)   & 8000h)
                          M         bsf     WDTCON, ADSHR
                          M       else
                          M         bcf     WDTCON, ADSHR
                          M       endif
                          M PREV_ALT = (RR1)   & 8000h
MPASM 5.75  MPU-5X RECEIVER MOMENTARY MODE-1   4-2-2018  15:19:27         PAGE 108


LOC  OBJECT CODE     LINE SOURCE TEXT
  VALUE

                          M     endif
                          M     if ((((RR1)   & 0fffh) > BANKA_END) & (((RR1)   & 0fffh) < (0f01h + BANKA_END)))
                          M       if (((RR1)   & 0f00h) != (PREV_BANK << 8))
                          M         movlb   high (RR1)
                          M PREV_BANK = high (RR1)
                          M       endif
                          M     endif
000344 6E16               M         movwf   RR1
000346 0E0F               M         movlw   high ((PORTA) + ((003h)  >> 3))
000348 6E18               M         movwf   RS1
                          M         BIT?W   003h
                          M     if (((003h)  & 7) == 0)
                          M         movlw   01h
                          M     endif
                          M     if (((003h)  & 7) == 1)
                          M         movlw   02h
                          M     endif
                          M     if (((003h)  & 7) == 2)
                          M         movlw   04h
                          M     endif
                          M     if (((003h)  & 7) == 3)
00034A 0E08               M         movlw   08h
                          M     endif
                          M     if (((003h)  & 7) == 4)
                          M         movlw   10h
                          M     endif
                          M     if (((003h)  & 7) == 5)
                          M         movlw   20h
                          M     endif
                          M     if (((003h)  & 7) == 6)
                          M         movlw   40h
                          M     endif
                          M     if (((003h)  & 7) == 7)
                          M         movlw   80h
                          M     endif
00034C 6E14               M         movwf   RM1
                      00653         SERMODE?C       _N9600
                          M         MOVE?CB _N9600, GOP
                          M         CHK?RP  GOP
                          M     if (((GOP)   & 8000h) != PREV_ALT)
                          M       if ((GOP)   & 8000h)
                          M         bsf     WDTCON, ADSHR
                          M       else
                          M         bcf     WDTCON, ADSHR
                          M       endif
                          M PREV_ALT = (GOP)   & 8000h
                          M     endif
                          M     if ((((GOP)   & 0fffh) > BANKA_END) & (((GOP)   & 0fffh) < (0f01h + BANKA_END)))
                          M       if (((GOP)   & 0f00h) != (PREV_BANK << 8))
                          M         movlb   high (GOP)
                          M PREV_BANK = high (GOP)
                          M       endif
                          M     endif
MPASM 5.75  MPU-5X RECEIVER MOMENTARY MODE-1   4-2-2018  15:19:27         PAGE 109


LOC  OBJECT CODE     LINE SOURCE TEXT
  VALUE

                          M     if (low (_N9600) == 0)
                          M         clrf    GOP
                          M     else
                          M       if (low (_N9600) == 255)
                          M         setf    GOP
                          M       else
00034E 0E06               M         movlw   low (_N9600)
000350 6E01               M         movwf   GOP
                          M       endif
                          M     endif
                      00654         SEROUT?C        _POSCMD
000352 0E10               M         movlw   _POSCMD
                          M         L?CALL  SEROUT
                          M         RST?RP
                          M     if (PREV_ALT != 0)
                          M         bcf     WDTCON, ADSHR
                          M PREV_ALT = 0
                          M     endif
                          M     if (PREV_BANK != 0)
                          M         movlb   0
                          M PREV_BANK = 0
                          M     endif
                          M 
                          M     ifdef USE_LINKER
                          M         call    SEROUT
                          M     else
                          M       if ((SEROUT) < 1)
                          M         call    SEROUT
                          M       else
                          M         if ((SEROUT) > $)
                          M         call    SEROUT
                          M         else
                          M           if ((SEROUT) < ($ - 3ffh))
                          M         call    SEROUT
                          M           else
000354 DE57               M         rcall   SEROUT
                          M           endif
                          M         endif
                          M       endif
                          M     endif
                      00655         SEROUT?C        _LINE1
000356 0E40               M         movlw   _LINE1
                          M         L?CALL  SEROUT
                          M         RST?RP
                          M     if (PREV_ALT != 0)
                          M         bcf     WDTCON, ADSHR
                          M PREV_ALT = 0
                          M     endif
                          M     if (PREV_BANK != 0)
                          M         movlb   0
                          M PREV_BANK = 0
                          M     endif
                          M 
MPASM 5.75  MPU-5X RECEIVER MOMENTARY MODE-1   4-2-2018  15:19:27         PAGE 110


LOC  OBJECT CODE     LINE SOURCE TEXT
  VALUE

                          M     ifdef USE_LINKER
                          M         call    SEROUT
                          M     else
                          M       if ((SEROUT) < 1)
                          M         call    SEROUT
                          M       else
                          M         if ((SEROUT) > $)
                          M         call    SEROUT
                          M         else
                          M           if ((SEROUT) < ($ - 3ffh))
                          M         call    SEROUT
                          M           else
000358 DE55               M         rcall   SEROUT
                          M           endif
                          M         endif
                          M       endif
                          M     endif
                      00656         SEROUT?C        050h
00035A 0E50               M         movlw   050h
                          M         L?CALL  SEROUT
                          M         RST?RP
                          M     if (PREV_ALT != 0)
                          M         bcf     WDTCON, ADSHR
                          M PREV_ALT = 0
                          M     endif
                          M     if (PREV_BANK != 0)
                          M         movlb   0
                          M PREV_BANK = 0
                          M     endif
                          M 
                          M     ifdef USE_LINKER
                          M         call    SEROUT
                          M     else
                          M       if ((SEROUT) < 1)
                          M         call    SEROUT
                          M       else
                          M         if ((SEROUT) > $)
                          M         call    SEROUT
                          M         else
                          M           if ((SEROUT) < ($ - 3ffh))
                          M         call    SEROUT
                          M           else
00035C DE53               M         rcall   SEROUT
                          M           endif
                          M         endif
                          M       endif
                          M     endif
                      00657         SEROUT?C        052h
00035E 0E52               M         movlw   052h
                          M         L?CALL  SEROUT
                          M         RST?RP
                          M     if (PREV_ALT != 0)
                          M         bcf     WDTCON, ADSHR
MPASM 5.75  MPU-5X RECEIVER MOMENTARY MODE-1   4-2-2018  15:19:27         PAGE 111


LOC  OBJECT CODE     LINE SOURCE TEXT
  VALUE

                          M PREV_ALT = 0
                          M     endif
                          M     if (PREV_BANK != 0)
                          M         movlb   0
                          M PREV_BANK = 0
                          M     endif
                          M 
                          M     ifdef USE_LINKER
                          M         call    SEROUT
                          M     else
                          M       if ((SEROUT) < 1)
                          M         call    SEROUT
                          M       else
                          M         if ((SEROUT) > $)
                          M         call    SEROUT
                          M         else
                          M           if ((SEROUT) < ($ - 3ffh))
                          M         call    SEROUT
                          M           else
000360 DE51               M         rcall   SEROUT
                          M           endif
                          M         endif
                          M       endif
                          M     endif
                      00658         SEROUT?C        04Fh
000362 0E4F               M         movlw   04Fh
                          M         L?CALL  SEROUT
                          M         RST?RP
                          M     if (PREV_ALT != 0)
                          M         bcf     WDTCON, ADSHR
                          M PREV_ALT = 0
                          M     endif
                          M     if (PREV_BANK != 0)
                          M         movlb   0
                          M PREV_BANK = 0
                          M     endif
                          M 
                          M     ifdef USE_LINKER
                          M         call    SEROUT
                          M     else
                          M       if ((SEROUT) < 1)
                          M         call    SEROUT
                          M       else
                          M         if ((SEROUT) > $)
                          M         call    SEROUT
                          M         else
                          M           if ((SEROUT) < ($ - 3ffh))
                          M         call    SEROUT
                          M           else
000364 DE4F               M         rcall   SEROUT
                          M           endif
                          M         endif
                          M       endif
MPASM 5.75  MPU-5X RECEIVER MOMENTARY MODE-1   4-2-2018  15:19:27         PAGE 112


LOC  OBJECT CODE     LINE SOURCE TEXT
  VALUE

                          M     endif
                      00659         SEROUT?C        047h
000366 0E47               M         movlw   047h
                          M         L?CALL  SEROUT
                          M         RST?RP
                          M     if (PREV_ALT != 0)
                          M         bcf     WDTCON, ADSHR
                          M PREV_ALT = 0
                          M     endif
                          M     if (PREV_BANK != 0)
                          M         movlb   0
                          M PREV_BANK = 0
                          M     endif
                          M 
                          M     ifdef USE_LINKER
                          M         call    SEROUT
                          M     else
                          M       if ((SEROUT) < 1)
                          M         call    SEROUT
                          M       else
                          M         if ((SEROUT) > $)
                          M         call    SEROUT
                          M         else
                          M           if ((SEROUT) < ($ - 3ffh))
                          M         call    SEROUT
                          M           else
000368 DE4D               M         rcall   SEROUT
                          M           endif
                          M         endif
                          M       endif
                          M     endif
                      00660         SEROUT?C        052h
00036A 0E52               M         movlw   052h
                          M         L?CALL  SEROUT
                          M         RST?RP
                          M     if (PREV_ALT != 0)
                          M         bcf     WDTCON, ADSHR
                          M PREV_ALT = 0
                          M     endif
                          M     if (PREV_BANK != 0)
                          M         movlb   0
                          M PREV_BANK = 0
                          M     endif
                          M 
                          M     ifdef USE_LINKER
                          M         call    SEROUT
                          M     else
                          M       if ((SEROUT) < 1)
                          M         call    SEROUT
                          M       else
                          M         if ((SEROUT) > $)
                          M         call    SEROUT
                          M         else
MPASM 5.75  MPU-5X RECEIVER MOMENTARY MODE-1   4-2-2018  15:19:27         PAGE 113


LOC  OBJECT CODE     LINE SOURCE TEXT
  VALUE

                          M           if ((SEROUT) < ($ - 3ffh))
                          M         call    SEROUT
                          M           else
00036C DE4B               M         rcall   SEROUT
                          M           endif
                          M         endif
                          M       endif
                          M     endif
                      00661         SEROUT?C        041h
00036E 0E41               M         movlw   041h
                          M         L?CALL  SEROUT
                          M         RST?RP
                          M     if (PREV_ALT != 0)
                          M         bcf     WDTCON, ADSHR
                          M PREV_ALT = 0
                          M     endif
                          M     if (PREV_BANK != 0)
                          M         movlb   0
                          M PREV_BANK = 0
                          M     endif
                          M 
                          M     ifdef USE_LINKER
                          M         call    SEROUT
                          M     else
                          M       if ((SEROUT) < 1)
                          M         call    SEROUT
                          M       else
                          M         if ((SEROUT) > $)
                          M         call    SEROUT
                          M         else
                          M           if ((SEROUT) < ($ - 3ffh))
                          M         call    SEROUT
                          M           else
000370 DE49               M         rcall   SEROUT
                          M           endif
                          M         endif
                          M       endif
                          M     endif
                      00662         SEROUT?C        04Dh
000372 0E4D               M         movlw   04Dh
                          M         L?CALL  SEROUT
                          M         RST?RP
                          M     if (PREV_ALT != 0)
                          M         bcf     WDTCON, ADSHR
                          M PREV_ALT = 0
                          M     endif
                          M     if (PREV_BANK != 0)
                          M         movlb   0
                          M PREV_BANK = 0
                          M     endif
                          M 
                          M     ifdef USE_LINKER
                          M         call    SEROUT
MPASM 5.75  MPU-5X RECEIVER MOMENTARY MODE-1   4-2-2018  15:19:27         PAGE 114


LOC  OBJECT CODE     LINE SOURCE TEXT
  VALUE

                          M     else
                          M       if ((SEROUT) < 1)
                          M         call    SEROUT
                          M       else
                          M         if ((SEROUT) > $)
                          M         call    SEROUT
                          M         else
                          M           if ((SEROUT) < ($ - 3ffh))
                          M         call    SEROUT
                          M           else
000374 DE47               M         rcall   SEROUT
                          M           endif
                          M         endif
                          M       endif
                          M     endif
                      00663         SEROUT?C        04Dh
000376 0E4D               M         movlw   04Dh
                          M         L?CALL  SEROUT
                          M         RST?RP
                          M     if (PREV_ALT != 0)
                          M         bcf     WDTCON, ADSHR
                          M PREV_ALT = 0
                          M     endif
                          M     if (PREV_BANK != 0)
                          M         movlb   0
                          M PREV_BANK = 0
                          M     endif
                          M 
                          M     ifdef USE_LINKER
                          M         call    SEROUT
                          M     else
                          M       if ((SEROUT) < 1)
                          M         call    SEROUT
                          M       else
                          M         if ((SEROUT) > $)
                          M         call    SEROUT
                          M         else
                          M           if ((SEROUT) < ($ - 3ffh))
                          M         call    SEROUT
                          M           else
000378 DE45               M         rcall   SEROUT
                          M           endif
                          M         endif
                          M       endif
                          M     endif
                      00664         SEROUT?C        049h
00037A 0E49               M         movlw   049h
                          M         L?CALL  SEROUT
                          M         RST?RP
                          M     if (PREV_ALT != 0)
                          M         bcf     WDTCON, ADSHR
                          M PREV_ALT = 0
                          M     endif
MPASM 5.75  MPU-5X RECEIVER MOMENTARY MODE-1   4-2-2018  15:19:27         PAGE 115


LOC  OBJECT CODE     LINE SOURCE TEXT
  VALUE

                          M     if (PREV_BANK != 0)
                          M         movlb   0
                          M PREV_BANK = 0
                          M     endif
                          M 
                          M     ifdef USE_LINKER
                          M         call    SEROUT
                          M     else
                          M       if ((SEROUT) < 1)
                          M         call    SEROUT
                          M       else
                          M         if ((SEROUT) > $)
                          M         call    SEROUT
                          M         else
                          M           if ((SEROUT) < ($ - 3ffh))
                          M         call    SEROUT
                          M           else
00037C DE43               M         rcall   SEROUT
                          M           endif
                          M         endif
                          M       endif
                          M     endif
                      00665         SEROUT?C        04Eh
00037E 0E4E               M         movlw   04Eh
                          M         L?CALL  SEROUT
                          M         RST?RP
                          M     if (PREV_ALT != 0)
                          M         bcf     WDTCON, ADSHR
                          M PREV_ALT = 0
                          M     endif
                          M     if (PREV_BANK != 0)
                          M         movlb   0
                          M PREV_BANK = 0
                          M     endif
                          M 
                          M     ifdef USE_LINKER
                          M         call    SEROUT
                          M     else
                          M       if ((SEROUT) < 1)
                          M         call    SEROUT
                          M       else
                          M         if ((SEROUT) > $)
                          M         call    SEROUT
                          M         else
                          M           if ((SEROUT) < ($ - 3ffh))
                          M         call    SEROUT
                          M           else
000380 DE41               M         rcall   SEROUT
                          M           endif
                          M         endif
                          M       endif
                          M     endif
                      00666         SEROUT?C        047h
MPASM 5.75  MPU-5X RECEIVER MOMENTARY MODE-1   4-2-2018  15:19:27         PAGE 116


LOC  OBJECT CODE     LINE SOURCE TEXT
  VALUE

000382 0E47               M         movlw   047h
                          M         L?CALL  SEROUT
                          M         RST?RP
                          M     if (PREV_ALT != 0)
                          M         bcf     WDTCON, ADSHR
                          M PREV_ALT = 0
                          M     endif
                          M     if (PREV_BANK != 0)
                          M         movlb   0
                          M PREV_BANK = 0
                          M     endif
                          M 
                          M     ifdef USE_LINKER
                          M         call    SEROUT
                          M     else
                          M       if ((SEROUT) < 1)
                          M         call    SEROUT
                          M       else
                          M         if ((SEROUT) > $)
                          M         call    SEROUT
                          M         else
                          M           if ((SEROUT) < ($ - 3ffh))
                          M         call    SEROUT
                          M           else
000384 DE3F               M         rcall   SEROUT
                          M           endif
                          M         endif
                          M       endif
                          M     endif
                      00667         SEROUT?C        020h
000386 0E20               M         movlw   020h
                          M         L?CALL  SEROUT
                          M         RST?RP
                          M     if (PREV_ALT != 0)
                          M         bcf     WDTCON, ADSHR
                          M PREV_ALT = 0
                          M     endif
                          M     if (PREV_BANK != 0)
                          M         movlb   0
                          M PREV_BANK = 0
                          M     endif
                          M 
                          M     ifdef USE_LINKER
                          M         call    SEROUT
                          M     else
                          M       if ((SEROUT) < 1)
                          M         call    SEROUT
                          M       else
                          M         if ((SEROUT) > $)
                          M         call    SEROUT
                          M         else
                          M           if ((SEROUT) < ($ - 3ffh))
                          M         call    SEROUT
MPASM 5.75  MPU-5X RECEIVER MOMENTARY MODE-1   4-2-2018  15:19:27         PAGE 117


LOC  OBJECT CODE     LINE SOURCE TEXT
  VALUE

                          M           else
000388 DE3D               M         rcall   SEROUT
                          M           endif
                          M         endif
                          M       endif
                          M     endif
                      00668         SEROUT?C        052h
00038A 0E52               M         movlw   052h
                          M         L?CALL  SEROUT
                          M         RST?RP
                          M     if (PREV_ALT != 0)
                          M         bcf     WDTCON, ADSHR
                          M PREV_ALT = 0
                          M     endif
                          M     if (PREV_BANK != 0)
                          M         movlb   0
                          M PREV_BANK = 0
                          M     endif
                          M 
                          M     ifdef USE_LINKER
                          M         call    SEROUT
                          M     else
                          M       if ((SEROUT) < 1)
                          M         call    SEROUT
                          M       else
                          M         if ((SEROUT) > $)
                          M         call    SEROUT
                          M         else
                          M           if ((SEROUT) < ($ - 3ffh))
                          M         call    SEROUT
                          M           else
00038C DE3B               M         rcall   SEROUT
                          M           endif
                          M         endif
                          M       endif
                          M     endif
                      00669         SEROUT?C        065h
00038E 0E65               M         movlw   065h
                          M         L?CALL  SEROUT
                          M         RST?RP
                          M     if (PREV_ALT != 0)
                          M         bcf     WDTCON, ADSHR
                          M PREV_ALT = 0
                          M     endif
                          M     if (PREV_BANK != 0)
                          M         movlb   0
                          M PREV_BANK = 0
                          M     endif
                          M 
                          M     ifdef USE_LINKER
                          M         call    SEROUT
                          M     else
                          M       if ((SEROUT) < 1)
MPASM 5.75  MPU-5X RECEIVER MOMENTARY MODE-1   4-2-2018  15:19:27         PAGE 118


LOC  OBJECT CODE     LINE SOURCE TEXT
  VALUE

                          M         call    SEROUT
                          M       else
                          M         if ((SEROUT) > $)
                          M         call    SEROUT
                          M         else
                          M           if ((SEROUT) < ($ - 3ffh))
                          M         call    SEROUT
                          M           else
000390 DE39               M         rcall   SEROUT
                          M           endif
                          M         endif
                          M       endif
                          M     endif
                      00670         SEROUT?C        063h
000392 0E63               M         movlw   063h
                          M         L?CALL  SEROUT
                          M         RST?RP
                          M     if (PREV_ALT != 0)
                          M         bcf     WDTCON, ADSHR
                          M PREV_ALT = 0
                          M     endif
                          M     if (PREV_BANK != 0)
                          M         movlb   0
                          M PREV_BANK = 0
                          M     endif
                          M 
                          M     ifdef USE_LINKER
                          M         call    SEROUT
                          M     else
                          M       if ((SEROUT) < 1)
                          M         call    SEROUT
                          M       else
                          M         if ((SEROUT) > $)
                          M         call    SEROUT
                          M         else
                          M           if ((SEROUT) < ($ - 3ffh))
                          M         call    SEROUT
                          M           else
000394 DE37               M         rcall   SEROUT
                          M           endif
                          M         endif
                          M       endif
                          M     endif
                      00671         SEROUT?C        065h
000396 0E65               M         movlw   065h
                          M         L?CALL  SEROUT
                          M         RST?RP
                          M     if (PREV_ALT != 0)
                          M         bcf     WDTCON, ADSHR
                          M PREV_ALT = 0
                          M     endif
                          M     if (PREV_BANK != 0)
                          M         movlb   0
MPASM 5.75  MPU-5X RECEIVER MOMENTARY MODE-1   4-2-2018  15:19:27         PAGE 119


LOC  OBJECT CODE     LINE SOURCE TEXT
  VALUE

                          M PREV_BANK = 0
                          M     endif
                          M 
                          M     ifdef USE_LINKER
                          M         call    SEROUT
                          M     else
                          M       if ((SEROUT) < 1)
                          M         call    SEROUT
                          M       else
                          M         if ((SEROUT) > $)
                          M         call    SEROUT
                          M         else
                          M           if ((SEROUT) < ($ - 3ffh))
                          M         call    SEROUT
                          M           else
000398 DE35               M         rcall   SEROUT
                          M           endif
                          M         endif
                          M       endif
                          M     endif
                      00672         SEROUT?C        069h
00039A 0E69               M         movlw   069h
                          M         L?CALL  SEROUT
                          M         RST?RP
                          M     if (PREV_ALT != 0)
                          M         bcf     WDTCON, ADSHR
                          M PREV_ALT = 0
                          M     endif
                          M     if (PREV_BANK != 0)
                          M         movlb   0
                          M PREV_BANK = 0
                          M     endif
                          M 
                          M     ifdef USE_LINKER
                          M         call    SEROUT
                          M     else
                          M       if ((SEROUT) < 1)
                          M         call    SEROUT
                          M       else
                          M         if ((SEROUT) > $)
                          M         call    SEROUT
                          M         else
                          M           if ((SEROUT) < ($ - 3ffh))
                          M         call    SEROUT
                          M           else
00039C DE33               M         rcall   SEROUT
                          M           endif
                          M         endif
                          M       endif
                          M     endif
                      00673         SEROUT?C        076h
00039E 0E76               M         movlw   076h
                          M         L?CALL  SEROUT
MPASM 5.75  MPU-5X RECEIVER MOMENTARY MODE-1   4-2-2018  15:19:27         PAGE 120


LOC  OBJECT CODE     LINE SOURCE TEXT
  VALUE

                          M         RST?RP
                          M     if (PREV_ALT != 0)
                          M         bcf     WDTCON, ADSHR
                          M PREV_ALT = 0
                          M     endif
                          M     if (PREV_BANK != 0)
                          M         movlb   0
                          M PREV_BANK = 0
                          M     endif
                          M 
                          M     ifdef USE_LINKER
                          M         call    SEROUT
                          M     else
                          M       if ((SEROUT) < 1)
                          M         call    SEROUT
                          M       else
                          M         if ((SEROUT) > $)
                          M         call    SEROUT
                          M         else
                          M           if ((SEROUT) < ($ - 3ffh))
                          M         call    SEROUT
                          M           else
0003A0 DE31               M         rcall   SEROUT
                          M           endif
                          M         endif
                          M       endif
                          M     endif
                      00674         SEROUT?C        065h
0003A2 0E65               M         movlw   065h
                          M         L?CALL  SEROUT
                          M         RST?RP
                          M     if (PREV_ALT != 0)
                          M         bcf     WDTCON, ADSHR
                          M PREV_ALT = 0
                          M     endif
                          M     if (PREV_BANK != 0)
                          M         movlb   0
                          M PREV_BANK = 0
                          M     endif
                          M 
                          M     ifdef USE_LINKER
                          M         call    SEROUT
                          M     else
                          M       if ((SEROUT) < 1)
                          M         call    SEROUT
                          M       else
                          M         if ((SEROUT) > $)
                          M         call    SEROUT
                          M         else
                          M           if ((SEROUT) < ($ - 3ffh))
                          M         call    SEROUT
                          M           else
0003A4 DE2F               M         rcall   SEROUT
MPASM 5.75  MPU-5X RECEIVER MOMENTARY MODE-1   4-2-2018  15:19:27         PAGE 121


LOC  OBJECT CODE     LINE SOURCE TEXT
  VALUE

                          M           endif
                          M         endif
                          M       endif
                          M     endif
                      00675         SEROUT?C        072h
0003A6 0E72               M         movlw   072h
                          M         L?CALL  SEROUT
                          M         RST?RP
                          M     if (PREV_ALT != 0)
                          M         bcf     WDTCON, ADSHR
                          M PREV_ALT = 0
                          M     endif
                          M     if (PREV_BANK != 0)
                          M         movlb   0
                          M PREV_BANK = 0
                          M     endif
                          M 
                          M     ifdef USE_LINKER
                          M         call    SEROUT
                          M     else
                          M       if ((SEROUT) < 1)
                          M         call    SEROUT
                          M       else
                          M         if ((SEROUT) > $)
                          M         call    SEROUT
                          M         else
                          M           if ((SEROUT) < ($ - 3ffh))
                          M         call    SEROUT
                          M           else
0003A8 DE2D               M         rcall   SEROUT
                          M           endif
                          M         endif
                          M       endif
                          M     endif
                      00676 
                      00677 ; C:\USERS\ANDREW MCENTEE\DOCUMENTS\NTH SOLUTIONS\URICCHIO\PBP3\MPU-5X RECEIVER MOMENTARY MODE-1.PBP    
                            00198       SCK = 0
                      00678         MOVE?CT 000h, _SCK
                          M         CHK?RP  PORTC
                          M     if (((PORTC) & 8000h) != PREV_ALT)
                          M       if ((PORTC) & 8000h)
                          M         bsf     WDTCON, ADSHR
                          M       else
                          M         bcf     WDTCON, ADSHR
                          M       endif
                          M PREV_ALT = (PORTC) & 8000h
                          M     endif
                          M     if ((((PORTC) & 0fffh) > BANKA_END) & (((PORTC) & 0fffh) < (0f01h + BANKA_END)))
                          M       if (((PORTC) & 0f00h) != (PREV_BANK << 8))
                          M         movlb   high (PORTC)
                          M PREV_BANK = high (PORTC)
                          M       endif
                          M     endif
MPASM 5.75  MPU-5X RECEIVER MOMENTARY MODE-1   4-2-2018  15:19:27         PAGE 122


LOC  OBJECT CODE     LINE SOURCE TEXT
  VALUE

                          M     if (((000h) & 1) == 1)
                          M         bsf     PORTC,  003h
                          M     else
0003AA 9682               M         bcf     PORTC,  003h
                          M     endif
                      00679 
                      00680 ; C:\USERS\ANDREW MCENTEE\DOCUMENTS\NTH SOLUTIONS\URICCHIO\PBP3\MPU-5X RECEIVER MOMENTARY MODE-1.PBP    
                            00200       OUTPUT RCVR_VT
                      00681         OUTPUT?T        _RCVR_VT
                          M         MOVE?CT 0, ((PORTC) + 12h), 006h
                          M         CHK?RP  ((PORTC) + 12h)
                          M     if (((((PORTC) + 12h)) & 8000h) != PREV_ALT)
                          M       if ((((PORTC) + 12h)) & 8000h)
                          M         bsf     WDTCON, ADSHR
                          M       else
                          M         bcf     WDTCON, ADSHR
                          M       endif
                          M PREV_ALT = (((PORTC) + 12h)) & 8000h
                          M     endif
                          M     if ((((((PORTC) + 12h)) & 0fffh) > BANKA_END) & (((((PORTC) + 12h)) & 0fffh) < (0f01h + BANKA_END)))
                          M       if (((((PORTC) + 12h)) & 0f00h) != (PREV_BANK << 8))
                          M         movlb   high (((PORTC) + 12h))
                          M PREV_BANK = high (((PORTC) + 12h))
                          M       endif
                          M     endif
                          M     if (((0)   & 1) == 1)
                          M         bsf     ((PORTC) + 12h), 006h
                          M     else
0003AC 9C94               M         bcf     ((PORTC) + 12h), 006h
                          M     endif
                      00682 
                      00683 ; C:\USERS\ANDREW MCENTEE\DOCUMENTS\NTH SOLUTIONS\URICCHIO\PBP3\MPU-5X RECEIVER MOMENTARY MODE-1.PBP    
                            00201       RCVR_VT = 1
                      00684         MOVE?CT 001h, _RCVR_VT
                          M         CHK?RP  PORTC
                          M     if (((PORTC) & 8000h) != PREV_ALT)
                          M       if ((PORTC) & 8000h)
                          M         bsf     WDTCON, ADSHR
                          M       else
                          M         bcf     WDTCON, ADSHR
                          M       endif
                          M PREV_ALT = (PORTC) & 8000h
                          M     endif
                          M     if ((((PORTC) & 0fffh) > BANKA_END) & (((PORTC) & 0fffh) < (0f01h + BANKA_END)))
                          M       if (((PORTC) & 0f00h) != (PREV_BANK << 8))
                          M         movlb   high (PORTC)
                          M PREV_BANK = high (PORTC)
                          M       endif
                          M     endif
                          M     if (((001h) & 1) == 1)
0003AE 8C82               M         bsf     PORTC,  006h
                          M     else
                          M         bcf     PORTC,  006h
MPASM 5.75  MPU-5X RECEIVER MOMENTARY MODE-1   4-2-2018  15:19:27         PAGE 123


LOC  OBJECT CODE     LINE SOURCE TEXT
  VALUE

                          M     endif
                      00685 
                      00686 ; C:\USERS\ANDREW MCENTEE\DOCUMENTS\NTH SOLUTIONS\URICCHIO\PBP3\MPU-5X RECEIVER MOMENTARY MODE-1.PBP    
                            00202       PAUSE SW_ON
                      00687         PAUSE?W _SW_ON
                          M         MOVE?WWA _SW_ON, R1
                          M         MOVE?BB (_SW_ON) + 1, (R1) + 1
0003B0 C01D F005          M         movff   (_SW_ON) + 1, (R1) + 1
                          M         MOVE?BA _SW_ON
                          M         CHK?RP  _SW_ON
                          M     if (((_SW_ON) & 8000h) != PREV_ALT)
                          M       if ((_SW_ON) & 8000h)
                          M         bsf     WDTCON, ADSHR
                          M       else
                          M         bcf     WDTCON, ADSHR
                          M       endif
                          M PREV_ALT = (_SW_ON) & 8000h
                          M     endif
                          M     if ((((_SW_ON) & 0fffh) > BANKA_END) & (((_SW_ON) & 0fffh) < (0f01h + BANKA_END)))
                          M       if (((_SW_ON) & 0f00h) != (PREV_BANK << 8))
                          M         movlb   high (_SW_ON)
                          M PREV_BANK = high (_SW_ON)
                          M       endif
                          M     endif
0003B4 501C               M         movf    _SW_ON, W
                          M         L?CALL  PAUSEL
                          M         RST?RP
                          M     if (PREV_ALT != 0)
                          M         bcf     WDTCON, ADSHR
                          M PREV_ALT = 0
                          M     endif
                          M     if (PREV_BANK != 0)
                          M         movlb   0
                          M PREV_BANK = 0
                          M     endif
                          M 
                          M     ifdef USE_LINKER
                          M         call    PAUSEL
                          M     else
                          M       if ((PAUSEL) < 1)
                          M         call    PAUSEL
                          M       else
                          M         if ((PAUSEL) > $)
                          M         call    PAUSEL
                          M         else
                          M           if ((PAUSEL) < ($ - 3ffh))
                          M         call    PAUSEL
                          M           else
0003B6 DE66               M         rcall   PAUSEL
                          M           endif
                          M         endif
                          M       endif
                          M     endif
MPASM 5.75  MPU-5X RECEIVER MOMENTARY MODE-1   4-2-2018  15:19:27         PAGE 124


LOC  OBJECT CODE     LINE SOURCE TEXT
  VALUE

                      00688 
                      00689 ; C:\USERS\ANDREW MCENTEE\DOCUMENTS\NTH SOLUTIONS\URICCHIO\PBP3\MPU-5X RECEIVER MOMENTARY MODE-1.PBP    
                            00203       INPUT RCVR_VT
                      00690         INPUT?T _RCVR_VT
                          M         MOVE?CT 1, ((PORTC) + 12h), 006h
                          M         CHK?RP  ((PORTC) + 12h)
                          M     if (((((PORTC) + 12h)) & 8000h) != PREV_ALT)
                          M       if ((((PORTC) + 12h)) & 8000h)
                          M         bsf     WDTCON, ADSHR
                          M       else
                          M         bcf     WDTCON, ADSHR
                          M       endif
                          M PREV_ALT = (((PORTC) + 12h)) & 8000h
                          M     endif
                          M     if ((((((PORTC) + 12h)) & 0fffh) > BANKA_END) & (((((PORTC) + 12h)) & 0fffh) < (0f01h + BANKA_END)))
                          M       if (((((PORTC) + 12h)) & 0f00h) != (PREV_BANK << 8))
                          M         movlb   high (((PORTC) + 12h))
                          M PREV_BANK = high (((PORTC) + 12h))
                          M       endif
                          M     endif
                          M     if (((1)   & 1) == 1)
0003B8 8C94               M         bsf     ((PORTC) + 12h), 006h
                          M     else
                          M         bcf     ((PORTC) + 12h), 006h
                          M     endif
                      00691 
                      00692 ; C:\USERS\ANDREW MCENTEE\DOCUMENTS\NTH SOLUTIONS\URICCHIO\PBP3\MPU-5X RECEIVER MOMENTARY MODE-1.PBP    
                            00204       PAUSE SW_OFF
                      00693         PAUSE?W _SW_OFF
                          M         MOVE?WWA _SW_OFF, R1
                          M         MOVE?BB (_SW_OFF) + 1, (R1) + 1
0003BA C01B F005          M         movff   (_SW_OFF) + 1, (R1) + 1
                          M         MOVE?BA _SW_OFF
                          M         CHK?RP  _SW_OFF
                          M     if (((_SW_OFF) & 8000h) != PREV_ALT)
                          M       if ((_SW_OFF) & 8000h)
                          M         bsf     WDTCON, ADSHR
                          M       else
                          M         bcf     WDTCON, ADSHR
                          M       endif
                          M PREV_ALT = (_SW_OFF) & 8000h
                          M     endif
                          M     if ((((_SW_OFF) & 0fffh) > BANKA_END) & (((_SW_OFF) & 0fffh) < (0f01h + BANKA_END)))
                          M       if (((_SW_OFF) & 0f00h) != (PREV_BANK << 8))
                          M         movlb   high (_SW_OFF)
                          M PREV_BANK = high (_SW_OFF)
                          M       endif
                          M     endif
0003BE 501A               M         movf    _SW_OFF, W
                          M         L?CALL  PAUSEL
                          M         RST?RP
                          M     if (PREV_ALT != 0)
                          M         bcf     WDTCON, ADSHR
MPASM 5.75  MPU-5X RECEIVER MOMENTARY MODE-1   4-2-2018  15:19:27         PAGE 125


LOC  OBJECT CODE     LINE SOURCE TEXT
  VALUE

                          M PREV_ALT = 0
                          M     endif
                          M     if (PREV_BANK != 0)
                          M         movlb   0
                          M PREV_BANK = 0
                          M     endif
                          M 
                          M     ifdef USE_LINKER
                          M         call    PAUSEL
                          M     else
                          M       if ((PAUSEL) < 1)
                          M         call    PAUSEL
                          M       else
                          M         if ((PAUSEL) > $)
                          M         call    PAUSEL
                          M         else
                          M           if ((PAUSEL) < ($ - 3ffh))
                          M         call    PAUSEL
                          M           else
0003C0 DE61               M         rcall   PAUSEL
                          M           endif
                          M         endif
                          M       endif
                          M     endif
                      00694 
                      00695 ; C:\USERS\ANDREW MCENTEE\DOCUMENTS\NTH SOLUTIONS\URICCHIO\PBP3\MPU-5X RECEIVER MOMENTARY MODE-1.PBP    
                            00207   ERASE_COMPLETE:
                      00696 
                      00697         LABEL?L _ERASE_COMPLETE 
                          M         RST?RP
                          M     if (PREV_ALT != 0)
                          M         bcf     WDTCON, ADSHR
                          M PREV_ALT = 0
                          M     endif
                          M     if (PREV_BANK != 0)
                          M         movlb   0
                          M PREV_BANK = 0
                          M     endif
                          M     ifdef PM_USED
                          M         LALL
                          M _ERASE_COMPLETE
                          M         XALL
                          M     else
0003C2                    M _ERASE_COMPLETE
                          M     endif
                      00698 
                      00699 ; C:\USERS\ANDREW MCENTEE\DOCUMENTS\NTH SOLUTIONS\URICCHIO\PBP3\MPU-5X RECEIVER MOMENTARY MODE-1.PBP    
                            00208       RED_LED = 0
                      00700         MOVE?CT 000h, _RED_LED
                          M         CHK?RP  PORTA
                          M     if (((PORTA) & 8000h) != PREV_ALT)
                          M       if ((PORTA) & 8000h)
                          M         bsf     WDTCON, ADSHR
MPASM 5.75  MPU-5X RECEIVER MOMENTARY MODE-1   4-2-2018  15:19:27         PAGE 126


LOC  OBJECT CODE     LINE SOURCE TEXT
  VALUE

                          M       else
                          M         bcf     WDTCON, ADSHR
                          M       endif
                          M PREV_ALT = (PORTA) & 8000h
                          M     endif
                          M     if ((((PORTA) & 0fffh) > BANKA_END) & (((PORTA) & 0fffh) < (0f01h + BANKA_END)))
                          M       if (((PORTA) & 0f00h) != (PREV_BANK << 8))
                          M         movlb   high (PORTA)
                          M PREV_BANK = high (PORTA)
                          M       endif
                          M     endif
                          M     if (((000h) & 1) == 1)
                          M         bsf     PORTA,  001h
                          M     else
0003C2 9280               M         bcf     PORTA,  001h
                          M     endif
                      00701 
                      00702 ; C:\USERS\ANDREW MCENTEE\DOCUMENTS\NTH SOLUTIONS\URICCHIO\PBP3\MPU-5X RECEIVER MOMENTARY MODE-1.PBP    
                            00209       BLUE_LED = 1
                      00703         MOVE?CT 001h, _BLUE_LED
                          M         CHK?RP  PORTA
                          M     if (((PORTA) & 8000h) != PREV_ALT)
                          M       if ((PORTA) & 8000h)
                          M         bsf     WDTCON, ADSHR
                          M       else
                          M         bcf     WDTCON, ADSHR
                          M       endif
                          M PREV_ALT = (PORTA) & 8000h
                          M     endif
                          M     if ((((PORTA) & 0fffh) > BANKA_END) & (((PORTA) & 0fffh) < (0f01h + BANKA_END)))
                          M       if (((PORTA) & 0f00h) != (PREV_BANK << 8))
                          M         movlb   high (PORTA)
                          M PREV_BANK = high (PORTA)
                          M       endif
                          M     endif
                          M     if (((001h) & 1) == 1)
0003C4 8080               M         bsf     PORTA,  000h
                          M     else
                          M         bcf     PORTA,  000h
                          M     endif
                      00704 
                      00705 ; C:\USERS\ANDREW MCENTEE\DOCUMENTS\NTH SOLUTIONS\URICCHIO\PBP3\MPU-5X RECEIVER MOMENTARY MODE-1.PBP    
                            00210       SerOut ADO, N9600, [CLRLCD]:PAUSE 10
                      00706         SERPIN?T        _ADO
                          M         BIT?R1  PORTA, 003h
0003C6 0E80               M         movlw   low ((PORTA) + ((003h)  >> 3))
                          M         CHK?RP  RR1
                          M     if (((RR1)   & 8000h) != PREV_ALT)
                          M       if ((RR1)   & 8000h)
                          M         bsf     WDTCON, ADSHR
                          M       else
                          M         bcf     WDTCON, ADSHR
                          M       endif
MPASM 5.75  MPU-5X RECEIVER MOMENTARY MODE-1   4-2-2018  15:19:27         PAGE 127


LOC  OBJECT CODE     LINE SOURCE TEXT
  VALUE

                          M PREV_ALT = (RR1)   & 8000h
                          M     endif
                          M     if ((((RR1)   & 0fffh) > BANKA_END) & (((RR1)   & 0fffh) < (0f01h + BANKA_END)))
                          M       if (((RR1)   & 0f00h) != (PREV_BANK << 8))
                          M         movlb   high (RR1)
                          M PREV_BANK = high (RR1)
                          M       endif
                          M     endif
0003C8 6E16               M         movwf   RR1
0003CA 0E0F               M         movlw   high ((PORTA) + ((003h)  >> 3))
0003CC 6E18               M         movwf   RS1
                          M         BIT?W   003h
                          M     if (((003h)  & 7) == 0)
                          M         movlw   01h
                          M     endif
                          M     if (((003h)  & 7) == 1)
                          M         movlw   02h
                          M     endif
                          M     if (((003h)  & 7) == 2)
                          M         movlw   04h
                          M     endif
                          M     if (((003h)  & 7) == 3)
0003CE 0E08               M         movlw   08h
                          M     endif
                          M     if (((003h)  & 7) == 4)
                          M         movlw   10h
                          M     endif
                          M     if (((003h)  & 7) == 5)
                          M         movlw   20h
                          M     endif
                          M     if (((003h)  & 7) == 6)
                          M         movlw   40h
                          M     endif
                          M     if (((003h)  & 7) == 7)
                          M         movlw   80h
                          M     endif
0003D0 6E14               M         movwf   RM1
                      00707         SERMODE?C       _N9600
                          M         MOVE?CB _N9600, GOP
                          M         CHK?RP  GOP
                          M     if (((GOP)   & 8000h) != PREV_ALT)
                          M       if ((GOP)   & 8000h)
                          M         bsf     WDTCON, ADSHR
                          M       else
                          M         bcf     WDTCON, ADSHR
                          M       endif
                          M PREV_ALT = (GOP)   & 8000h
                          M     endif
                          M     if ((((GOP)   & 0fffh) > BANKA_END) & (((GOP)   & 0fffh) < (0f01h + BANKA_END)))
                          M       if (((GOP)   & 0f00h) != (PREV_BANK << 8))
                          M         movlb   high (GOP)
                          M PREV_BANK = high (GOP)
                          M       endif
MPASM 5.75  MPU-5X RECEIVER MOMENTARY MODE-1   4-2-2018  15:19:27         PAGE 128


LOC  OBJECT CODE     LINE SOURCE TEXT
  VALUE

                          M     endif
                          M     if (low (_N9600) == 0)
                          M         clrf    GOP
                          M     else
                          M       if (low (_N9600) == 255)
                          M         setf    GOP
                          M       else
0003D2 0E06               M         movlw   low (_N9600)
0003D4 6E01               M         movwf   GOP
                          M       endif
                          M     endif
                      00708         SEROUT?C        _CLRLCD
0003D6 0E0C               M         movlw   _CLRLCD
                          M         L?CALL  SEROUT
                          M         RST?RP
                          M     if (PREV_ALT != 0)
                          M         bcf     WDTCON, ADSHR
                          M PREV_ALT = 0
                          M     endif
                          M     if (PREV_BANK != 0)
                          M         movlb   0
                          M PREV_BANK = 0
                          M     endif
                          M 
                          M     ifdef USE_LINKER
                          M         call    SEROUT
                          M     else
                          M       if ((SEROUT) < 1)
                          M         call    SEROUT
                          M       else
                          M         if ((SEROUT) > $)
                          M         call    SEROUT
                          M         else
                          M           if ((SEROUT) < ($ - 3ffh))
                          M         call    SEROUT
                          M           else
0003D8 DE15               M         rcall   SEROUT
                          M           endif
                          M         endif
                          M       endif
                          M     endif
                      00709 
                      00710 ; C:\USERS\ANDREW MCENTEE\DOCUMENTS\NTH SOLUTIONS\URICCHIO\PBP3\MPU-5X RECEIVER MOMENTARY MODE-1.PBP    
                            00210       SerOut ADO, N9600, [CLRLCD]:PAUSE 10
                      00711         PAUSE?C 00Ah
                          M     if (((00Ah) >> 8) == 0)
                          M         MOVE?CA 00Ah
0003DA 0E0A               M         movlw   low (00Ah)
                          M         L?CALL  PAUSE
                          M         RST?RP
                          M     if (PREV_ALT != 0)
                          M         bcf     WDTCON, ADSHR
                          M PREV_ALT = 0
MPASM 5.75  MPU-5X RECEIVER MOMENTARY MODE-1   4-2-2018  15:19:27         PAGE 129


LOC  OBJECT CODE     LINE SOURCE TEXT
  VALUE

                          M     endif
                          M     if (PREV_BANK != 0)
                          M         movlb   0
                          M PREV_BANK = 0
                          M     endif
                          M 
                          M     ifdef USE_LINKER
                          M         call    PAUSE
                          M     else
                          M       if ((PAUSE) < 1)
                          M         call    PAUSE
                          M       else
                          M         if ((PAUSE) > $)
                          M         call    PAUSE
                          M         else
                          M           if ((PAUSE) < ($ - 3ffh))
                          M         call    PAUSE
                          M           else
0003DC DE52               M         rcall   PAUSE
                          M           endif
                          M         endif
                          M       endif
                          M     endif
                          M     else
                          M         MOVE?CB (00Ah) >> 8, R1 + 1
                          M         MOVE?CA low (00Ah)
                          M         L?CALL  PAUSEL
                          M     endif
                      00712 
                      00713 ; C:\USERS\ANDREW MCENTEE\DOCUMENTS\NTH SOLUTIONS\URICCHIO\PBP3\MPU-5X RECEIVER MOMENTARY MODE-1.PBP    
                            00211       serout ADO, N9600, [POSCMD,LINE1,"Waiting for XMTR"]
                      00714         SERPIN?T        _ADO
                          M         BIT?R1  PORTA, 003h
0003DE 0E80               M         movlw   low ((PORTA) + ((003h)  >> 3))
                          M         CHK?RP  RR1
                          M     if (((RR1)   & 8000h) != PREV_ALT)
                          M       if ((RR1)   & 8000h)
                          M         bsf     WDTCON, ADSHR
                          M       else
                          M         bcf     WDTCON, ADSHR
                          M       endif
                          M PREV_ALT = (RR1)   & 8000h
                          M     endif
                          M     if ((((RR1)   & 0fffh) > BANKA_END) & (((RR1)   & 0fffh) < (0f01h + BANKA_END)))
                          M       if (((RR1)   & 0f00h) != (PREV_BANK << 8))
                          M         movlb   high (RR1)
                          M PREV_BANK = high (RR1)
                          M       endif
                          M     endif
0003E0 6E16               M         movwf   RR1
0003E2 0E0F               M         movlw   high ((PORTA) + ((003h)  >> 3))
0003E4 6E18               M         movwf   RS1
                          M         BIT?W   003h
MPASM 5.75  MPU-5X RECEIVER MOMENTARY MODE-1   4-2-2018  15:19:27         PAGE 130


LOC  OBJECT CODE     LINE SOURCE TEXT
  VALUE

                          M     if (((003h)  & 7) == 0)
                          M         movlw   01h
                          M     endif
                          M     if (((003h)  & 7) == 1)
                          M         movlw   02h
                          M     endif
                          M     if (((003h)  & 7) == 2)
                          M         movlw   04h
                          M     endif
                          M     if (((003h)  & 7) == 3)
0003E6 0E08               M         movlw   08h
                          M     endif
                          M     if (((003h)  & 7) == 4)
                          M         movlw   10h
                          M     endif
                          M     if (((003h)  & 7) == 5)
                          M         movlw   20h
                          M     endif
                          M     if (((003h)  & 7) == 6)
                          M         movlw   40h
                          M     endif
                          M     if (((003h)  & 7) == 7)
                          M         movlw   80h
                          M     endif
0003E8 6E14               M         movwf   RM1
                      00715         SERMODE?C       _N9600
                          M         MOVE?CB _N9600, GOP
                          M         CHK?RP  GOP
                          M     if (((GOP)   & 8000h) != PREV_ALT)
                          M       if ((GOP)   & 8000h)
                          M         bsf     WDTCON, ADSHR
                          M       else
                          M         bcf     WDTCON, ADSHR
                          M       endif
                          M PREV_ALT = (GOP)   & 8000h
                          M     endif
                          M     if ((((GOP)   & 0fffh) > BANKA_END) & (((GOP)   & 0fffh) < (0f01h + BANKA_END)))
                          M       if (((GOP)   & 0f00h) != (PREV_BANK << 8))
                          M         movlb   high (GOP)
                          M PREV_BANK = high (GOP)
                          M       endif
                          M     endif
                          M     if (low (_N9600) == 0)
                          M         clrf    GOP
                          M     else
                          M       if (low (_N9600) == 255)
                          M         setf    GOP
                          M       else
0003EA 0E06               M         movlw   low (_N9600)
0003EC 6E01               M         movwf   GOP
                          M       endif
                          M     endif
                      00716         SEROUT?C        _POSCMD
MPASM 5.75  MPU-5X RECEIVER MOMENTARY MODE-1   4-2-2018  15:19:27         PAGE 131


LOC  OBJECT CODE     LINE SOURCE TEXT
  VALUE

0003EE 0E10               M         movlw   _POSCMD
                          M         L?CALL  SEROUT
                          M         RST?RP
                          M     if (PREV_ALT != 0)
                          M         bcf     WDTCON, ADSHR
                          M PREV_ALT = 0
                          M     endif
                          M     if (PREV_BANK != 0)
                          M         movlb   0
                          M PREV_BANK = 0
                          M     endif
                          M 
                          M     ifdef USE_LINKER
                          M         call    SEROUT
                          M     else
                          M       if ((SEROUT) < 1)
                          M         call    SEROUT
                          M       else
                          M         if ((SEROUT) > $)
                          M         call    SEROUT
                          M         else
                          M           if ((SEROUT) < ($ - 3ffh))
                          M         call    SEROUT
                          M           else
0003F0 DE09               M         rcall   SEROUT
                          M           endif
                          M         endif
                          M       endif
                          M     endif
                      00717         SEROUT?C        _LINE1
0003F2 0E40               M         movlw   _LINE1
                          M         L?CALL  SEROUT
                          M         RST?RP
                          M     if (PREV_ALT != 0)
                          M         bcf     WDTCON, ADSHR
                          M PREV_ALT = 0
                          M     endif
                          M     if (PREV_BANK != 0)
                          M         movlb   0
                          M PREV_BANK = 0
                          M     endif
                          M 
                          M     ifdef USE_LINKER
                          M         call    SEROUT
                          M     else
                          M       if ((SEROUT) < 1)
                          M         call    SEROUT
                          M       else
                          M         if ((SEROUT) > $)
                          M         call    SEROUT
                          M         else
                          M           if ((SEROUT) < ($ - 3ffh))
                          M         call    SEROUT
MPASM 5.75  MPU-5X RECEIVER MOMENTARY MODE-1   4-2-2018  15:19:27         PAGE 132


LOC  OBJECT CODE     LINE SOURCE TEXT
  VALUE

                          M           else
0003F4 DE07               M         rcall   SEROUT
                          M           endif
                          M         endif
                          M       endif
                          M     endif
                      00718         SEROUT?C        057h
0003F6 0E57               M         movlw   057h
                          M         L?CALL  SEROUT
                          M         RST?RP
                          M     if (PREV_ALT != 0)
                          M         bcf     WDTCON, ADSHR
                          M PREV_ALT = 0
                          M     endif
                          M     if (PREV_BANK != 0)
                          M         movlb   0
                          M PREV_BANK = 0
                          M     endif
                          M 
                          M     ifdef USE_LINKER
                          M         call    SEROUT
                          M     else
                          M       if ((SEROUT) < 1)
                          M         call    SEROUT
                          M       else
                          M         if ((SEROUT) > $)
                          M         call    SEROUT
                          M         else
                          M           if ((SEROUT) < ($ - 3ffh))
                          M         call    SEROUT
                          M           else
0003F8 DE05               M         rcall   SEROUT
                          M           endif
                          M         endif
                          M       endif
                          M     endif
                      00719         SEROUT?C        061h
0003FA 0E61               M         movlw   061h
                          M         L?CALL  SEROUT
                          M         RST?RP
                          M     if (PREV_ALT != 0)
                          M         bcf     WDTCON, ADSHR
                          M PREV_ALT = 0
                          M     endif
                          M     if (PREV_BANK != 0)
                          M         movlb   0
                          M PREV_BANK = 0
                          M     endif
                          M 
                          M     ifdef USE_LINKER
                          M         call    SEROUT
                          M     else
                          M       if ((SEROUT) < 1)
MPASM 5.75  MPU-5X RECEIVER MOMENTARY MODE-1   4-2-2018  15:19:27         PAGE 133


LOC  OBJECT CODE     LINE SOURCE TEXT
  VALUE

                          M         call    SEROUT
                          M       else
                          M         if ((SEROUT) > $)
                          M         call    SEROUT
                          M         else
                          M           if ((SEROUT) < ($ - 3ffh))
                          M         call    SEROUT
                          M           else
0003FC DE03               M         rcall   SEROUT
                          M           endif
                          M         endif
                          M       endif
                          M     endif
                      00720         SEROUT?C        069h
0003FE 0E69               M         movlw   069h
                          M         L?CALL  SEROUT
                          M         RST?RP
                          M     if (PREV_ALT != 0)
                          M         bcf     WDTCON, ADSHR
                          M PREV_ALT = 0
                          M     endif
                          M     if (PREV_BANK != 0)
                          M         movlb   0
                          M PREV_BANK = 0
                          M     endif
                          M 
                          M     ifdef USE_LINKER
                          M         call    SEROUT
                          M     else
                          M       if ((SEROUT) < 1)
                          M         call    SEROUT
                          M       else
                          M         if ((SEROUT) > $)
                          M         call    SEROUT
                          M         else
                          M           if ((SEROUT) < ($ - 3ffh))
                          M         call    SEROUT
                          M           else
000400 DE01               M         rcall   SEROUT
                          M           endif
                          M         endif
                          M       endif
                          M     endif
                      00721         SEROUT?C        074h
000402 0E74               M         movlw   074h
                          M         L?CALL  SEROUT
                          M         RST?RP
                          M     if (PREV_ALT != 0)
                          M         bcf     WDTCON, ADSHR
                          M PREV_ALT = 0
                          M     endif
                          M     if (PREV_BANK != 0)
                          M         movlb   0
MPASM 5.75  MPU-5X RECEIVER MOMENTARY MODE-1   4-2-2018  15:19:27         PAGE 134


LOC  OBJECT CODE     LINE SOURCE TEXT
  VALUE

                          M PREV_BANK = 0
                          M     endif
                          M 
                          M     ifdef USE_LINKER
                          M         call    SEROUT
                          M     else
                          M       if ((SEROUT) < 1)
                          M         call    SEROUT
                          M       else
                          M         if ((SEROUT) > $)
                          M         call    SEROUT
                          M         else
                          M           if ((SEROUT) < ($ - 3ffh))
000404 EC02 F000          M         call    SEROUT
                          M           else
                          M         rcall   SEROUT
                          M           endif
                          M         endif
                          M       endif
                          M     endif
                      00722         SEROUT?C        069h
000408 0E69               M         movlw   069h
                          M         L?CALL  SEROUT
                          M         RST?RP
                          M     if (PREV_ALT != 0)
                          M         bcf     WDTCON, ADSHR
                          M PREV_ALT = 0
                          M     endif
                          M     if (PREV_BANK != 0)
                          M         movlb   0
                          M PREV_BANK = 0
                          M     endif
                          M 
                          M     ifdef USE_LINKER
                          M         call    SEROUT
                          M     else
                          M       if ((SEROUT) < 1)
                          M         call    SEROUT
                          M       else
                          M         if ((SEROUT) > $)
                          M         call    SEROUT
                          M         else
                          M           if ((SEROUT) < ($ - 3ffh))
00040A EC02 F000          M         call    SEROUT
                          M           else
                          M         rcall   SEROUT
                          M           endif
                          M         endif
                          M       endif
                          M     endif
                      00723         SEROUT?C        06Eh
00040E 0E6E               M         movlw   06Eh
                          M         L?CALL  SEROUT
MPASM 5.75  MPU-5X RECEIVER MOMENTARY MODE-1   4-2-2018  15:19:27         PAGE 135


LOC  OBJECT CODE     LINE SOURCE TEXT
  VALUE

                          M         RST?RP
                          M     if (PREV_ALT != 0)
                          M         bcf     WDTCON, ADSHR
                          M PREV_ALT = 0
                          M     endif
                          M     if (PREV_BANK != 0)
                          M         movlb   0
                          M PREV_BANK = 0
                          M     endif
                          M 
                          M     ifdef USE_LINKER
                          M         call    SEROUT
                          M     else
                          M       if ((SEROUT) < 1)
                          M         call    SEROUT
                          M       else
                          M         if ((SEROUT) > $)
                          M         call    SEROUT
                          M         else
                          M           if ((SEROUT) < ($ - 3ffh))
000410 EC02 F000          M         call    SEROUT
                          M           else
                          M         rcall   SEROUT
                          M           endif
                          M         endif
                          M       endif
                          M     endif
                      00724         SEROUT?C        067h
000414 0E67               M         movlw   067h
                          M         L?CALL  SEROUT
                          M         RST?RP
                          M     if (PREV_ALT != 0)
                          M         bcf     WDTCON, ADSHR
                          M PREV_ALT = 0
                          M     endif
                          M     if (PREV_BANK != 0)
                          M         movlb   0
                          M PREV_BANK = 0
                          M     endif
                          M 
                          M     ifdef USE_LINKER
                          M         call    SEROUT
                          M     else
                          M       if ((SEROUT) < 1)
                          M         call    SEROUT
                          M       else
                          M         if ((SEROUT) > $)
                          M         call    SEROUT
                          M         else
                          M           if ((SEROUT) < ($ - 3ffh))
000416 EC02 F000          M         call    SEROUT
                          M           else
                          M         rcall   SEROUT
MPASM 5.75  MPU-5X RECEIVER MOMENTARY MODE-1   4-2-2018  15:19:27         PAGE 136


LOC  OBJECT CODE     LINE SOURCE TEXT
  VALUE

                          M           endif
                          M         endif
                          M       endif
                          M     endif
                      00725         SEROUT?C        020h
00041A 0E20               M         movlw   020h
                          M         L?CALL  SEROUT
                          M         RST?RP
                          M     if (PREV_ALT != 0)
                          M         bcf     WDTCON, ADSHR
                          M PREV_ALT = 0
                          M     endif
                          M     if (PREV_BANK != 0)
                          M         movlb   0
                          M PREV_BANK = 0
                          M     endif
                          M 
                          M     ifdef USE_LINKER
                          M         call    SEROUT
                          M     else
                          M       if ((SEROUT) < 1)
                          M         call    SEROUT
                          M       else
                          M         if ((SEROUT) > $)
                          M         call    SEROUT
                          M         else
                          M           if ((SEROUT) < ($ - 3ffh))
00041C EC02 F000          M         call    SEROUT
                          M           else
                          M         rcall   SEROUT
                          M           endif
                          M         endif
                          M       endif
                          M     endif
                      00726         SEROUT?C        066h
000420 0E66               M         movlw   066h
                          M         L?CALL  SEROUT
                          M         RST?RP
                          M     if (PREV_ALT != 0)
                          M         bcf     WDTCON, ADSHR
                          M PREV_ALT = 0
                          M     endif
                          M     if (PREV_BANK != 0)
                          M         movlb   0
                          M PREV_BANK = 0
                          M     endif
                          M 
                          M     ifdef USE_LINKER
                          M         call    SEROUT
                          M     else
                          M       if ((SEROUT) < 1)
                          M         call    SEROUT
                          M       else
MPASM 5.75  MPU-5X RECEIVER MOMENTARY MODE-1   4-2-2018  15:19:27         PAGE 137


LOC  OBJECT CODE     LINE SOURCE TEXT
  VALUE

                          M         if ((SEROUT) > $)
                          M         call    SEROUT
                          M         else
                          M           if ((SEROUT) < ($ - 3ffh))
000422 EC02 F000          M         call    SEROUT
                          M           else
                          M         rcall   SEROUT
                          M           endif
                          M         endif
                          M       endif
                          M     endif
                      00727         SEROUT?C        06Fh
000426 0E6F               M         movlw   06Fh
                          M         L?CALL  SEROUT
                          M         RST?RP
                          M     if (PREV_ALT != 0)
                          M         bcf     WDTCON, ADSHR
                          M PREV_ALT = 0
                          M     endif
                          M     if (PREV_BANK != 0)
                          M         movlb   0
                          M PREV_BANK = 0
                          M     endif
                          M 
                          M     ifdef USE_LINKER
                          M         call    SEROUT
                          M     else
                          M       if ((SEROUT) < 1)
                          M         call    SEROUT
                          M       else
                          M         if ((SEROUT) > $)
                          M         call    SEROUT
                          M         else
                          M           if ((SEROUT) < ($ - 3ffh))
000428 EC02 F000          M         call    SEROUT
                          M           else
                          M         rcall   SEROUT
                          M           endif
                          M         endif
                          M       endif
                          M     endif
                      00728         SEROUT?C        072h
00042C 0E72               M         movlw   072h
                          M         L?CALL  SEROUT
                          M         RST?RP
                          M     if (PREV_ALT != 0)
                          M         bcf     WDTCON, ADSHR
                          M PREV_ALT = 0
                          M     endif
                          M     if (PREV_BANK != 0)
                          M         movlb   0
                          M PREV_BANK = 0
                          M     endif
MPASM 5.75  MPU-5X RECEIVER MOMENTARY MODE-1   4-2-2018  15:19:27         PAGE 138


LOC  OBJECT CODE     LINE SOURCE TEXT
  VALUE

                          M 
                          M     ifdef USE_LINKER
                          M         call    SEROUT
                          M     else
                          M       if ((SEROUT) < 1)
                          M         call    SEROUT
                          M       else
                          M         if ((SEROUT) > $)
                          M         call    SEROUT
                          M         else
                          M           if ((SEROUT) < ($ - 3ffh))
00042E EC02 F000          M         call    SEROUT
                          M           else
                          M         rcall   SEROUT
                          M           endif
                          M         endif
                          M       endif
                          M     endif
                      00729         SEROUT?C        020h
000432 0E20               M         movlw   020h
                          M         L?CALL  SEROUT
                          M         RST?RP
                          M     if (PREV_ALT != 0)
                          M         bcf     WDTCON, ADSHR
                          M PREV_ALT = 0
                          M     endif
                          M     if (PREV_BANK != 0)
                          M         movlb   0
                          M PREV_BANK = 0
                          M     endif
                          M 
                          M     ifdef USE_LINKER
                          M         call    SEROUT
                          M     else
                          M       if ((SEROUT) < 1)
                          M         call    SEROUT
                          M       else
                          M         if ((SEROUT) > $)
                          M         call    SEROUT
                          M         else
                          M           if ((SEROUT) < ($ - 3ffh))
000434 EC02 F000          M         call    SEROUT
                          M           else
                          M         rcall   SEROUT
                          M           endif
                          M         endif
                          M       endif
                          M     endif
                      00730         SEROUT?C        058h
000438 0E58               M         movlw   058h
                          M         L?CALL  SEROUT
                          M         RST?RP
                          M     if (PREV_ALT != 0)
MPASM 5.75  MPU-5X RECEIVER MOMENTARY MODE-1   4-2-2018  15:19:27         PAGE 139


LOC  OBJECT CODE     LINE SOURCE TEXT
  VALUE

                          M         bcf     WDTCON, ADSHR
                          M PREV_ALT = 0
                          M     endif
                          M     if (PREV_BANK != 0)
                          M         movlb   0
                          M PREV_BANK = 0
                          M     endif
                          M 
                          M     ifdef USE_LINKER
                          M         call    SEROUT
                          M     else
                          M       if ((SEROUT) < 1)
                          M         call    SEROUT
                          M       else
                          M         if ((SEROUT) > $)
                          M         call    SEROUT
                          M         else
                          M           if ((SEROUT) < ($ - 3ffh))
00043A EC02 F000          M         call    SEROUT
                          M           else
                          M         rcall   SEROUT
                          M           endif
                          M         endif
                          M       endif
                          M     endif
                      00731         SEROUT?C        04Dh
00043E 0E4D               M         movlw   04Dh
                          M         L?CALL  SEROUT
                          M         RST?RP
                          M     if (PREV_ALT != 0)
                          M         bcf     WDTCON, ADSHR
                          M PREV_ALT = 0
                          M     endif
                          M     if (PREV_BANK != 0)
                          M         movlb   0
                          M PREV_BANK = 0
                          M     endif
                          M 
                          M     ifdef USE_LINKER
                          M         call    SEROUT
                          M     else
                          M       if ((SEROUT) < 1)
                          M         call    SEROUT
                          M       else
                          M         if ((SEROUT) > $)
                          M         call    SEROUT
                          M         else
                          M           if ((SEROUT) < ($ - 3ffh))
000440 EC02 F000          M         call    SEROUT
                          M           else
                          M         rcall   SEROUT
                          M           endif
                          M         endif
MPASM 5.75  MPU-5X RECEIVER MOMENTARY MODE-1   4-2-2018  15:19:27         PAGE 140


LOC  OBJECT CODE     LINE SOURCE TEXT
  VALUE

                          M       endif
                          M     endif
                      00732         SEROUT?C        054h
000444 0E54               M         movlw   054h
                          M         L?CALL  SEROUT
                          M         RST?RP
                          M     if (PREV_ALT != 0)
                          M         bcf     WDTCON, ADSHR
                          M PREV_ALT = 0
                          M     endif
                          M     if (PREV_BANK != 0)
                          M         movlb   0
                          M PREV_BANK = 0
                          M     endif
                          M 
                          M     ifdef USE_LINKER
                          M         call    SEROUT
                          M     else
                          M       if ((SEROUT) < 1)
                          M         call    SEROUT
                          M       else
                          M         if ((SEROUT) > $)
                          M         call    SEROUT
                          M         else
                          M           if ((SEROUT) < ($ - 3ffh))
000446 EC02 F000          M         call    SEROUT
                          M           else
                          M         rcall   SEROUT
                          M           endif
                          M         endif
                          M       endif
                          M     endif
                      00733         SEROUT?C        052h
00044A 0E52               M         movlw   052h
                          M         L?CALL  SEROUT
                          M         RST?RP
                          M     if (PREV_ALT != 0)
                          M         bcf     WDTCON, ADSHR
                          M PREV_ALT = 0
                          M     endif
                          M     if (PREV_BANK != 0)
                          M         movlb   0
                          M PREV_BANK = 0
                          M     endif
                          M 
                          M     ifdef USE_LINKER
                          M         call    SEROUT
                          M     else
                          M       if ((SEROUT) < 1)
                          M         call    SEROUT
                          M       else
                          M         if ((SEROUT) > $)
                          M         call    SEROUT
MPASM 5.75  MPU-5X RECEIVER MOMENTARY MODE-1   4-2-2018  15:19:27         PAGE 141


LOC  OBJECT CODE     LINE SOURCE TEXT
  VALUE

                          M         else
                          M           if ((SEROUT) < ($ - 3ffh))
00044C EC02 F000          M         call    SEROUT
                          M           else
                          M         rcall   SEROUT
                          M           endif
                          M         endif
                          M       endif
                          M     endif
                      00734 
                      00735 ; C:\USERS\ANDREW MCENTEE\DOCUMENTS\NTH SOLUTIONS\URICCHIO\PBP3\MPU-5X RECEIVER MOMENTARY MODE-1.PBP    
                            00212       SCK = 0
                      00736         MOVE?CT 000h, _SCK
                          M         CHK?RP  PORTC
                          M     if (((PORTC) & 8000h) != PREV_ALT)
                          M       if ((PORTC) & 8000h)
                          M         bsf     WDTCON, ADSHR
                          M       else
                          M         bcf     WDTCON, ADSHR
                          M       endif
                          M PREV_ALT = (PORTC) & 8000h
                          M     endif
                          M     if ((((PORTC) & 0fffh) > BANKA_END) & (((PORTC) & 0fffh) < (0f01h + BANKA_END)))
                          M       if (((PORTC) & 0f00h) != (PREV_BANK << 8))
                          M         movlb   high (PORTC)
                          M PREV_BANK = high (PORTC)
                          M       endif
                          M     endif
                          M     if (((000h) & 1) == 1)
                          M         bsf     PORTC,  003h
                          M     else
000450 9682               M         bcf     PORTC,  003h
                          M     endif
                      00737 
                      00738 ; C:\USERS\ANDREW MCENTEE\DOCUMENTS\NTH SOLUTIONS\URICCHIO\PBP3\MPU-5X RECEIVER MOMENTARY MODE-1.PBP    
                            00213       PAUSE 10000
                      00739         PAUSE?C 02710h
                          M     if (((02710h) >> 8) == 0)
                          M         MOVE?CA 02710h
                          M         L?CALL  PAUSE
                          M     else
                          M         MOVE?CB (02710h) >> 8, R1 + 1
                          M         CHK?RP  R1 + 1
                          M     if (((R1 + 1) & 8000h) != PREV_ALT)
                          M       if ((R1 + 1) & 8000h)
                          M         bsf     WDTCON, ADSHR
                          M       else
                          M         bcf     WDTCON, ADSHR
                          M       endif
                          M PREV_ALT = (R1 + 1) & 8000h
                          M     endif
                          M     if ((((R1 + 1) & 0fffh) > BANKA_END) & (((R1 + 1) & 0fffh) < (0f01h + BANKA_END)))
                          M       if (((R1 + 1) & 0f00h) != (PREV_BANK << 8))
MPASM 5.75  MPU-5X RECEIVER MOMENTARY MODE-1   4-2-2018  15:19:27         PAGE 142


LOC  OBJECT CODE     LINE SOURCE TEXT
  VALUE

                          M         movlb   high (R1 + 1)
                          M PREV_BANK = high (R1 + 1)
                          M       endif
                          M     endif
                          M     if (low ((02710h) >> 8) == 0)
                          M         clrf    R1 + 1
                          M     else
                          M       if (low ((02710h) >> 8) == 255)
                          M         setf    R1 + 1
                          M       else
000452 0E27               M         movlw   low ((02710h) >> 8)
000454 6E05               M         movwf   R1 + 1
                          M       endif
                          M     endif
                          M         MOVE?CA low (02710h)
000456 0E10               M         movlw   low (low (02710h))
                          M         L?CALL  PAUSEL
                          M         RST?RP
                          M     if (PREV_ALT != 0)
                          M         bcf     WDTCON, ADSHR
                          M PREV_ALT = 0
                          M     endif
                          M     if (PREV_BANK != 0)
                          M         movlb   0
                          M PREV_BANK = 0
                          M     endif
                          M 
                          M     ifdef USE_LINKER
                          M         call    PAUSEL
                          M     else
                          M       if ((PAUSEL) < 1)
                          M         call    PAUSEL
                          M       else
                          M         if ((PAUSEL) > $)
                          M         call    PAUSEL
                          M         else
                          M           if ((PAUSEL) < ($ - 3ffh))
                          M         call    PAUSEL
                          M           else
000458 DE15               M         rcall   PAUSEL
                          M           endif
                          M         endif
                          M       endif
                          M     endif
                          M     endif
                      00740 
                      00741 ; C:\USERS\ANDREW MCENTEE\DOCUMENTS\NTH SOLUTIONS\URICCHIO\PBP3\MPU-5X RECEIVER MOMENTARY MODE-1.PBP    
                            00214       GRN_LED = 0
                      00742         MOVE?CT 000h, _GRN_LED
                          M         CHK?RP  PORTC
                          M     if (((PORTC) & 8000h) != PREV_ALT)
                          M       if ((PORTC) & 8000h)
                          M         bsf     WDTCON, ADSHR
MPASM 5.75  MPU-5X RECEIVER MOMENTARY MODE-1   4-2-2018  15:19:27         PAGE 143


LOC  OBJECT CODE     LINE SOURCE TEXT
  VALUE

                          M       else
                          M         bcf     WDTCON, ADSHR
                          M       endif
                          M PREV_ALT = (PORTC) & 8000h
                          M     endif
                          M     if ((((PORTC) & 0fffh) > BANKA_END) & (((PORTC) & 0fffh) < (0f01h + BANKA_END)))
                          M       if (((PORTC) & 0f00h) != (PREV_BANK << 8))
                          M         movlb   high (PORTC)
                          M PREV_BANK = high (PORTC)
                          M       endif
                          M     endif
                          M     if (((000h) & 1) == 1)
                          M         bsf     PORTC,  000h
                          M     else
00045A 9082               M         bcf     PORTC,  000h
                          M     endif
                      00743 
                      00744 ; C:\USERS\ANDREW MCENTEE\DOCUMENTS\NTH SOLUTIONS\URICCHIO\PBP3\MPU-5X RECEIVER MOMENTARY MODE-1.PBP    
                            00215       RED_LED = 0
                      00745         MOVE?CT 000h, _RED_LED
                          M         CHK?RP  PORTA
                          M     if (((PORTA) & 8000h) != PREV_ALT)
                          M       if ((PORTA) & 8000h)
                          M         bsf     WDTCON, ADSHR
                          M       else
                          M         bcf     WDTCON, ADSHR
                          M       endif
                          M PREV_ALT = (PORTA) & 8000h
                          M     endif
                          M     if ((((PORTA) & 0fffh) > BANKA_END) & (((PORTA) & 0fffh) < (0f01h + BANKA_END)))
                          M       if (((PORTA) & 0f00h) != (PREV_BANK << 8))
                          M         movlb   high (PORTA)
                          M PREV_BANK = high (PORTA)
                          M       endif
                          M     endif
                          M     if (((000h) & 1) == 1)
                          M         bsf     PORTA,  001h
                          M     else
00045C 9280               M         bcf     PORTA,  001h
                          M     endif
                      00746 
                      00747 ; C:\USERS\ANDREW MCENTEE\DOCUMENTS\NTH SOLUTIONS\URICCHIO\PBP3\MPU-5X RECEIVER MOMENTARY MODE-1.PBP    
                            00216       BLUE_LED = 0
                      00748         MOVE?CT 000h, _BLUE_LED
                          M         CHK?RP  PORTA
                          M     if (((PORTA) & 8000h) != PREV_ALT)
                          M       if ((PORTA) & 8000h)
                          M         bsf     WDTCON, ADSHR
                          M       else
                          M         bcf     WDTCON, ADSHR
                          M       endif
                          M PREV_ALT = (PORTA) & 8000h
                          M     endif
MPASM 5.75  MPU-5X RECEIVER MOMENTARY MODE-1   4-2-2018  15:19:27         PAGE 144


LOC  OBJECT CODE     LINE SOURCE TEXT
  VALUE

                          M     if ((((PORTA) & 0fffh) > BANKA_END) & (((PORTA) & 0fffh) < (0f01h + BANKA_END)))
                          M       if (((PORTA) & 0f00h) != (PREV_BANK << 8))
                          M         movlb   high (PORTA)
                          M PREV_BANK = high (PORTA)
                          M       endif
                          M     endif
                          M     if (((000h) & 1) == 1)
                          M         bsf     PORTA,  000h
                          M     else
00045E 9080               M         bcf     PORTA,  000h
                          M     endif
                      00749 
                      00750 ; C:\USERS\ANDREW MCENTEE\DOCUMENTS\NTH SOLUTIONS\URICCHIO\PBP3\MPU-5X RECEIVER MOMENTARY MODE-1.PBP    
                            00217       SerOut ADO, N9600, [CLRLCD]:PAUSE 10
                      00751         SERPIN?T        _ADO
                          M         BIT?R1  PORTA, 003h
000460 0E80               M         movlw   low ((PORTA) + ((003h)  >> 3))
                          M         CHK?RP  RR1
                          M     if (((RR1)   & 8000h) != PREV_ALT)
                          M       if ((RR1)   & 8000h)
                          M         bsf     WDTCON, ADSHR
                          M       else
                          M         bcf     WDTCON, ADSHR
                          M       endif
                          M PREV_ALT = (RR1)   & 8000h
                          M     endif
                          M     if ((((RR1)   & 0fffh) > BANKA_END) & (((RR1)   & 0fffh) < (0f01h + BANKA_END)))
                          M       if (((RR1)   & 0f00h) != (PREV_BANK << 8))
                          M         movlb   high (RR1)
                          M PREV_BANK = high (RR1)
                          M       endif
                          M     endif
000462 6E16               M         movwf   RR1
000464 0E0F               M         movlw   high ((PORTA) + ((003h)  >> 3))
000466 6E18               M         movwf   RS1
                          M         BIT?W   003h
                          M     if (((003h)  & 7) == 0)
                          M         movlw   01h
                          M     endif
                          M     if (((003h)  & 7) == 1)
                          M         movlw   02h
                          M     endif
                          M     if (((003h)  & 7) == 2)
                          M         movlw   04h
                          M     endif
                          M     if (((003h)  & 7) == 3)
000468 0E08               M         movlw   08h
                          M     endif
                          M     if (((003h)  & 7) == 4)
                          M         movlw   10h
                          M     endif
                          M     if (((003h)  & 7) == 5)
                          M         movlw   20h
MPASM 5.75  MPU-5X RECEIVER MOMENTARY MODE-1   4-2-2018  15:19:27         PAGE 145


LOC  OBJECT CODE     LINE SOURCE TEXT
  VALUE

                          M     endif
                          M     if (((003h)  & 7) == 6)
                          M         movlw   40h
                          M     endif
                          M     if (((003h)  & 7) == 7)
                          M         movlw   80h
                          M     endif
00046A 6E14               M         movwf   RM1
                      00752         SERMODE?C       _N9600
                          M         MOVE?CB _N9600, GOP
                          M         CHK?RP  GOP
                          M     if (((GOP)   & 8000h) != PREV_ALT)
                          M       if ((GOP)   & 8000h)
                          M         bsf     WDTCON, ADSHR
                          M       else
                          M         bcf     WDTCON, ADSHR
                          M       endif
                          M PREV_ALT = (GOP)   & 8000h
                          M     endif
                          M     if ((((GOP)   & 0fffh) > BANKA_END) & (((GOP)   & 0fffh) < (0f01h + BANKA_END)))
                          M       if (((GOP)   & 0f00h) != (PREV_BANK << 8))
                          M         movlb   high (GOP)
                          M PREV_BANK = high (GOP)
                          M       endif
                          M     endif
                          M     if (low (_N9600) == 0)
                          M         clrf    GOP
                          M     else
                          M       if (low (_N9600) == 255)
                          M         setf    GOP
                          M       else
00046C 0E06               M         movlw   low (_N9600)
00046E 6E01               M         movwf   GOP
                          M       endif
                          M     endif
                      00753         SEROUT?C        _CLRLCD
000470 0E0C               M         movlw   _CLRLCD
                          M         L?CALL  SEROUT
                          M         RST?RP
                          M     if (PREV_ALT != 0)
                          M         bcf     WDTCON, ADSHR
                          M PREV_ALT = 0
                          M     endif
                          M     if (PREV_BANK != 0)
                          M         movlb   0
                          M PREV_BANK = 0
                          M     endif
                          M 
                          M     ifdef USE_LINKER
                          M         call    SEROUT
                          M     else
                          M       if ((SEROUT) < 1)
                          M         call    SEROUT
MPASM 5.75  MPU-5X RECEIVER MOMENTARY MODE-1   4-2-2018  15:19:27         PAGE 146


LOC  OBJECT CODE     LINE SOURCE TEXT
  VALUE

                          M       else
                          M         if ((SEROUT) > $)
                          M         call    SEROUT
                          M         else
                          M           if ((SEROUT) < ($ - 3ffh))
000472 EC02 F000          M         call    SEROUT
                          M           else
                          M         rcall   SEROUT
                          M           endif
                          M         endif
                          M       endif
                          M     endif
                      00754 
                      00755 ; C:\USERS\ANDREW MCENTEE\DOCUMENTS\NTH SOLUTIONS\URICCHIO\PBP3\MPU-5X RECEIVER MOMENTARY MODE-1.PBP    
                            00217       SerOut ADO, N9600, [CLRLCD]:PAUSE 10
                      00756         PAUSE?C 00Ah
                          M     if (((00Ah) >> 8) == 0)
                          M         MOVE?CA 00Ah
000476 0E0A               M         movlw   low (00Ah)
                          M         L?CALL  PAUSE
                          M         RST?RP
                          M     if (PREV_ALT != 0)
                          M         bcf     WDTCON, ADSHR
                          M PREV_ALT = 0
                          M     endif
                          M     if (PREV_BANK != 0)
                          M         movlb   0
                          M PREV_BANK = 0
                          M     endif
                          M 
                          M     ifdef USE_LINKER
                          M         call    PAUSE
                          M     else
                          M       if ((PAUSE) < 1)
                          M         call    PAUSE
                          M       else
                          M         if ((PAUSE) > $)
                          M         call    PAUSE
                          M         else
                          M           if ((PAUSE) < ($ - 3ffh))
                          M         call    PAUSE
                          M           else
000478 DE04               M         rcall   PAUSE
                          M           endif
                          M         endif
                          M       endif
                          M     endif
                          M     else
                          M         MOVE?CB (00Ah) >> 8, R1 + 1
                          M         MOVE?CA low (00Ah)
                          M         L?CALL  PAUSEL
                          M     endif
                      00757 
MPASM 5.75  MPU-5X RECEIVER MOMENTARY MODE-1   4-2-2018  15:19:27         PAGE 147


LOC  OBJECT CODE     LINE SOURCE TEXT
  VALUE

                      00758 ; C:\USERS\ANDREW MCENTEE\DOCUMENTS\NTH SOLUTIONS\URICCHIO\PBP3\MPU-5X RECEIVER MOMENTARY MODE-1.PBP    
                            00218       serout ADO, N9600, [POSCMD,LINE1,"Test XMTR & RCVR"]
                      00759         SERPIN?T        _ADO
                          M         BIT?R1  PORTA, 003h
00047A 0E80               M         movlw   low ((PORTA) + ((003h)  >> 3))
                          M         CHK?RP  RR1
                          M     if (((RR1)   & 8000h) != PREV_ALT)
                          M       if ((RR1)   & 8000h)
                          M         bsf     WDTCON, ADSHR
                          M       else
                          M         bcf     WDTCON, ADSHR
                          M       endif
                          M PREV_ALT = (RR1)   & 8000h
                          M     endif
                          M     if ((((RR1)   & 0fffh) > BANKA_END) & (((RR1)   & 0fffh) < (0f01h + BANKA_END)))
                          M       if (((RR1)   & 0f00h) != (PREV_BANK << 8))
                          M         movlb   high (RR1)
                          M PREV_BANK = high (RR1)
                          M       endif
                          M     endif
00047C 6E16               M         movwf   RR1
00047E 0E0F               M         movlw   high ((PORTA) + ((003h)  >> 3))
000480 6E18               M         movwf   RS1
                          M         BIT?W   003h
                          M     if (((003h)  & 7) == 0)
                          M         movlw   01h
                          M     endif
                          M     if (((003h)  & 7) == 1)
                          M         movlw   02h
                          M     endif
                          M     if (((003h)  & 7) == 2)
                          M         movlw   04h
                          M     endif
                          M     if (((003h)  & 7) == 3)
000482 0E08               M         movlw   08h
                          M     endif
                          M     if (((003h)  & 7) == 4)
                          M         movlw   10h
                          M     endif
                          M     if (((003h)  & 7) == 5)
                          M         movlw   20h
                          M     endif
                          M     if (((003h)  & 7) == 6)
                          M         movlw   40h
                          M     endif
                          M     if (((003h)  & 7) == 7)
                          M         movlw   80h
                          M     endif
000484 6E14               M         movwf   RM1
                      00760         SERMODE?C       _N9600
                          M         MOVE?CB _N9600, GOP
                          M         CHK?RP  GOP
                          M     if (((GOP)   & 8000h) != PREV_ALT)
MPASM 5.75  MPU-5X RECEIVER MOMENTARY MODE-1   4-2-2018  15:19:27         PAGE 148


LOC  OBJECT CODE     LINE SOURCE TEXT
  VALUE

                          M       if ((GOP)   & 8000h)
                          M         bsf     WDTCON, ADSHR
                          M       else
                          M         bcf     WDTCON, ADSHR
                          M       endif
                          M PREV_ALT = (GOP)   & 8000h
                          M     endif
                          M     if ((((GOP)   & 0fffh) > BANKA_END) & (((GOP)   & 0fffh) < (0f01h + BANKA_END)))
                          M       if (((GOP)   & 0f00h) != (PREV_BANK << 8))
                          M         movlb   high (GOP)
                          M PREV_BANK = high (GOP)
                          M       endif
                          M     endif
                          M     if (low (_N9600) == 0)
                          M         clrf    GOP
                          M     else
                          M       if (low (_N9600) == 255)
                          M         setf    GOP
                          M       else
000486 0E06               M         movlw   low (_N9600)
000488 6E01               M         movwf   GOP
                          M       endif
                          M     endif
                      00761         SEROUT?C        _POSCMD
00048A 0E10               M         movlw   _POSCMD
                          M         L?CALL  SEROUT
                          M         RST?RP
                          M     if (PREV_ALT != 0)
                          M         bcf     WDTCON, ADSHR
                          M PREV_ALT = 0
                          M     endif
                          M     if (PREV_BANK != 0)
                          M         movlb   0
                          M PREV_BANK = 0
                          M     endif
                          M 
                          M     ifdef USE_LINKER
                          M         call    SEROUT
                          M     else
                          M       if ((SEROUT) < 1)
                          M         call    SEROUT
                          M       else
                          M         if ((SEROUT) > $)
                          M         call    SEROUT
                          M         else
                          M           if ((SEROUT) < ($ - 3ffh))
00048C EC02 F000          M         call    SEROUT
                          M           else
                          M         rcall   SEROUT
                          M           endif
                          M         endif
                          M       endif
                          M     endif
MPASM 5.75  MPU-5X RECEIVER MOMENTARY MODE-1   4-2-2018  15:19:27         PAGE 149


LOC  OBJECT CODE     LINE SOURCE TEXT
  VALUE

                      00762         SEROUT?C        _LINE1
000490 0E40               M         movlw   _LINE1
                          M         L?CALL  SEROUT
                          M         RST?RP
                          M     if (PREV_ALT != 0)
                          M         bcf     WDTCON, ADSHR
                          M PREV_ALT = 0
                          M     endif
                          M     if (PREV_BANK != 0)
                          M         movlb   0
                          M PREV_BANK = 0
                          M     endif
                          M 
                          M     ifdef USE_LINKER
                          M         call    SEROUT
                          M     else
                          M       if ((SEROUT) < 1)
                          M         call    SEROUT
                          M       else
                          M         if ((SEROUT) > $)
                          M         call    SEROUT
                          M         else
                          M           if ((SEROUT) < ($ - 3ffh))
000492 EC02 F000          M         call    SEROUT
                          M           else
                          M         rcall   SEROUT
                          M           endif
                          M         endif
                          M       endif
                          M     endif
                      00763         SEROUT?C        054h
000496 0E54               M         movlw   054h
                          M         L?CALL  SEROUT
                          M         RST?RP
                          M     if (PREV_ALT != 0)
                          M         bcf     WDTCON, ADSHR
                          M PREV_ALT = 0
                          M     endif
                          M     if (PREV_BANK != 0)
                          M         movlb   0
                          M PREV_BANK = 0
                          M     endif
                          M 
                          M     ifdef USE_LINKER
                          M         call    SEROUT
                          M     else
                          M       if ((SEROUT) < 1)
                          M         call    SEROUT
                          M       else
                          M         if ((SEROUT) > $)
                          M         call    SEROUT
                          M         else
                          M           if ((SEROUT) < ($ - 3ffh))
MPASM 5.75  MPU-5X RECEIVER MOMENTARY MODE-1   4-2-2018  15:19:27         PAGE 150


LOC  OBJECT CODE     LINE SOURCE TEXT
  VALUE

000498 EC02 F000          M         call    SEROUT
                          M           else
                          M         rcall   SEROUT
                          M           endif
                          M         endif
                          M       endif
                          M     endif
                      00764         SEROUT?C        065h
00049C 0E65               M         movlw   065h
                          M         L?CALL  SEROUT
                          M         RST?RP
                          M     if (PREV_ALT != 0)
                          M         bcf     WDTCON, ADSHR
                          M PREV_ALT = 0
                          M     endif
                          M     if (PREV_BANK != 0)
                          M         movlb   0
                          M PREV_BANK = 0
                          M     endif
                          M 
                          M     ifdef USE_LINKER
                          M         call    SEROUT
                          M     else
                          M       if ((SEROUT) < 1)
                          M         call    SEROUT
                          M       else
                          M         if ((SEROUT) > $)
                          M         call    SEROUT
                          M         else
                          M           if ((SEROUT) < ($ - 3ffh))
00049E EC02 F000          M         call    SEROUT
                          M           else
                          M         rcall   SEROUT
                          M           endif
                          M         endif
                          M       endif
                          M     endif
                      00765         SEROUT?C        073h
0004A2 0E73               M         movlw   073h
                          M         L?CALL  SEROUT
                          M         RST?RP
                          M     if (PREV_ALT != 0)
                          M         bcf     WDTCON, ADSHR
                          M PREV_ALT = 0
                          M     endif
                          M     if (PREV_BANK != 0)
                          M         movlb   0
                          M PREV_BANK = 0
                          M     endif
                          M 
                          M     ifdef USE_LINKER
                          M         call    SEROUT
                          M     else
MPASM 5.75  MPU-5X RECEIVER MOMENTARY MODE-1   4-2-2018  15:19:27         PAGE 151


LOC  OBJECT CODE     LINE SOURCE TEXT
  VALUE

                          M       if ((SEROUT) < 1)
                          M         call    SEROUT
                          M       else
                          M         if ((SEROUT) > $)
                          M         call    SEROUT
                          M         else
                          M           if ((SEROUT) < ($ - 3ffh))
0004A4 EC02 F000          M         call    SEROUT
                          M           else
                          M         rcall   SEROUT
                          M           endif
                          M         endif
                          M       endif
                          M     endif
                      00766         SEROUT?C        074h
0004A8 0E74               M         movlw   074h
                          M         L?CALL  SEROUT
                          M         RST?RP
                          M     if (PREV_ALT != 0)
                          M         bcf     WDTCON, ADSHR
                          M PREV_ALT = 0
                          M     endif
                          M     if (PREV_BANK != 0)
                          M         movlb   0
                          M PREV_BANK = 0
                          M     endif
                          M 
                          M     ifdef USE_LINKER
                          M         call    SEROUT
                          M     else
                          M       if ((SEROUT) < 1)
                          M         call    SEROUT
                          M       else
                          M         if ((SEROUT) > $)
                          M         call    SEROUT
                          M         else
                          M           if ((SEROUT) < ($ - 3ffh))
0004AA EC02 F000          M         call    SEROUT
                          M           else
                          M         rcall   SEROUT
                          M           endif
                          M         endif
                          M       endif
                          M     endif
                      00767         SEROUT?C        020h
0004AE 0E20               M         movlw   020h
                          M         L?CALL  SEROUT
                          M         RST?RP
                          M     if (PREV_ALT != 0)
                          M         bcf     WDTCON, ADSHR
                          M PREV_ALT = 0
                          M     endif
                          M     if (PREV_BANK != 0)
MPASM 5.75  MPU-5X RECEIVER MOMENTARY MODE-1   4-2-2018  15:19:27         PAGE 152


LOC  OBJECT CODE     LINE SOURCE TEXT
  VALUE

                          M         movlb   0
                          M PREV_BANK = 0
                          M     endif
                          M 
                          M     ifdef USE_LINKER
                          M         call    SEROUT
                          M     else
                          M       if ((SEROUT) < 1)
                          M         call    SEROUT
                          M       else
                          M         if ((SEROUT) > $)
                          M         call    SEROUT
                          M         else
                          M           if ((SEROUT) < ($ - 3ffh))
0004B0 EC02 F000          M         call    SEROUT
                          M           else
                          M         rcall   SEROUT
                          M           endif
                          M         endif
                          M       endif
                          M     endif
                      00768         SEROUT?C        058h
0004B4 0E58               M         movlw   058h
                          M         L?CALL  SEROUT
                          M         RST?RP
                          M     if (PREV_ALT != 0)
                          M         bcf     WDTCON, ADSHR
                          M PREV_ALT = 0
                          M     endif
                          M     if (PREV_BANK != 0)
                          M         movlb   0
                          M PREV_BANK = 0
                          M     endif
                          M 
                          M     ifdef USE_LINKER
                          M         call    SEROUT
                          M     else
                          M       if ((SEROUT) < 1)
                          M         call    SEROUT
                          M       else
                          M         if ((SEROUT) > $)
                          M         call    SEROUT
                          M         else
                          M           if ((SEROUT) < ($ - 3ffh))
0004B6 EC02 F000          M         call    SEROUT
                          M           else
                          M         rcall   SEROUT
                          M           endif
                          M         endif
                          M       endif
                          M     endif
                      00769         SEROUT?C        04Dh
0004BA 0E4D               M         movlw   04Dh
MPASM 5.75  MPU-5X RECEIVER MOMENTARY MODE-1   4-2-2018  15:19:27         PAGE 153


LOC  OBJECT CODE     LINE SOURCE TEXT
  VALUE

                          M         L?CALL  SEROUT
                          M         RST?RP
                          M     if (PREV_ALT != 0)
                          M         bcf     WDTCON, ADSHR
                          M PREV_ALT = 0
                          M     endif
                          M     if (PREV_BANK != 0)
                          M         movlb   0
                          M PREV_BANK = 0
                          M     endif
                          M 
                          M     ifdef USE_LINKER
                          M         call    SEROUT
                          M     else
                          M       if ((SEROUT) < 1)
                          M         call    SEROUT
                          M       else
                          M         if ((SEROUT) > $)
                          M         call    SEROUT
                          M         else
                          M           if ((SEROUT) < ($ - 3ffh))
0004BC EC02 F000          M         call    SEROUT
                          M           else
                          M         rcall   SEROUT
                          M           endif
                          M         endif
                          M       endif
                          M     endif
                      00770         SEROUT?C        054h
0004C0 0E54               M         movlw   054h
                          M         L?CALL  SEROUT
                          M         RST?RP
                          M     if (PREV_ALT != 0)
                          M         bcf     WDTCON, ADSHR
                          M PREV_ALT = 0
                          M     endif
                          M     if (PREV_BANK != 0)
                          M         movlb   0
                          M PREV_BANK = 0
                          M     endif
                          M 
                          M     ifdef USE_LINKER
                          M         call    SEROUT
                          M     else
                          M       if ((SEROUT) < 1)
                          M         call    SEROUT
                          M       else
                          M         if ((SEROUT) > $)
                          M         call    SEROUT
                          M         else
                          M           if ((SEROUT) < ($ - 3ffh))
0004C2 EC02 F000          M         call    SEROUT
                          M           else
MPASM 5.75  MPU-5X RECEIVER MOMENTARY MODE-1   4-2-2018  15:19:27         PAGE 154


LOC  OBJECT CODE     LINE SOURCE TEXT
  VALUE

                          M         rcall   SEROUT
                          M           endif
                          M         endif
                          M       endif
                          M     endif
                      00771         SEROUT?C        052h
0004C6 0E52               M         movlw   052h
                          M         L?CALL  SEROUT
                          M         RST?RP
                          M     if (PREV_ALT != 0)
                          M         bcf     WDTCON, ADSHR
                          M PREV_ALT = 0
                          M     endif
                          M     if (PREV_BANK != 0)
                          M         movlb   0
                          M PREV_BANK = 0
                          M     endif
                          M 
                          M     ifdef USE_LINKER
                          M         call    SEROUT
                          M     else
                          M       if ((SEROUT) < 1)
                          M         call    SEROUT
                          M       else
                          M         if ((SEROUT) > $)
                          M         call    SEROUT
                          M         else
                          M           if ((SEROUT) < ($ - 3ffh))
0004C8 EC02 F000          M         call    SEROUT
                          M           else
                          M         rcall   SEROUT
                          M           endif
                          M         endif
                          M       endif
                          M     endif
                      00772         SEROUT?C        020h
0004CC 0E20               M         movlw   020h
                          M         L?CALL  SEROUT
                          M         RST?RP
                          M     if (PREV_ALT != 0)
                          M         bcf     WDTCON, ADSHR
                          M PREV_ALT = 0
                          M     endif
                          M     if (PREV_BANK != 0)
                          M         movlb   0
                          M PREV_BANK = 0
                          M     endif
                          M 
                          M     ifdef USE_LINKER
                          M         call    SEROUT
                          M     else
                          M       if ((SEROUT) < 1)
                          M         call    SEROUT
MPASM 5.75  MPU-5X RECEIVER MOMENTARY MODE-1   4-2-2018  15:19:27         PAGE 155


LOC  OBJECT CODE     LINE SOURCE TEXT
  VALUE

                          M       else
                          M         if ((SEROUT) > $)
                          M         call    SEROUT
                          M         else
                          M           if ((SEROUT) < ($ - 3ffh))
0004CE EC02 F000          M         call    SEROUT
                          M           else
                          M         rcall   SEROUT
                          M           endif
                          M         endif
                          M       endif
                          M     endif
                      00773         SEROUT?C        026h
0004D2 0E26               M         movlw   026h
                          M         L?CALL  SEROUT
                          M         RST?RP
                          M     if (PREV_ALT != 0)
                          M         bcf     WDTCON, ADSHR
                          M PREV_ALT = 0
                          M     endif
                          M     if (PREV_BANK != 0)
                          M         movlb   0
                          M PREV_BANK = 0
                          M     endif
                          M 
                          M     ifdef USE_LINKER
                          M         call    SEROUT
                          M     else
                          M       if ((SEROUT) < 1)
                          M         call    SEROUT
                          M       else
                          M         if ((SEROUT) > $)
                          M         call    SEROUT
                          M         else
                          M           if ((SEROUT) < ($ - 3ffh))
0004D4 EC02 F000          M         call    SEROUT
                          M           else
                          M         rcall   SEROUT
                          M           endif
                          M         endif
                          M       endif
                          M     endif
                      00774         SEROUT?C        020h
0004D8 0E20               M         movlw   020h
                          M         L?CALL  SEROUT
                          M         RST?RP
                          M     if (PREV_ALT != 0)
                          M         bcf     WDTCON, ADSHR
                          M PREV_ALT = 0
                          M     endif
                          M     if (PREV_BANK != 0)
                          M         movlb   0
                          M PREV_BANK = 0
MPASM 5.75  MPU-5X RECEIVER MOMENTARY MODE-1   4-2-2018  15:19:27         PAGE 156


LOC  OBJECT CODE     LINE SOURCE TEXT
  VALUE

                          M     endif
                          M 
                          M     ifdef USE_LINKER
                          M         call    SEROUT
                          M     else
                          M       if ((SEROUT) < 1)
                          M         call    SEROUT
                          M       else
                          M         if ((SEROUT) > $)
                          M         call    SEROUT
                          M         else
                          M           if ((SEROUT) < ($ - 3ffh))
0004DA EC02 F000          M         call    SEROUT
                          M           else
                          M         rcall   SEROUT
                          M           endif
                          M         endif
                          M       endif
                          M     endif
                      00775         SEROUT?C        052h
0004DE 0E52               M         movlw   052h
                          M         L?CALL  SEROUT
                          M         RST?RP
                          M     if (PREV_ALT != 0)
                          M         bcf     WDTCON, ADSHR
                          M PREV_ALT = 0
                          M     endif
                          M     if (PREV_BANK != 0)
                          M         movlb   0
                          M PREV_BANK = 0
                          M     endif
                          M 
                          M     ifdef USE_LINKER
                          M         call    SEROUT
                          M     else
                          M       if ((SEROUT) < 1)
                          M         call    SEROUT
                          M       else
                          M         if ((SEROUT) > $)
                          M         call    SEROUT
                          M         else
                          M           if ((SEROUT) < ($ - 3ffh))
0004E0 EC02 F000          M         call    SEROUT
                          M           else
                          M         rcall   SEROUT
                          M           endif
                          M         endif
                          M       endif
                          M     endif
                      00776         SEROUT?C        043h
0004E4 0E43               M         movlw   043h
                          M         L?CALL  SEROUT
                          M         RST?RP
MPASM 5.75  MPU-5X RECEIVER MOMENTARY MODE-1   4-2-2018  15:19:27         PAGE 157


LOC  OBJECT CODE     LINE SOURCE TEXT
  VALUE

                          M     if (PREV_ALT != 0)
                          M         bcf     WDTCON, ADSHR
                          M PREV_ALT = 0
                          M     endif
                          M     if (PREV_BANK != 0)
                          M         movlb   0
                          M PREV_BANK = 0
                          M     endif
                          M 
                          M     ifdef USE_LINKER
                          M         call    SEROUT
                          M     else
                          M       if ((SEROUT) < 1)
                          M         call    SEROUT
                          M       else
                          M         if ((SEROUT) > $)
                          M         call    SEROUT
                          M         else
                          M           if ((SEROUT) < ($ - 3ffh))
0004E6 EC02 F000          M         call    SEROUT
                          M           else
                          M         rcall   SEROUT
                          M           endif
                          M         endif
                          M       endif
                          M     endif
                      00777         SEROUT?C        056h
0004EA 0E56               M         movlw   056h
                          M         L?CALL  SEROUT
                          M         RST?RP
                          M     if (PREV_ALT != 0)
                          M         bcf     WDTCON, ADSHR
                          M PREV_ALT = 0
                          M     endif
                          M     if (PREV_BANK != 0)
                          M         movlb   0
                          M PREV_BANK = 0
                          M     endif
                          M 
                          M     ifdef USE_LINKER
                          M         call    SEROUT
                          M     else
                          M       if ((SEROUT) < 1)
                          M         call    SEROUT
                          M       else
                          M         if ((SEROUT) > $)
                          M         call    SEROUT
                          M         else
                          M           if ((SEROUT) < ($ - 3ffh))
0004EC EC02 F000          M         call    SEROUT
                          M           else
                          M         rcall   SEROUT
                          M           endif
MPASM 5.75  MPU-5X RECEIVER MOMENTARY MODE-1   4-2-2018  15:19:27         PAGE 158


LOC  OBJECT CODE     LINE SOURCE TEXT
  VALUE

                          M         endif
                          M       endif
                          M     endif
                      00778         SEROUT?C        052h
0004F0 0E52               M         movlw   052h
                          M         L?CALL  SEROUT
                          M         RST?RP
                          M     if (PREV_ALT != 0)
                          M         bcf     WDTCON, ADSHR
                          M PREV_ALT = 0
                          M     endif
                          M     if (PREV_BANK != 0)
                          M         movlb   0
                          M PREV_BANK = 0
                          M     endif
                          M 
                          M     ifdef USE_LINKER
                          M         call    SEROUT
                          M     else
                          M       if ((SEROUT) < 1)
                          M         call    SEROUT
                          M       else
                          M         if ((SEROUT) > $)
                          M         call    SEROUT
                          M         else
                          M           if ((SEROUT) < ($ - 3ffh))
0004F2 EC02 F000          M         call    SEROUT
                          M           else
                          M         rcall   SEROUT
                          M           endif
                          M         endif
                          M       endif
                          M     endif
                      00779 
                      00780 ; C:\USERS\ANDREW MCENTEE\DOCUMENTS\NTH SOLUTIONS\URICCHIO\PBP3\MPU-5X RECEIVER MOMENTARY MODE-1.PBP    
                            00220   VERIFY_XMTR_WORKS:
                      00781 
                      00782         LABEL?L _VERIFY_XMTR_WORKS      
                          M         RST?RP
                          M     if (PREV_ALT != 0)
                          M         bcf     WDTCON, ADSHR
                          M PREV_ALT = 0
                          M     endif
                          M     if (PREV_BANK != 0)
                          M         movlb   0
                          M PREV_BANK = 0
                          M     endif
                          M     ifdef PM_USED
                          M         LALL
                          M _VERIFY_XMTR_WORKS
                          M         XALL
                          M     else
0004F6                    M _VERIFY_XMTR_WORKS
MPASM 5.75  MPU-5X RECEIVER MOMENTARY MODE-1   4-2-2018  15:19:27         PAGE 159


LOC  OBJECT CODE     LINE SOURCE TEXT
  VALUE

                          M     endif
                      00783 
                      00784 ; C:\USERS\ANDREW MCENTEE\DOCUMENTS\NTH SOLUTIONS\URICCHIO\PBP3\MPU-5X RECEIVER MOMENTARY MODE-1.PBP    
                            00221       IF RCVR_D0 = 0 THEN
                      00785         CMPNE?TCL       _RCVR_D0, 000h, L00001
                          M     if ((000h) == 0)
                          M         CLRWDT?
                          M     ifndef NO_CLRWDT
0004F6 0004               M         clrwdt
                          M     endif
                          M         BIT?GOTO 1, PORTA, 005h,  L00001
                          M     ifdef USE_LINKER
                          M         CLRWDT?
                          M     else
                          M       if ($ == (L00001))
                          M         CLRWDT?
                          M       endif
                          M     endif
                          M 
                          M     if (((PORTA) > BANKA_END) & ((PORTA) < (0f01h + BANKA_END)))
                          M         bcf     STATUS, OV
                          M         CHK?RP  PORTA
                          M       if ((1)      == 0)
                          M         btfss   PORTA, 005h
                          M       else
                          M         btfsc   PORTA, 005h
                          M       endif
                          M         bsf     STATUS, OV
                          M         RST?RP
                          M       ifdef USE_LINKER
                          M         btfsc   STATUS, OV
                          M         goto    L00001
                          M       else
                          M         if ((L00001) < 1)
                          M         btfsc   STATUS, OV
                          M         goto    L00001
                          M         else
                          M           if ((L00001) > $)
                          M         btfsc   STATUS, OV
                          M         goto    L00001
                          M           else
                          M             if ((L00001) < ($ - 7fh))
                          M         btfsc   STATUS, OV
                          M         goto    L00001
                          M             else
                          M         bov     L00001
                          M             endif
                          M           endif
                          M         endif
                          M       endif
                          M     else
                          M         RST?RP
                          M     if (PREV_ALT != 0)
MPASM 5.75  MPU-5X RECEIVER MOMENTARY MODE-1   4-2-2018  15:19:27         PAGE 160


LOC  OBJECT CODE     LINE SOURCE TEXT
  VALUE

                          M         bcf     WDTCON, ADSHR
                          M PREV_ALT = 0
                          M     endif
                          M     if (PREV_BANK != 0)
                          M         movlb   0
                          M PREV_BANK = 0
                          M     endif
                          M       if ((1)      == 0)
                          M         btfss   PORTA, 005h
                          M       else
0004F8 BA80               M         btfsc   PORTA, 005h
                          M       endif
                          M       ifdef USE_LINKER
                          M         goto    L00001
                          M       else
                          M         if ((L00001) < 1)
                          M         goto    L00001
                          M         else
                          M           if ((L00001) > $)
0004FA EF83 F002          M         goto    L00001
                          M           else
                          M             if ((L00001) < ($ - 3ffh))
                          M         goto    L00001
                          M             else
                          M         bra     L00001
                          M             endif
                          M           endif
                          M         endif
                          M       endif
                          M     endif
                          M     else
                          M       if ((000h) == 1)
                          M         CLRWDT?
                          M         BIT?GOTO 0, PORTA, 005h,  L00001
                          M       else
                          M         L?GOTO  L00001
                          M       endif
                          M     endif
                      00786 
                      00787 ; C:\USERS\ANDREW MCENTEE\DOCUMENTS\NTH SOLUTIONS\URICCHIO\PBP3\MPU-5X RECEIVER MOMENTARY MODE-1.PBP    
                            00222           RED_LED = 1
                      00788         MOVE?CT 001h, _RED_LED
                          M         CHK?RP  PORTA
                          M     if (((PORTA) & 8000h) != PREV_ALT)
                          M       if ((PORTA) & 8000h)
                          M         bsf     WDTCON, ADSHR
                          M       else
                          M         bcf     WDTCON, ADSHR
                          M       endif
                          M PREV_ALT = (PORTA) & 8000h
                          M     endif
                          M     if ((((PORTA) & 0fffh) > BANKA_END) & (((PORTA) & 0fffh) < (0f01h + BANKA_END)))
                          M       if (((PORTA) & 0f00h) != (PREV_BANK << 8))
MPASM 5.75  MPU-5X RECEIVER MOMENTARY MODE-1   4-2-2018  15:19:27         PAGE 161


LOC  OBJECT CODE     LINE SOURCE TEXT
  VALUE

                          M         movlb   high (PORTA)
                          M PREV_BANK = high (PORTA)
                          M       endif
                          M     endif
                          M     if (((001h) & 1) == 1)
0004FE 8280               M         bsf     PORTA,  001h
                          M     else
                          M         bcf     PORTA,  001h
                          M     endif
                      00789 
                      00790 ; C:\USERS\ANDREW MCENTEE\DOCUMENTS\NTH SOLUTIONS\URICCHIO\PBP3\MPU-5X RECEIVER MOMENTARY MODE-1.PBP    
                            00223           GRN_LED = 0
                      00791         MOVE?CT 000h, _GRN_LED
                          M         CHK?RP  PORTC
                          M     if (((PORTC) & 8000h) != PREV_ALT)
                          M       if ((PORTC) & 8000h)
                          M         bsf     WDTCON, ADSHR
                          M       else
                          M         bcf     WDTCON, ADSHR
                          M       endif
                          M PREV_ALT = (PORTC) & 8000h
                          M     endif
                          M     if ((((PORTC) & 0fffh) > BANKA_END) & (((PORTC) & 0fffh) < (0f01h + BANKA_END)))
                          M       if (((PORTC) & 0f00h) != (PREV_BANK << 8))
                          M         movlb   high (PORTC)
                          M PREV_BANK = high (PORTC)
                          M       endif
                          M     endif
                          M     if (((000h) & 1) == 1)
                          M         bsf     PORTC,  000h
                          M     else
000500 9082               M         bcf     PORTC,  000h
                          M     endif
                      00792 
                      00793 ; C:\USERS\ANDREW MCENTEE\DOCUMENTS\NTH SOLUTIONS\URICCHIO\PBP3\MPU-5X RECEIVER MOMENTARY MODE-1.PBP    
                            00224           ELSE
                      00794         GOTO?L  L00002
                          M         L?GOTO  L00002
                          M     ifdef USE_LINKER
                          M         CLRWDT?
                          M     else
                          M       if ($ == (L00002))
                          M         CLRWDT?
                          M       endif
                          M     endif
                          M 
                          M         RST?RP
                          M     if (PREV_ALT != 0)
                          M         bcf     WDTCON, ADSHR
                          M PREV_ALT = 0
                          M     endif
                          M     if (PREV_BANK != 0)
                          M         movlb   0
MPASM 5.75  MPU-5X RECEIVER MOMENTARY MODE-1   4-2-2018  15:19:27         PAGE 162


LOC  OBJECT CODE     LINE SOURCE TEXT
  VALUE

                          M PREV_BANK = 0
                          M     endif
                          M 
                          M     ifdef USE_LINKER
                          M         goto    L00002
                          M     else
                          M       if ((L00002) < 1)
                          M         goto    L00002
                          M       else
                          M         if ((L00002) > $)
000502 EF85 F002          M         goto    L00002
                          M         else
                          M           if ((L00002) < ($ - 3ffh))
                          M         goto    L00002
                          M           else
                          M         bra     L00002
                          M           endif
                          M         endif
                          M       endif
                          M     endif
                      00795         LABEL?L L00001  
                          M         RST?RP
                          M     if (PREV_ALT != 0)
                          M         bcf     WDTCON, ADSHR
                          M PREV_ALT = 0
                          M     endif
                          M     if (PREV_BANK != 0)
                          M         movlb   0
                          M PREV_BANK = 0
                          M     endif
                          M     ifdef PM_USED
                          M         LALL
                          M L00001
                          M         XALL
                          M     else
000506                    M L00001
                          M     endif
                      00796 
                      00797 ; C:\USERS\ANDREW MCENTEE\DOCUMENTS\NTH SOLUTIONS\URICCHIO\PBP3\MPU-5X RECEIVER MOMENTARY MODE-1.PBP    
                            00225           RED_LED = 0
                      00798         MOVE?CT 000h, _RED_LED
                          M         CHK?RP  PORTA
                          M     if (((PORTA) & 8000h) != PREV_ALT)
                          M       if ((PORTA) & 8000h)
                          M         bsf     WDTCON, ADSHR
                          M       else
                          M         bcf     WDTCON, ADSHR
                          M       endif
                          M PREV_ALT = (PORTA) & 8000h
                          M     endif
                          M     if ((((PORTA) & 0fffh) > BANKA_END) & (((PORTA) & 0fffh) < (0f01h + BANKA_END)))
                          M       if (((PORTA) & 0f00h) != (PREV_BANK << 8))
                          M         movlb   high (PORTA)
MPASM 5.75  MPU-5X RECEIVER MOMENTARY MODE-1   4-2-2018  15:19:27         PAGE 163


LOC  OBJECT CODE     LINE SOURCE TEXT
  VALUE

                          M PREV_BANK = high (PORTA)
                          M       endif
                          M     endif
                          M     if (((000h) & 1) == 1)
                          M         bsf     PORTA,  001h
                          M     else
000506 9280               M         bcf     PORTA,  001h
                          M     endif
                      00799 
                      00800 ; C:\USERS\ANDREW MCENTEE\DOCUMENTS\NTH SOLUTIONS\URICCHIO\PBP3\MPU-5X RECEIVER MOMENTARY MODE-1.PBP    
                            00226           GRN_LED = 1
                      00801         MOVE?CT 001h, _GRN_LED
                          M         CHK?RP  PORTC
                          M     if (((PORTC) & 8000h) != PREV_ALT)
                          M       if ((PORTC) & 8000h)
                          M         bsf     WDTCON, ADSHR
                          M       else
                          M         bcf     WDTCON, ADSHR
                          M       endif
                          M PREV_ALT = (PORTC) & 8000h
                          M     endif
                          M     if ((((PORTC) & 0fffh) > BANKA_END) & (((PORTC) & 0fffh) < (0f01h + BANKA_END)))
                          M       if (((PORTC) & 0f00h) != (PREV_BANK << 8))
                          M         movlb   high (PORTC)
                          M PREV_BANK = high (PORTC)
                          M       endif
                          M     endif
                          M     if (((001h) & 1) == 1)
000508 8082               M         bsf     PORTC,  000h
                          M     else
                          M         bcf     PORTC,  000h
                          M     endif
                      00802 
                      00803 ; C:\USERS\ANDREW MCENTEE\DOCUMENTS\NTH SOLUTIONS\URICCHIO\PBP3\MPU-5X RECEIVER MOMENTARY MODE-1.PBP    
                            00227           ENDIF
                      00804         LABEL?L L00002  
                          M         RST?RP
                          M     if (PREV_ALT != 0)
                          M         bcf     WDTCON, ADSHR
                          M PREV_ALT = 0
                          M     endif
                          M     if (PREV_BANK != 0)
                          M         movlb   0
                          M PREV_BANK = 0
                          M     endif
                          M     ifdef PM_USED
                          M         LALL
                          M L00002
                          M         XALL
                          M     else
00050A                    M L00002
                          M     endif
                      00805 
MPASM 5.75  MPU-5X RECEIVER MOMENTARY MODE-1   4-2-2018  15:19:27         PAGE 164


LOC  OBJECT CODE     LINE SOURCE TEXT
  VALUE

                      00806 ; C:\USERS\ANDREW MCENTEE\DOCUMENTS\NTH SOLUTIONS\URICCHIO\PBP3\MPU-5X RECEIVER MOMENTARY MODE-1.PBP    
                            00228       GOTO VERIFY_XMTR_WORKS    
                      00807         GOTO?L  _VERIFY_XMTR_WORKS
                          M         L?GOTO  _VERIFY_XMTR_WORKS
                          M     ifdef USE_LINKER
                          M         CLRWDT?
                          M     else
                          M       if ($ == (_VERIFY_XMTR_WORKS))
                          M         CLRWDT?
                          M       endif
                          M     endif
                          M 
                          M         RST?RP
                          M     if (PREV_ALT != 0)
                          M         bcf     WDTCON, ADSHR
                          M PREV_ALT = 0
                          M     endif
                          M     if (PREV_BANK != 0)
                          M         movlb   0
                          M PREV_BANK = 0
                          M     endif
                          M 
                          M     ifdef USE_LINKER
                          M         goto    _VERIFY_XMTR_WORKS
                          M     else
                          M       if ((_VERIFY_XMTR_WORKS) < 1)
                          M         goto    _VERIFY_XMTR_WORKS
                          M       else
                          M         if ((_VERIFY_XMTR_WORKS) > $)
                          M         goto    _VERIFY_XMTR_WORKS
                          M         else
                          M           if ((_VERIFY_XMTR_WORKS) < ($ - 3ffh))
                          M         goto    _VERIFY_XMTR_WORKS
                          M           else
00050A D7F5               M         bra     _VERIFY_XMTR_WORKS
                          M           endif
                          M         endif
                          M       endif
                          M     endif
                      00808 
                      00809 ; C:\USERS\ANDREW MCENTEE\DOCUMENTS\NTH SOLUTIONS\URICCHIO\PBP3\MPU-5X RECEIVER MOMENTARY MODE-1.PBP    
                            00232   STOP
                      00810         STOP?   
  0000                    M     local loop
                          M loop    CLRWDT?
                          M     ifndef NO_CLRWDT
00050C 0004               M         clrwdt
                          M     endif
                          M         L?GOTO  loop
                          M     ifdef USE_LINKER
                          M         CLRWDT?
                          M     else
                          M       if ($ == (_782loop))
MPASM 5.75  MPU-5X RECEIVER MOMENTARY MODE-1   4-2-2018  15:19:27         PAGE 165


LOC  OBJECT CODE     LINE SOURCE TEXT
  VALUE

                          M         CLRWDT?
                          M       endif
                          M     endif
                          M 
                          M         RST?RP
                          M     if (PREV_ALT != 0)
                          M         bcf     WDTCON, ADSHR
                          M PREV_ALT = 0
                          M     endif
                          M     if (PREV_BANK != 0)
                          M         movlb   0
                          M PREV_BANK = 0
                          M     endif
                          M 
                          M     ifdef USE_LINKER
                          M         goto    _782loop
                          M     else
                          M       if ((_782loop) < 1)
                          M         goto    _782loop
                          M       else
                          M         if ((_782loop) > $)
                          M         goto    _782loop
                          M         else
                          M           if ((_782loop) < ($ - 3ffh))
                          M         goto    _782loop
                          M           else
00050E D7FE               M         bra     _782loop
                          M           endif
                          M         endif
                          M       endif
                          M     endif
                      00811 
                      00812         END
MPASM 5.75  MPU-5X RECEIVER MOMENTARY MODE-1   4-2-2018  15:19:27         PAGE 166


SYMBOL TABLE
  LABEL                             VALUE 

A                                 00000000
ABDEN                             00000000
ABDOVF                            00000007
ACCESS                            00000000
ACKDT                             00000005
ACKEN                             00000004
ACKSTAT                           00000006
ACKTIM                            00000007
ACQT0                             00000003
ACQT1                             00000004
ACQT2                             00000005
ADCMD                             00000000
ADCON0                            00000FC2
ADCON1                            00000FC1
ADCON2                            00000FC0
ADCS0                             00000000
ADCS1                             00000001
ADCS2                             00000002
ADC_BITS                          00000008
ADC_CHANNELS                      1
ADC_CLOCK                         00000003
ADC_SAMPLEUS                      00000032
ADDEN                             00000003
ADDEN1                            00000003
ADDEN2                            00000003
ADEN                              00000003
ADFM                              00000007
ADIE                              00000006
ADIF                              00000006
ADIP                              00000006
ADON                              00000000
ADRES                             00000FC3
ADRESH                            00000FC4
ADRESL                            00000FC3
AHEN                              00000001
AN0                               00000000
AN1                               00000001
AN10                              00000001
AN11                              00000004
AN12                              00000000
AN13                              00000005
AN14                              00000002
AN15                              00000003
AN16                              00000004
AN17                              00000005
AN18                              00000006
AN19                              00000007
AN2                               00000002
AN3                               00000003
AN4                               00000005
AN8                               00000002
AN9                               00000003
ANSA0                             00000000
MPASM 5.75  MPU-5X RECEIVER MOMENTARY MODE-1   4-2-2018  15:19:27         PAGE 167


SYMBOL TABLE
  LABEL                             VALUE 

ANSA1                             00000001
ANSA2                             00000002
ANSA3                             00000003
ANSA5                             00000005
ANSB0                             00000000
ANSB1                             00000001
ANSB2                             00000002
ANSB3                             00000003
ANSB4                             00000004
ANSB5                             00000005
ANSC2                             00000002
ANSC3                             00000003
ANSC4                             00000004
ANSC5                             00000005
ANSC6                             00000006
ANSC7                             00000007
ANSELA                            00000F38
ANSELB                            00000F39
ANSELC                            00000F3A
BANK0_END                         000000FF
BANK0_START                       00000060
BANK10_END                        00000AFF
BANK10_START                      00000A00
BANK11_END                        00000BFF
BANK11_START                      00000B00
BANK12_END                        00000CFF
BANK12_START                      00000C00
BANK13_END                        00000DFF
BANK13_START                      00000D00
BANK14_END                        00000EFF
BANK14_START                      00000E00
BANK15_END                        00000F37
BANK15_START                      00000F00
BANK1_END                         000001FF
BANK1_START                       00000100
BANK2_END                         000002FF
BANK2_START                       00000200
BANK3_END                         000003FF
BANK3_START                       00000300
BANK4_END                         000004FF
BANK4_START                       00000400
BANK5_END                         000005FF
BANK5_START                       00000500
BANK6_END                         000006FF
BANK6_START                       00000600
BANK7_END                         000007FF
BANK7_START                       00000700
BANK8_END                         000008FF
BANK8_START                       00000800
BANK9_END                         000009FF
BANK9_START                       00000900
BANKA_END                         0000005F
BANKA_START                       00000000
MPASM 5.75  MPU-5X RECEIVER MOMENTARY MODE-1   4-2-2018  15:19:27         PAGE 168


SYMBOL TABLE
  LABEL                             VALUE 

BANKED                            00000001
BAUD1CON                          00000FB8
BAUD2CON                          00000F70
BAUDCON                           00000FB8
BAUDCON1                          00000FB8
BAUDCON2                          00000F70
BAUDCTL                           00000FB8
BCL1IE                            00000003
BCL1IF                            00000003
BCL1IP                            00000003
BCL2IE                            00000006
BCL2IF                            00000006
BCL2IP                            00000006
BCLIE                             00000003
BCLIF                             00000003
BCLIP                             00000003
BF                                00000000
BGST                              00000005
BGVST                             00000006
BIT?FLIP                          
BIT?GOTO                          
BIT?R1                            
BIT?R2                            
BIT?W                             
BLOCK_SIZE                        00000040
BOEN                              00000004
BOR                               00000000
BRG16                             00000003
BRGH                              00000002
BRGH1                             00000002
BRGH2                             00000002
BSR                               00000FE0
BUTTON_PAUSE                      0000000A
C                                 00000000
C12IN0M                           00000000
C12IN0N                           00000000
C12IN1M                           00000001
C12IN1N                           00000001
C12IN2M                           00000003
C12IN2N                           00000003
C12IN3M                           00000001
C12IN3N                           00000001
C1CH0                             00000000
C1CH1                             00000001
C1HYS                             00000003
C1IE                              00000006
C1IF                              00000006
C1INP                             00000003
C1IP                              00000006
C1OE                              00000005
C1ON                              00000007
C1OUT_CM1CON                      00000006
C1OUT_CM1CON0                     00000006
MPASM 5.75  MPU-5X RECEIVER MOMENTARY MODE-1   4-2-2018  15:19:27         PAGE 169


SYMBOL TABLE
  LABEL                             VALUE 

C1OUT_PORTA                       00000004
C1POL                             00000004
C1R                               00000002
C1RSEL                            00000005
C1SP                              00000003
C1SYNC                            00000001
C1TSEL0                           00000000
C1TSEL1                           00000001
C2CH0                             00000000
C2CH1                             00000001
C2HYS                             00000002
C2IE                              00000005
C2IF                              00000005
C2INP                             00000002
C2IP                              00000005
C2OE                              00000005
C2ON                              00000007
C2OUT_CM2CON                      00000006
C2OUT_CM2CON0                     00000006
C2OUT_PORTA                       00000005
C2POL                             00000004
C2R                               00000002
C2RSEL                            00000004
C2SP                              00000003
C2SYNC                            00000000
C2TSEL0                           00000003
C2TSEL1                           00000004
C3TSEL0                           00000006
C3TSEL1                           00000007
C4TSEL0                           00000000
C4TSEL1                           00000001
C5TSEL0                           00000002
C5TSEL1                           00000003
CCP1                              00000002
CCP1AS0                           00000004
CCP1AS1                           00000005
CCP1AS2                           00000006
CCP1ASE                           00000007
CCP1CON                           00000FBD
CCP1IE                            00000002
CCP1IF                            00000002
CCP1IP                            00000002
CCP1M0                            00000000
CCP1M1                            00000001
CCP1M2                            00000002
CCP1M3                            00000003
CCP1MD                            00000000
CCP1_BIT                          00000002
CCP1_REG                          00000F82
CCP2AS                            00000F64
CCP2AS0                           00000004
CCP2AS1                           00000005
CCP2AS2                           00000006
MPASM 5.75  MPU-5X RECEIVER MOMENTARY MODE-1   4-2-2018  15:19:27         PAGE 170


SYMBOL TABLE
  LABEL                             VALUE 

CCP2ASE                           00000007
CCP2CON                           00000F66
CCP2IE                            00000000
CCP2IF                            00000000
CCP2IP                            00000000
CCP2M0                            00000000
CCP2M1                            00000001
CCP2M2                            00000002
CCP2M3                            00000003
CCP2MD                            00000001
CCP2_BIT                          00000001
CCP2_PORTB                        00000003
CCP2_PORTC                        00000001
CCP2_REG                          00000F82
CCP3AS                            00000F5B
CCP3AS0                           00000004
CCP3AS1                           00000005
CCP3AS2                           00000006
CCP3ASE                           00000007
CCP3CON                           00000F5D
CCP3IE                            00000000
CCP3IF                            00000000
CCP3IP                            00000000
CCP3M0                            00000000
CCP3M1                            00000001
CCP3M2                            00000002
CCP3M3                            00000003
CCP3MD                            00000002
CCP3_BIT                          00000000
CCP3_PORTB                        00000005
CCP3_PORTC                        00000006
CCP3_REG                          00000000
CCP4                              00000000
CCP4CON                           00000F57
CCP4IE                            00000001
CCP4IF                            00000001
CCP4IP                            00000001
CCP4M0                            00000000
CCP4M1                            00000001
CCP4M2                            00000002
CCP4M3                            00000003
CCP4MD                            00000003
CCP4_BIT                          00000003
CCP4_REG                          00000000
CCP5                              00000004
CCP5CON                           00000F54
CCP5IE                            00000002
CCP5IF                            00000002
CCP5IP                            00000002
CCP5M0                            00000000
CCP5M1                            00000001
CCP5M2                            00000002
CCP5M3                            00000003
MPASM 5.75  MPU-5X RECEIVER MOMENTARY MODE-1   4-2-2018  15:19:27         PAGE 171


SYMBOL TABLE
  LABEL                             VALUE 

CCP5MD                            00000004
CCP5_BIT                          00000004
CCP5_REG                          00000000
CCPR1                             00000FBE
CCPR1H                            00000FBF
CCPR1L                            00000FBE
CCPR2                             00000F67
CCPR2H                            00000F68
CCPR2L                            00000F67
CCPR3                             00000F5E
CCPR3H                            00000F5F
CCPR3L                            00000F5E
CCPR4                             00000F58
CCPR4H                            00000F59
CCPR4L                            00000F58
CCPR5                             00000F55
CCPR5H                            00000F56
CCPR5L                            00000F55
CCPTMRS0                          00000F49
CCPTMRS1                          00000F48
CFGS                              00000006
CHK?RP                            
CHS0                              00000002
CHS1                              00000003
CHS2                              00000004
CHS3                              00000005
CHS4                              00000006
CK                                00000006
CK1                               00000006
CK2                               00000006
CKE                               00000006
CKP                               00000004
CKTXP                             00000004
CLRWDT?                           
CLRWDT?NOP                        
CM12CON                           00000F77
CM1CON                            00000F79
CM1CON0                           00000F79
CM2CON                            00000F78
CM2CON0                           00000F78
CM2CON1                           00000F77
CMP1MD                            00000001
CMP2MD                            00000002
CMPEQ?TCL                         
CMPNE?TCL                         
CREN                              00000004
CREN1                             00000004
CREN2                             00000004
CSRC                              00000007
CSRC1                             00000007
CSRC2                             00000007
CTED1                             00000002
CTED2                             00000003
MPASM 5.75  MPU-5X RECEIVER MOMENTARY MODE-1   4-2-2018  15:19:27         PAGE 172


SYMBOL TABLE
  LABEL                             VALUE 

CTMUCON0                          00000F45
CTMUCON1                          00000F44
CTMUCONH                          00000F45
CTMUCONL                          00000F44
CTMUEN                            00000007
CTMUICON                          00000F43
CTMUICONH                         00000F43
CTMUIE                            00000003
CTMUIF                            00000003
CTMUIP                            00000003
CTMUMD                            00000003
CTMUSIDL                          00000005
CTPLS                             00000002
CTTRIG                            00000000
CVREF                             00000002
D                                 00000005
DACCON0                           00000F41
DACCON1                           00000F40
DACEN                             00000007
DACLPS                            00000006
DACNSS                            00000000
DACOE                             00000005
DACOUT                            00000002
DACPSS0                           00000002
DACPSS1                           00000003
DACR0                             00000000
DACR1                             00000001
DACR2                             00000002
DACR3                             00000003
DACR4                             00000004
DC                                00000001
DC1B0                             00000004
DC1B1                             00000005
DC2B0                             00000004
DC2B1                             00000005
DC3B0                             00000004
DC3B1                             00000005
DC4B0                             00000004
DC4B1                             00000005
DC5B0                             00000004
DC5B1                             00000005
DDRA                              TRISA
DDRB                              TRISB
DDRC                              TRISC
DDRD                              TRISD
DDRE                              TRISE
DEBUGIN_BIT                       00000000
DEBUGIN_MODE                      00000001
DEBUGIN_REG                       00000F81
DEBUG_BAUD                        00000960
DEBUG_BIT                         00000000
DEBUG_DELAY                       0000019F
DEBUG_MODE                        00000001
MPASM 5.75  MPU-5X RECEIVER MOMENTARY MODE-1   4-2-2018  15:19:27         PAGE 173


SYMBOL TABLE
  LABEL                             VALUE 

DEBUG_REG                         00000F81
DHEN                              00000000
DONE                              00000001
DT1                               00000007
DT2                               00000007
DTRXP                             00000005
DUNN                              000000B2
DUNN5                             000000B4
DUNN_USED                         00000001
D_A                               00000005
D_NOT_A                           00000005
ECCP1AS                           00000FB6
ECCP2AS                           00000F64
ECCP3AS                           00000F5B
ECCPAS                            00000FB6
ECCPAS0                           00000004
ECCPAS1                           00000005
ECCPAS2                           00000006
ECCPASE                           00000007
EDG1POL                           00000004
EDG1SEL0                          00000002
EDG1SEL1                          00000003
EDG1STAT                          00000000
EDG2POL                           00000007
EDG2SEL0                          00000005
EDG2SEL1                          00000006
EDG2STAT                          00000001
EDGEN                             00000003
EDGSEQEN                          00000002
EEADR                             00000FA9
EEADR0                            00000000
EEADR1                            00000001
EEADR2                            00000002
EEADR3                            00000003
EEADR4                            00000004
EEADR5                            00000005
EEADR6                            00000006
EEADR7                            00000007
EEADR8                            00000000
EEADR9                            00000001
EEADRH                            00000FAA
EECON1                            00000FA6
EECON2                            00000FA7
EEDATA                            00000FA8
EEIE                              00000004
EEIF                              00000004
EEIP                              00000004
EEPGD                             00000007
EEPROM_START                      00F00000
FAST                              00000001
FERR                              00000002
FERR1                             00000002
FERR2                             00000002
MPASM 5.75  MPU-5X RECEIVER MOMENTARY MODE-1   4-2-2018  15:19:27         PAGE 174


SYMBOL TABLE
  LABEL                             VALUE 

FLAGS                             00000000
FLT0                              00000000
FREE                              00000004
FSR0                              00000000
FSR0H                             00000FEA
FSR0L                             00000FE9
FSR1                              00000001
FSR1H                             00000FE2
FSR1L                             00000FE1
FSR2                              00000002
FSR2H                             00000FDA
FSR2L                             00000FD9
FVRCON                            00000F42
FVREN                             00000007
FVRS0                             00000004
FVRS1                             00000005
FVRST                             00000006
GCEN                              00000007
GIE                               00000007
GIEH                              00000007
GIEL                              00000006
GIE_GIEH                          00000007
GO                                00000001
GOP                               00000001
GOTO?L                            
GO_DONE                           00000001
GO_NOT_DONE                       00000001
HFIOFS                            00000002
HLVDCON                           00000F9C
HLVDEN                            00000004
HLVDIE                            00000002
HLVDIF                            00000002
HLVDIN                            00000005
HLVDIP                            00000002
HLVDL0                            00000000
HLVDL1                            00000001
HLVDL2                            00000002
HLVDL3                            00000003
HSER2_BAUD                        00000960
HSER2_BITS                        00000008
HSER2_RCSTA                       00000090
HSER2_SPBRG                       000000CF
HSER2_TXSTA                       00000020
HSER_BAUD                         00000960
HSER_BITS                         00000008
HSER_PORT                         00000001
HSER_RCSTA                        00000090
HSER_SPBRG                        000000CF
HSER_TXSTA                        00000020
I2CFIRSTFLAG                      FLAGS, 2
I2CREADFLAG                       FLAGS, 3
I2CSTOPFLAG                       FLAGS, 5
I2CSTOPSTRFLAG                    FLAGS, 6
MPASM 5.75  MPU-5X RECEIVER MOMENTARY MODE-1   4-2-2018  15:19:27         PAGE 175


SYMBOL TABLE
  LABEL                             VALUE 

I2CWRITEFLAG                      FLAGS, 4
IDISSEN                           00000001
IDLEN                             00000007
INDF0                             00000FEF
INDF1                             00000FE7
INDF2                             00000FDF
INIT                              000000B8
INPUT?T                           
INT0                              00000000
INT0E                             00000004
INT0F                             00000001
INT0IE                            00000004
INT0IF                            00000001
INT1                              00000001
INT1E                             00000003
INT1F                             00000000
INT1IE                            00000003
INT1IF                            00000000
INT1IP                            00000006
INT1P                             00000006
INT2                              00000002
INT2E                             00000004
INT2F                             00000001
INT2IE                            00000004
INT2IF                            00000001
INT2IP                            00000007
INT2P                             00000007
INTCON                            00000FF2
INTCON2                           00000FF1
INTCON3                           00000FF0
INTEDG0                           00000006
INTEDG1                           00000005
INTEDG2                           00000004
INTSRC                            00000007
IOCB                              00000F62
IOCB4                             00000004
IOCB5                             00000005
IOCB6                             00000006
IOCB7                             00000007
IOFS                              00000002
IPEN                              00000007
IPR1                              00000F9F
IPR2                              00000FA2
IPR3                              00000FA5
IPR4                              00000F7C
IPR5                              00000F7F
IRCF0                             00000004
IRCF1                             00000005
IRCF2                             00000006
IRNG0                             00000000
IRNG1                             00000001
IRVST                             00000005
ITRIM0                            00000002
MPASM 5.75  MPU-5X RECEIVER MOMENTARY MODE-1   4-2-2018  15:19:27         PAGE 176


SYMBOL TABLE
  LABEL                             VALUE 

ITRIM1                            00000003
ITRIM2                            00000004
ITRIM3                            00000005
ITRIM4                            00000006
ITRIM5                            00000007
IVRST                             00000005
KBI0                              00000004
KBI1                              00000005
KBI2                              00000006
KBI3                              00000007
L00001                            00000506
L00002                            0000050A
L?CALL                            
L?GOTO                            
LABEL?L                           
LATA                              00000F89
LATA0                             00000000
LATA1                             00000001
LATA2                             00000002
LATA3                             00000003
LATA4                             00000004
LATA5                             00000005
LATA6                             00000006
LATA7                             00000007
LATB                              00000F8A
LATB0                             00000000
LATB1                             00000001
LATB2                             00000002
LATB3                             00000003
LATB4                             00000004
LATB5                             00000005
LATB6                             00000006
LATB7                             00000007
LATC                              00000F8B
LATC0                             00000000
LATC1                             00000001
LATC2                             00000002
LATC3                             00000003
LATC4                             00000004
LATC5                             00000005
LATC6                             00000006
LATC7                             00000007
LCDCDFLAG                         FLAGS, 0
LCDINITFLAG                       FLAGS, 1
LCD_BITS                          00000004
LCD_COMMANDUS                     000007D0
LCD_DATAUS                        00000032
LCD_DBIT                          00000000
LCD_DREG                          00000F80
LCD_EBIT                          00000003
LCD_EREG                          00000F81
LCD_LINES                         00000002
LCD_RSBIT                         00000004
MPASM 5.75  MPU-5X RECEIVER MOMENTARY MODE-1   4-2-2018  15:19:27         PAGE 177


SYMBOL TABLE
  LABEL                             VALUE 

LCD_RSREG                         00000F80
LCD_RWBIT                         00000004
LCD_RWREG                         00000F80
LFIOFS                            00000000
LVDCON                            00000F9C
LVDEN                             00000004
LVDIE                             00000002
LVDIF                             00000002
LVDIN                             00000005
LVDIP                             00000002
LVDL0                             00000000
LVDL1                             00000001
LVDL2                             00000002
LVDL3                             00000003
LVV0                              00000000
LVV1                              00000001
LVV2                              00000002
LVV3                              00000003
MC1OUT                            00000007
MC2OUT                            00000006
MCLR                              00000003
MFIOFS                            00000001
MFIOSEL                           00000004
MOVE?AB                           
MOVE?AT                           
MOVE?AW                           
MOVE?AWW                          
MOVE?BA                           
MOVE?BB                           
MOVE?BT                           
MOVE?BW                           
MOVE?CA                           
MOVE?CB                           
MOVE?CT                           
MOVE?CW                           
MOVE?TA                           
MOVE?TB                           
MOVE?TT                           
MOVE?TW                           
MOVE?WA                           
MOVE?WB                           
MOVE?WT                           
MOVE?WW                           
MOVE?WWA                          
MPASMX_USED                       00000001
MSK0                              00000000
MSK1                              00000001
MSK2                              00000002
MSK3                              00000003
MSK4                              00000004
MSK5                              00000005
MSK6                              00000006
MSK7                              00000007
MPASM 5.75  MPU-5X RECEIVER MOMENTARY MODE-1   4-2-2018  15:19:27         PAGE 178


SYMBOL TABLE
  LABEL                             VALUE 

MSSP1MD                           00000006
MSSP2MD                           00000007
N                                 00000004
NAP?C                             
NOT_A                             00000005
NOT_ADDRESS                       00000005
NOT_BOR                           00000000
NOT_DONE                          00000001
NOT_MCLR                          00000003
NOT_PD                            00000002
NOT_POR                           00000001
NOT_RBPU                          00000007
NOT_RI                            00000004
NOT_SS                            00000005
NOT_SS1                           00000005
NOT_SS2                           00000000
NOT_T1SYNC                        00000002
NOT_T3SYNC                        00000002
NOT_T5SYNC                        00000002
NOT_TO                            00000003
NOT_W                             00000002
NOT_WRITE                         00000002
NVCFG0                            00000000
NVCFG1                            00000001
OERR                              00000001
OERR1                             00000001
OERR2                             00000001
OSC                               32
OSCCON                            00000FD3
OSCCON2                           00000FD2
OSCFIE                            00000007
OSCFIF                            00000007
OSCFIP                            00000007
OSCTUNE                           00000F9B
OSC_VALID                         00000001
OSTS                              00000003
OUTPUT?T                          
OV                                00000003
P                                 00000004
P1A                               00000002
P1B                               00000002
P1C                               00000001
P1D                               00000004
P1DC0                             00000000
P1DC1                             00000001
P1DC2                             00000002
P1DC3                             00000003
P1DC4                             00000004
P1DC5                             00000005
P1DC6                             00000006
P1M0                              00000006
P1M1                              00000007
P1RSEN                            00000007
MPASM 5.75  MPU-5X RECEIVER MOMENTARY MODE-1   4-2-2018  15:19:27         PAGE 179


SYMBOL TABLE
  LABEL                             VALUE 

P1SSAC0                           00000002
P1SSAC1                           00000003
P1SSBD0                           00000000
P1SSBD1                           00000001
P2A_PORTB                         00000003
P2A_PORTC                         00000001
P2B_PORTB                         00000005
P2B_PORTC                         00000000
P2DC0                             00000000
P2DC1                             00000001
P2DC2                             00000002
P2DC3                             00000003
P2DC4                             00000004
P2DC5                             00000005
P2DC6                             00000006
P2M0                              00000006
P2M1                              00000007
P2RSEN                            00000007
P2SSAC0                           00000002
P2SSAC1                           00000003
P2SSBD0                           00000000
P2SSBD1                           00000001
P3A_PORTB                         00000005
P3A_PORTC                         00000006
P3B                               00000007
P3DC0                             00000000
P3DC1                             00000001
P3DC2                             00000002
P3DC3                             00000003
P3DC4                             00000004
P3DC5                             00000005
P3DC6                             00000006
P3M0                              00000006
P3M1                              00000007
P3RSEN                            00000007
P3SSAC0                           00000002
P3SSAC1                           00000003
P3SSBD0                           00000000
P3SSBD1                           00000001
PAUSE                             00000082
PAUSE?C                           
PAUSE?W                           
PAUSEL                            00000084
PAUSEUS                           0000009C
PAUSEUSL                          0000009E
PAUSEUS_USED                      00000001
PAUSE_DELAY                       000003E7
PAUSE_USED                        00000001
PBP_HARDWAREDEF                   
PBP_PATH                          C:\PROGRAM FILES (X86)\PBP3\
PC                                00000FF9
PCIE                              00000006
PCL                               00000FF9
MPASM 5.75  MPU-5X RECEIVER MOMENTARY MODE-1   4-2-2018  15:19:27         PAGE 180


SYMBOL TABLE
  LABEL                             VALUE 

PCLATH                            00000FFA
PCLATU                            00000FFB
PD                                00000002
PDC0                              00000000
PDC1                              00000001
PDC2                              00000002
PDC3                              00000003
PDC4                              00000004
PDC5                              00000005
PDC6                              00000006
PEIE                              00000006
PEIE_GIEL                         00000006
PEN                               00000002
PGC                               00000006
PGD                               00000007
PIE1                              00000F9D
PIE2                              00000FA0
PIE3                              00000FA3
PIE4                              00000F7A
PIE5                              00000F7D
PIR                               00000F9E
PIR1                              00000F9E
PIR2                              00000FA1
PIR3                              00000FA4
PIR4                              00000F7B
PIR5                              00000F7E
PLLEN                             00000006
PLLRDY                            00000007
PLUSW0                            00000FEB
PLUSW1                            00000FE3
PLUSW2                            00000FDB
PMD0                              00000F3F
PMD1                              00000F3E
PMD2                              00000F3D
POR                               00000001
PORTA                             00000F80
PORTB                             00000F81
PORTC                             00000F82
PORTE                             00000F84
POSTDEC0                          00000FED
POSTDEC1                          00000FE5
POSTDEC2                          00000FDD
POSTINC0                          00000FEE
POSTINC1                          00000FE6
POSTINC2                          00000FDE
PR2                               00000FBB
PR4                               00000F52
PR6                               00000F4B
PREINC0                           00000FEC
PREINC1                           00000FE4
PREINC2                           00000FDC
PREV_ALT                          00000000
PREV_BANK                         00000000
MPASM 5.75  MPU-5X RECEIVER MOMENTARY MODE-1   4-2-2018  15:19:27         PAGE 181


SYMBOL TABLE
  LABEL                             VALUE 

PRISD                             00000002
PROD                              00000FF3
PRODH                             00000FF4
PRODL                             00000FF3
PRSEN                             00000007
PSA                               00000003
PSS1AC0                           00000002
PSS1AC1                           00000003
PSS1BD0                           00000000
PSS1BD1                           00000001
PSS2AC0                           00000002
PSS2AC1                           00000003
PSS2BD0                           00000000
PSS2BD1                           00000001
PSS3AC0                           00000002
PSS3AC1                           00000003
PSS3BD0                           00000000
PSS3BD1                           00000001
PSSAC0                            00000002
PSSAC1                            00000003
PSSBD0                            00000000
PSSBD1                            00000001
PSTR1CON                          00000FB9
PSTR2CON                          00000F63
PSTR3CON                          00000F5A
PSTRCON                           00000FB9
PVCFG0                            00000002
PVCFG1                            00000003
PWM1CON                           00000FB7
PWM2CON                           00000F65
PWM3CON                           00000F5C
PWMCON                            00000FB7
R                                 00000002
R0                                00000002
R1                                00000004
R2                                00000006
R3                                00000008
R4                                0000000A
R5                                0000000C
R6                                0000000E
R7                                00000010
R8                                00000012
RA0                               00000000
RA1                               00000001
RA2                               00000002
RA3                               00000003
RA4                               00000004
RA5                               00000005
RA6                               00000006
RA7                               00000007
RAM_BANKS                         00000010
RAM_END                           00000F37
RAM_START                         00000000
MPASM 5.75  MPU-5X RECEIVER MOMENTARY MODE-1   4-2-2018  15:19:27         PAGE 182


SYMBOL TABLE
  LABEL                             VALUE 

RB0                               00000000
RB1                               00000001
RB2                               00000002
RB3                               00000003
RB4                               00000004
RB5                               00000005
RB6                               00000006
RB7                               00000007
RBIE                              00000003
RBIF                              00000000
RBIP                              00000000
RBPU                              00000007
RC0                               00000000
RC1                               00000001
RC1IE                             00000005
RC1IF                             00000005
RC1IP                             00000005
RC1REG                            00000FAE
RC1STA                            00000FAB
RC2                               00000002
RC2IE                             00000005
RC2IF                             00000005
RC2IP                             00000005
RC2REG                            00000F74
RC2STA                            00000F71
RC3                               00000003
RC4                               00000004
RC5                               00000005
RC6                               00000006
RC7                               00000007
RCEN                              00000003
RCIDL                             00000006
RCIE                              00000005
RCIF                              00000005
RCIP                              00000005
RCON                              00000FD0
RCREG                             00000FAE
RCREG1                            00000FAE
RCREG2                            00000F74
RCSTA                             00000FAB
RCSTA1                            00000FAB
RCSTA2                            00000F71
RD                                00000000
RD16                              00000001
RE3                               00000003
RESET_ORG                         00000000
RI                                00000004
RM1                               00000014
RM2                               00000015
RR1                               00000016
RR2                               00000017
RS1                               00000018
RS2                               00000019
MPASM 5.75  MPU-5X RECEIVER MOMENTARY MODE-1   4-2-2018  15:19:27         PAGE 183


SYMBOL TABLE
  LABEL                             VALUE 

RSEN                              00000001
RST?RP                            
RX                                00000007
RX1                               00000007
RX2                               00000007
RX9                               00000006
RX91                              00000006
RX92                              00000006
RX9D                              00000000
RX9D1                             00000000
RX9D2                             00000000
R_NOT_W                           00000002
R_W                               00000002
S                                 00000003
SBCDE                             00000002
SBOREN                            00000006
SCIE                              00000005
SCK                               00000003
SCK1                              00000003
SCK2                              00000001
SCKP                              00000004
SCL                               00000003
SCL1                              00000003
SCL2                              00000001
SCS0                              00000000
SCS1                              00000001
SDA                               00000004
SDA1                              00000004
SDA2                              00000002
SDAHT                             00000003
SDELAY_1200                       0000033D
SDELAY_2400                       0000019D
SDELAY_300                        00000D01
SDELAY_9600                       00000064
SDI                               00000004
SDI1                              00000004
SDI2                              00000002
SDO                               00000005
SDO1                              00000005
SDO2                              00000003
SEN                               00000000
SENDB                             00000003
SENDB1                            00000003
SENDB2                            00000003
SERDELAY_USED                     00000001
SERMODE?C                         
SEROUT                            00000004
SEROUT?C                          
SEROUT_USED                       00000001
SERPIN?T                          
SLRA                              00000000
SLRB                              00000001
SLRC                              00000002
MPASM 5.75  MPU-5X RECEIVER MOMENTARY MODE-1   4-2-2018  15:19:27         PAGE 184


SYMBOL TABLE
  LABEL                             VALUE 

SLRCON                            00000F60
SMP                               00000007
SOSCGO                            00000003
SOSCRUN                           00000006
SP0                               00000000
SP1                               00000001
SP1BRG                            00000FAF
SP1BRGH                           00000FB0
SP2                               00000002
SP2BRG                            00000F75
SP2BRGH                           00000F76
SP3                               00000003
SP4                               00000004
SPBRG                             00000FAF
SPBRG1                            00000FAF
SPBRG2                            00000F75
SPBRGH                            00000FB0
SPBRGH1                           00000FB0
SPBRGH2                           00000F76
SPEN                              00000007
SPEN1                             00000007
SPEN2                             00000007
SRCLK0                            00000004
SRCLK1                            00000005
SRCLK2                            00000006
SRCON0                            00000F47
SRCON1                            00000F46
SREN                              00000005
SREN1                             00000005
SREN2                             00000005
SRI                               00000000
SRLEN                             00000007
SRNQ                              00000005
SRNQEN                            00000002
SRPR                              00000000
SRPS                              00000001
SRQ                               00000004
SRQEN                             00000003
SRRC1E                            00000000
SRRC2E                            00000001
SRRCKE                            00000002
SRRPE                             00000003
SRSC1E                            00000004
SRSC2E                            00000005
SRSCKE                            00000006
SRSPE                             00000007
SS                                00000005
SS1                               00000005
SS2                               00000000
SSP1ADD                           00000FC8
SSP1BUF                           00000FC9
SSP1CON1                          00000FC6
SSP1CON2                          00000FC5
MPASM 5.75  MPU-5X RECEIVER MOMENTARY MODE-1   4-2-2018  15:19:27         PAGE 185


SYMBOL TABLE
  LABEL                             VALUE 

SSP1CON3                          00000FCB
SSP1IE                            00000003
SSP1IF                            00000003
SSP1IP                            00000003
SSP1MSK                           00000FCA
SSP1STAT                          00000FC7
SSP2ADD                           00000F6E
SSP2BUF                           00000F6F
SSP2CON1                          00000F6C
SSP2CON2                          00000F6B
SSP2CON3                          00000F69
SSP2IE                            00000007
SSP2IF                            00000007
SSP2IP                            00000007
SSP2MSK                           00000F6A
SSP2STAT                          00000F6D
SSPADD                            00000FC8
SSPBUF                            00000FC9
SSPCON1                           00000FC6
SSPCON2                           00000FC5
SSPCON3                           00000FCB
SSPEN                             00000005
SSPIE                             00000003
SSPIF                             00000003
SSPIP                             00000003
SSPM0                             00000000
SSPM1                             00000001
SSPM2                             00000002
SSPM3                             00000003
SSPMSK                            00000FCA
SSPOV                             00000006
SSPSTAT                           00000FC7
STATUS                            00000FD8
STKFUL                            00000007
STKOVF                            00000007
STKPTR                            00000FFC
STKPTR0                           00000000
STKPTR1                           00000001
STKPTR2                           00000002
STKPTR3                           00000003
STKPTR4                           00000004
STKUNF                            00000006
STOP?                             
STR1A                             00000000
STR1B                             00000001
STR1C                             00000002
STR1D                             00000003
STR1SYNC                          00000004
STR2A                             00000000
STR2B                             00000001
STR2C                             00000002
STR2D                             00000003
STR2SYNC                          00000004
MPASM 5.75  MPU-5X RECEIVER MOMENTARY MODE-1   4-2-2018  15:19:27         PAGE 186


SYMBOL TABLE
  LABEL                             VALUE 

STR3A                             00000000
STR3B                             00000001
STR3C                             00000002
STR3D                             00000003
STR3SYNC                          00000004
SWDTE                             00000000
SWDTEN                            00000000
SYNC                              00000004
SYNC1                             00000004
SYNC2                             00000004
T08BIT                            00000006
T0CKI                             00000004
T0CON                             00000FD5
T0CS                              00000005
T0IE                              00000005
T0IF                              00000002
T0PS0                             00000000
T0PS1                             00000001
T0PS2                             00000002
T0SE                              00000004
T1CKI                             00000000
T1CKPS0                           00000004
T1CKPS1                           00000005
T1CON                             00000FCD
T1G                               00000005
T1GCON                            00000FCC
T1GGO                             00000003
T1GGO_NOT_DONE                    00000003
T1GPOL                            00000006
T1GSPM                            00000004
T1GSS0                            00000000
T1GSS1                            00000001
T1GTM                             00000005
T1GVAL                            00000002
T1G_DONE                          00000003
T1OSCEN                           00000003
T1OSI                             00000001
T1OSO                             00000000
T1RD16                            00000001
T1SOSCEN                          00000003
T1SYNC                            00000002
T2CKPS0                           00000000
T2CKPS1                           00000001
T2CON                             00000FBA
T2OUTPS0                          00000003
T2OUTPS1                          00000004
T2OUTPS2                          00000005
T2OUTPS3                          00000006
T3CKI_PORTB                       00000005
T3CKI_PORTC                       00000000
T3CKPS0                           00000004
T3CKPS1                           00000005
T3CON                             00000FB1
MPASM 5.75  MPU-5X RECEIVER MOMENTARY MODE-1   4-2-2018  15:19:27         PAGE 187


SYMBOL TABLE
  LABEL                             VALUE 

T3G                               00000000
T3GCON                            00000FB4
T3GGO                             00000003
T3GGO_NOT_DONE                    00000003
T3GPOL                            00000006
T3GSPM                            00000004
T3GSS0                            00000000
T3GSS1                            00000001
T3GTM                             00000005
T3GVAL                            00000002
T3G_DONE                          00000003
T3OSCEN                           00000003
T3RD16                            00000001
T3SOSCEN                          00000003
T4CKPS0                           00000000
T4CKPS1                           00000001
T4CON                             00000F51
T4OUTPS0                          00000003
T4OUTPS1                          00000004
T4OUTPS2                          00000005
T4OUTPS3                          00000006
T5CKI                             00000002
T5CKPS0                           00000004
T5CKPS1                           00000005
T5CON                             00000F4E
T5G                               00000004
T5GCON                            00000F4D
T5GGO                             00000003
T5GGO_NOT_DONE                    00000003
T5GPOL                            00000006
T5GSPM                            00000004
T5GSS0                            00000000
T5GSS1                            00000001
T5GTM                             00000005
T5GVAL                            00000002
T5G_DONE                          00000003
T5RD16                            00000001
T5SOSCEN                          00000003
T5SYNC                            00000002
T6CKPS0                           00000000
T6CKPS1                           00000001
T6CON                             00000F4A
T6OUTPS0                          00000003
T6OUTPS1                          00000004
T6OUTPS2                          00000005
T6OUTPS3                          00000006
TABLAT                            00000FF5
TBLPTR                            00000FF6
TBLPTRH                           00000FF7
TBLPTRL                           00000FF6
TBLPTRU                           00000FF8
TGEN                              00000004
TMR0                              00000FD6
MPASM 5.75  MPU-5X RECEIVER MOMENTARY MODE-1   4-2-2018  15:19:27         PAGE 188


SYMBOL TABLE
  LABEL                             VALUE 

TMR0H                             00000FD7
TMR0IE                            00000005
TMR0IF                            00000002
TMR0IP                            00000002
TMR0L                             00000FD6
TMR0ON                            00000007
TMR1                              00000FCE
TMR1CS0                           00000006
TMR1CS1                           00000007
TMR1GE                            00000007
TMR1GIE                           00000000
TMR1GIF                           00000000
TMR1GIP                           00000000
TMR1H                             00000FCF
TMR1IE                            00000000
TMR1IF                            00000000
TMR1IP                            00000000
TMR1L                             00000FCE
TMR1MD                            00000000
TMR1ON                            00000000
TMR2                              00000FBC
TMR2IE                            00000001
TMR2IF                            00000001
TMR2IP                            00000001
TMR2MD                            00000001
TMR2ON                            00000002
TMR3                              00000FB2
TMR3CS0                           00000006
TMR3CS1                           00000007
TMR3GE                            00000007
TMR3GIE                           00000001
TMR3GIF                           00000001
TMR3GIP                           00000001
TMR3H                             00000FB3
TMR3IE                            00000001
TMR3IF                            00000001
TMR3IP                            00000001
TMR3L                             00000FB2
TMR3MD                            00000002
TMR3ON                            00000000
TMR4                              00000F53
TMR4IE                            00000000
TMR4IF                            00000000
TMR4IP                            00000000
TMR4MD                            00000003
TMR4ON                            00000002
TMR5                              00000F4F
TMR5CS0                           00000006
TMR5CS1                           00000007
TMR5GE                            00000007
TMR5GIE                           00000002
TMR5GIF                           00000002
TMR5GIP                           00000002
MPASM 5.75  MPU-5X RECEIVER MOMENTARY MODE-1   4-2-2018  15:19:27         PAGE 189


SYMBOL TABLE
  LABEL                             VALUE 

TMR5H                             00000F50
TMR5IE                            00000001
TMR5IF                            00000001
TMR5IP                            00000001
TMR5L                             00000F4F
TMR5MD                            00000004
TMR5ON                            00000000
TMR6                              00000F4C
TMR6IE                            00000002
TMR6IF                            00000002
TMR6IP                            00000002
TMR6MD                            00000005
TMR6ON                            00000002
TO                                00000003
TOS                               00000FFD
TOSH                              00000FFE
TOSL                              00000FFD
TOSU                              00000FFF
TRIGSEL                           00000007
TRISA                             00000F92
TRISA0                            00000000
TRISA1                            00000001
TRISA2                            00000002
TRISA3                            00000003
TRISA4                            00000004
TRISA5                            00000005
TRISA6                            00000006
TRISA7                            00000007
TRISB                             00000F93
TRISB0                            00000000
TRISB1                            00000001
TRISB2                            00000002
TRISB3                            00000003
TRISB4                            00000004
TRISB5                            00000005
TRISB6                            00000006
TRISB7                            00000007
TRISC                             00000F94
TRISC0                            00000000
TRISC1                            00000001
TRISC2                            00000002
TRISC3                            00000003
TRISC4                            00000004
TRISC5                            00000005
TRISC6                            00000006
TRISC7                            00000007
TRISE                             00000F96
TRMT                              00000001
TRMT1                             00000001
TRMT2                             00000001
TUN0                              00000000
TUN1                              00000001
TUN2                              00000002
MPASM 5.75  MPU-5X RECEIVER MOMENTARY MODE-1   4-2-2018  15:19:27         PAGE 190


SYMBOL TABLE
  LABEL                             VALUE 

TUN3                              00000003
TUN4                              00000004
TUN5                              00000005
TX                                00000006
TX1                               00000006
TX1IE                             00000004
TX1IF                             00000004
TX1IP                             00000004
TX1REG                            00000FAD
TX1STA                            00000FAC
TX2                               00000006
TX2IE                             00000004
TX2IF                             00000004
TX2IP                             00000004
TX2REG                            00000F73
TX2STA                            00000F72
TX9                               00000006
TX91                              00000006
TX92                              00000006
TX9D                              00000000
TX9D1                             00000000
TX9D2                             00000000
TXEN                              00000005
TXEN1                             00000005
TXEN2                             00000005
TXIE                              00000004
TXIF                              00000004
TXIP                              00000004
TXREG                             00000FAD
TXREG1                            00000FAD
TXREG2                            00000F73
TXSTA                             00000FAC
TXSTA1                            00000FAC
TXSTA2                            00000F72
UA                                00000001
UART1MD                           00000006
UART2MD                           00000007
VDIRMAG                           00000007
VPP                               00000003
VREFCON0                          00000F42
VREFCON1                          00000F41
VREFCON2                          00000F40
VREFM                             00000002
VREFN                             00000002
VREFP                             00000003
W                                 00000000
WCOL                              00000007
WDTCON                            00000FD1
WPUB                              00000F61
WPUB0                             00000000
WPUB1                             00000001
WPUB2                             00000002
WPUB3                             00000003
MPASM 5.75  MPU-5X RECEIVER MOMENTARY MODE-1   4-2-2018  15:19:27         PAGE 191


SYMBOL TABLE
  LABEL                             VALUE 

WPUB4                             00000004
WPUB5                             00000005
WPUB6                             00000006
WPUB7                             00000007
WPUE3                             00000007
WR                                00000001
WREG                              00000FE8
WREN                              00000002
WRERR                             00000003
WUE                               00000001
Z                                 00000002
_ADO                              _PORTA??3
_BELL                             00000007
_BKSP                             00000008
_BLUE_LED                         _PORTA??0
_BOREN_NOSLP_2L                   000000FD
_BOREN_OFF_2L                     000000F9
_BOREN_ON_2L                      000000FB
_BOREN_SBORDIS_2L                 000000FF
_BORV_190_2L                      000000FF
_BORV_220_2L                      000000F7
_BORV_250_2L                      000000EF
_BORV_285_2L                      000000E7
_Bright                           00000016
_CCP2MX_PORTB3_3H                 000000FE
_CCP2MX_PORTC1_3H                 000000FF
_CCP3MX_PORTB5_3H                 000000FF
_CCP3MX_PORTC6_3H                 000000FB
_CLRLCD                           0000000C
_CLS                              00000000
_CONFIG1H                         00300001
_CONFIG2H                         00300003
_CONFIG2L                         00300002
_CONFIG3H                         00300005
_CONFIG4L                         00300006
_CONFIG5H                         00300009
_CONFIG5L                         00300008
_CONFIG6H                         0030000B
_CONFIG6L                         0030000A
_CONFIG7H                         0030000D
_CONFIG7L                         0030000C
_CP0_OFF_5L                       000000FF
_CP0_ON_5L                        000000FE
_CP1_OFF_5L                       000000FF
_CP1_ON_5L                        000000FD
_CP2_OFF_5L                       000000FF
_CP2_ON_5L                        000000FB
_CP3_OFF_5L                       000000FF
_CP3_ON_5L                        000000F7
_CPB_OFF_5H                       000000FF
_CPB_ON_5H                        000000BF
_CPD_OFF_5H                       000000FF
_CPD_ON_5H                        0000007F
MPASM 5.75  MPU-5X RECEIVER MOMENTARY MODE-1   4-2-2018  15:19:27         PAGE 192


SYMBOL TABLE
  LABEL                             VALUE 

_CR                               0000000D
_DATA_OUT_BYPASS                  00000001
_DEBUG_OFF_4L                     000000FF
_DEBUG_ON_4L                      0000007F
_DEVID1                           003FFFFE
_DEVID2                           003FFFFF
_DOZE_UNTIL_PB_PRESSED            00000284
_DOZE_UNTIL_PB_PRESSED1           0000031A
_Dim                              0000001E
_EBTR0_OFF_7L                     000000FF
_EBTR0_ON_7L                      000000FE
_EBTR1_OFF_7L                     000000FF
_EBTR1_ON_7L                      000000FD
_EBTR2_OFF_7L                     000000FF
_EBTR2_ON_7L                      000000FB
_EBTR3_OFF_7L                     000000FF
_EBTR3_ON_7L                      000000F7
_EBTRB_OFF_7H                     000000FF
_EBTRB_ON_7H                      000000BF
_ERASE_COMPLETE                   000003C2
_FCMEN_OFF_1H                     000000BF
_FCMEN_ON_1H                      000000FF
_FLASH_CS                         _PORTC??1
_FOSC_ECHPIO6_1H                  000000F5
_FOSC_ECHP_1H                     000000F4
_FOSC_ECLPIO6_1H                  000000FD
_FOSC_ECLP_1H                     000000FC
_FOSC_ECMPIO6_1H                  000000FB
_FOSC_ECMP_1H                     000000FA
_FOSC_HSHP_1H                     000000F2
_FOSC_HSMP_1H                     000000F3
_FOSC_INTIO67_1H                  000000F8
_FOSC_INTIO7_1H                   000000F9
_FOSC_LP_1H                       000000F0
_FOSC_RCIO6_1H                    000000F7
_FOSC_RC_1H                       000000F6
_FOSC_XT_1H                       000000F1
_GRN_LED                          _PORTC??0
_HFOFST_OFF_3H                    000000F7
_HFOFST_ON_3H                     000000FF
_HOME                             00000001
_IDLOC0                           00200000
_IDLOC1                           00200001
_IDLOC2                           00200002
_IDLOC3                           00200003
_IDLOC4                           00200004
_IDLOC5                           00200005
_IDLOC6                           00200006
_IDLOC7                           00200007
_IESO_OFF_1H                      0000007F
_IESO_ON_1H                       000000FF
_INIT                             000000D6
_INT_9250                         _PORTB??3
MPASM 5.75  MPU-5X RECEIVER MOMENTARY MODE-1   4-2-2018  15:19:27         PAGE 193


SYMBOL TABLE
  LABEL                             VALUE 

_LINE1                            00000040
_LINE2                            00000054
_LINE3                            00000068
_LINE4                            0000007C
_LITEOFF                          0000000F
_LITEON                           0000000E
_LSBFIRST                         00000000
_LSBPOST                          00000003
_LSBPRE                           00000001
_LVP_OFF_4L                       000000FB
_LVP_ON_4L                        000000FF
_LightsOff                        00000010
_LightsOn                         00000014
_MCLRE_EXTMCLR_3H                 000000FF
_MCLRE_INTMCLR_3H                 0000007F
_MSBFIRST                         00000001
_MSBPOST                          00000002
_MSBPRE                           00000000
_N1200                            00000005
_N2400                            00000004
_N300                             00000007
_N9600                            00000006
_NOCURS                           00000004
_ON1200                           0000000D
_ON2400                           0000000C
_ON300                            0000000F
_ON9600                           0000000E
_OT1200                           00000009
_OT2400                           00000008
_OT300                            0000000B
_OT9600                           0000000A
_P2BMX_PORTB5_3H                  000000FF
_P2BMX_PORTC0_3H                  000000DF
_PB                               _PORTB??5
_PBADEN_OFF_3H                    000000FD
_PBADEN_ON_3H                     000000FF
_PLLCFG_OFF_1H                    000000EF
_PLLCFG_ON_1H                     000000FF
_PORTA??0                         PORTA, 000h
_PORTA??1                         PORTA, 001h
_PORTA??2                         PORTA, 002h
_PORTA??3                         PORTA, 003h
_PORTA??5                         PORTA, 005h
_PORTB??0                         PORTB, 000h
_PORTB??1                         PORTB, 001h
_PORTB??2                         PORTB, 002h
_PORTB??3                         PORTB, 003h
_PORTB??4                         PORTB, 004h
_PORTB??5                         PORTB, 005h
_PORTC??0                         PORTC, 000h
_PORTC??1                         PORTC, 001h
_PORTC??2                         PORTC, 002h
_PORTC??3                         PORTC, 003h
MPASM 5.75  MPU-5X RECEIVER MOMENTARY MODE-1   4-2-2018  15:19:27         PAGE 194


SYMBOL TABLE
  LABEL                             VALUE 

_PORTC??4                         PORTC, 004h
_PORTC??5                         PORTC, 005h
_PORTC??6                         PORTC, 006h
_PORTC??7                         PORTC, 007h
_PORTH                            00000F82
_PORTL                            00000F81
_POSCMD                           00000010
_PRESET_OUTPUTS                   000000FC
_PRICLKEN_OFF_1H                  000000DF
_PRICLKEN_ON_1H                   000000FF
_PROGRAM_RCVR                     00000326
_PWRTEN_OFF_2L                    000000FF
_PWRTEN_ON_2L                     000000FE
_PWR_ON                           _PORTA??2
_RCVR_D0                          _PORTA??5
_RCVR_D1                          _PORTC??2
_RCVR_VT                          _PORTC??6
_RED_LED                          _PORTA??1
_SCK                              _PORTC??3
_SCL                              _PORTB??1
_SDA                              _PORTB??2
_SDI                              _PORTC??5
_SDO                              _PORTC??4
_STVREN_OFF_4L                    000000FE
_STVREN_ON_4L                     000000FF
_SWITCH_PRESSES                   0000001E
_SW_OFF                           0000001A
_SW_ON                            0000001C
_T1200                            00000001
_T2400                            00000000
_T300                             00000003
_T3CMX_PORTB5_3H                  000000EF
_T3CMX_PORTC0_3H                  000000FF
_T9600                            00000002
_TAB                              00000009
_TRISH                            00000F94
_TRISL                            00000F93
_UART_RX                          _PORTB??0
_UART_TX                          _PORTC??7
_UnitOff                          0000001A
_UnitOn                           00000012
_UnitsOff                         0000001C
_VBATT_MON                        _PORTB??4
_VERIFY_XMTR_WORKS                000004F6
_WAKE_UP                          00000292
_WDTEN_NOSLP_2H                   000000FD
_WDTEN_OFF_2H                     000000FC
_WDTEN_ON_2H                      000000FF
_WDTEN_SWON_2H                    000000FE
_WDTPS_1024_2H                    000000EB
_WDTPS_128_2H                     000000DF
_WDTPS_16384_2H                   000000FB
_WDTPS_16_2H                      000000D3
MPASM 5.75  MPU-5X RECEIVER MOMENTARY MODE-1   4-2-2018  15:19:27         PAGE 195


SYMBOL TABLE
  LABEL                             VALUE 

_WDTPS_1_2H                       000000C3
_WDTPS_2048_2H                    000000EF
_WDTPS_256_2H                     000000E3
_WDTPS_2_2H                       000000C7
_WDTPS_32768_2H                   000000FF
_WDTPS_32_2H                      000000D7
_WDTPS_4096_2H                    000000F3
_WDTPS_4_2H                       000000CB
_WDTPS_512_2H                     000000E7
_WDTPS_64_2H                      000000DB
_WDTPS_8192_2H                    000000F7
_WDTPS_8_2H                       000000CF
_WRT0_OFF_6L                      000000FF
_WRT0_ON_6L                       000000FE
_WRT1_OFF_6L                      000000FF
_WRT1_ON_6L                       000000FD
_WRT2_OFF_6L                      000000FF
_WRT2_ON_6L                       000000FB
_WRT3_OFF_6L                      000000FF
_WRT3_ON_6L                       000000F7
_WRTB_OFF_6H                      000000FF
_WRTB_ON_6H                       000000BF
_WRTC_OFF_6H                      000000FF
_WRTC_ON_6H                       000000DF
_WRTD_OFF_6H                      000000FF
_WRTD_ON_6H                       0000007F
_XINST_OFF_4L                     000000BF
_XINST_ON_4L                      000000FF
__18F26K22                        00000001
main                              000000B8
pauseloop                         00000086
pauseush                          000000A6
pauseusloop                       000000A4
serdelay                          0000005A
seroutbit                         0000002C
seroutloop                        0000001C
seroutnorm                        00000046
sertable                          0000007A


MEMORY USAGE MAP ('X' = Used,  '-' = Unused)

0000 : XXXXXXXXXXXXXXXX XXXXXXXXXXXXXXXX XXXXXXXXXXXXXXXX XXXXXXXXXXXXXXXX
0040 : XXXXXXXXXXXXXXXX XXXXXXXXXXXXXXXX XXXXXXXXXXXXXXXX XXXXXXXXXXXXXXXX
0080 : XXXXXXXXXXXXXXXX XXXXXXXXXXXXXXXX XXXXXXXXXXXXXXXX XXXXXXXXXXXXXXXX
00C0 : XXXXXXXXXXXXXXXX XXXXXXXXXXXXXXXX XXXXXXXXXXXXXXXX XXXXXXXXXXXXXXXX
MPASM 5.75  MPU-5X RECEIVER MOMENTARY MODE-1   4-2-2018  15:19:27         PAGE 196


MEMORY USAGE MAP ('X' = Used,  '-' = Unused)


0100 : XXXXXXXXXXXXXXXX XXXXXXXXXXXXXXXX XXXXXXXXXXXXXXXX XXXXXXXXXXXXXXXX
0140 : XXXXXXXXXXXXXXXX XXXXXXXXXXXXXXXX XXXXXXXXXXXXXXXX XXXXXXXXXXXXXXXX
0180 : XXXXXXXXXXXXXXXX XXXXXXXXXXXXXXXX XXXXXXXXXXXXXXXX XXXXXXXXXXXXXXXX
01C0 : XXXXXXXXXXXXXXXX XXXXXXXXXXXXXXXX XXXXXXXXXXXXXXXX XXXXXXXXXXXXXXXX
0200 : XXXXXXXXXXXXXXXX XXXXXXXXXXXXXXXX XXXXXXXXXXXXXXXX XXXXXXXXXXXXXXXX
0240 : XXXXXXXXXXXXXXXX XXXXXXXXXXXXXXXX XXXXXXXXXXXXXXXX XXXXXXXXXXXXXXXX
0280 : XXXXXXXXXXXXXXXX XXXXXXXXXXXXXXXX XXXXXXXXXXXXXXXX XXXXXXXXXXXXXXXX
02C0 : XXXXXXXXXXXXXXXX XXXXXXXXXXXXXXXX XXXXXXXXXXXXXXXX XXXXXXXXXXXXXXXX
0300 : XXXXXXXXXXXXXXXX XXXXXXXXXXXXXXXX XXXXXXXXXXXXXXXX XXXXXXXXXXXXXXXX
0340 : XXXXXXXXXXXXXXXX XXXXXXXXXXXXXXXX XXXXXXXXXXXXXXXX XXXXXXXXXXXXXXXX
0380 : XXXXXXXXXXXXXXXX XXXXXXXXXXXXXXXX XXXXXXXXXXXXXXXX XXXXXXXXXXXXXXXX
03C0 : XXXXXXXXXXXXXXXX XXXXXXXXXXXXXXXX XXXXXXXXXXXXXXXX XXXXXXXXXXXXXXXX
0400 : XXXXXXXXXXXXXXXX XXXXXXXXXXXXXXXX XXXXXXXXXXXXXXXX XXXXXXXXXXXXXXXX
0440 : XXXXXXXXXXXXXXXX XXXXXXXXXXXXXXXX XXXXXXXXXXXXXXXX XXXXXXXXXXXXXXXX
0480 : XXXXXXXXXXXXXXXX XXXXXXXXXXXXXXXX XXXXXXXXXXXXXXXX XXXXXXXXXXXXXXXX
04C0 : XXXXXXXXXXXXXXXX XXXXXXXXXXXXXXXX XXXXXXXXXXXXXXXX XXXXXXXXXXXXXXXX
0500 : XXXXXXXXXXXXXXXX ---------------- ---------------- ----------------
0000 : -XXX-XX-XXXXXX-- ---------------- ---------------- ----------------

All other memory blocks unused.

Program Memory Bytes Used:  1307
Program Memory Bytes Free: 64229


Errors   :     0
Warnings :     0 reported,     0 suppressed
Messages :     0 reported,     0 suppressed

