MPASM 5.75                   I2C SCANNER.ASM   3-19-2018  12:35:42         PAGE  1


LOC  OBJECT CODE     LINE SOURCE TEXT
  VALUE

                      00001 
                      00002 ; PICBASIC PRO(TM) Compiler 3.1.1.4, (c) 1997, 2018 ME Labs, Inc. All Rights Reserved. 
  00000001            00003 MPASMX_USED                     EQU     1
                      00004 
                      00005 #define PBP_PATH        C:\PROGRAM FILES (X86)\PBP3\
                      00006 
                      00007 
                      00008 
                      00009 
                      00017         LIST
                      00018         LIST p = 16F688, r = dec, w = -302, c = 255
                      00019         INCLUDE "P16F688.INC"   ; MPASM  Header
                      00001         LIST
                      00002 
                      00003 ;==========================================================================
                      00004 ; Build date : Jul 02 2017
                      00005 ;  MPASM PIC16F688 processor include
                      00006 ; 
                      00007 ;  (c) Copyright 1999-2017 Microchip Technology, All rights reserved
                      00008 ;==========================================================================
                      00009 
                      00514         LIST
                      00022         LIST
                      00023 
                      00024 
                      00025 PBP_HARDWAREDEF  macro
                      00026   endm
                      00027 
                      00028 
2007   3FFC           00029     __config _INTRC_OSC_NOCLKOUT & _WDT_ON & _MCLRE_ON & _CP_OFF
                      00030 
                      00031 
                      00032 
                      00033 ; Define statements.
                      00034 ; C:\PROGRAM FILES (X86)\PBP3\DEVICES\PIC16F688.PBPINC  00138   DEFINE  CODE_SIZE 4
                      00035 #define         CODE_SIZE                4
                      00036 ; C:\USERS\ANDREW MCENTEE\DOCUMENTS\DEVELOPMENT\PBP3\16F688 PROGRAMS\I2C SCANNER.PBP    00012   define OSC 8
                      00037 #define         OSC              8
                      00038 
  00000020            00039 RAM_START                       EQU     00020h
  0000016F            00040 RAM_END                         EQU     0016Fh
  00000003            00041 RAM_BANKS                       EQU     00003h
  00000020            00042 BANK0_START                     EQU     00020h
  0000007F            00043 BANK0_END                       EQU     0007Fh
  000000A0            00044 BANK1_START                     EQU     000A0h
  000000EF            00045 BANK1_END                       EQU     000EFh
  00000120            00046 BANK2_START                     EQU     00120h
  0000016F            00047 BANK2_END                       EQU     0016Fh
  00002100            00048 EEPROM_START                    EQU     02100h
  000021FF            00049 EEPROM_END                      EQU     021FFh
                      00050 
                      00051 ; C:\PROGRAM FILES (X86)\PBP3\PBPPIC14.RAM      00012   A00020  R0      VAR     WORD BANK0 SYSTEM       ' System Register
  00000020            00052 R0                              EQU     RAM_START + 000h
MPASM 5.75                   I2C SCANNER.ASM   3-19-2018  12:35:42         PAGE  2


LOC  OBJECT CODE     LINE SOURCE TEXT
  VALUE

                      00053 ; C:\PROGRAM FILES (X86)\PBP3\PBPPIC14.RAM      00013   A00022  R1      VAR     WORD BANK0 SYSTEM       ' System Register
  00000022            00054 R1                              EQU     RAM_START + 002h
                      00055 ; C:\PROGRAM FILES (X86)\PBP3\PBPPIC14.RAM      00014   A00024  R2      VAR     WORD BANK0 SYSTEM       ' System Register
  00000024            00056 R2                              EQU     RAM_START + 004h
                      00057 ; C:\PROGRAM FILES (X86)\PBP3\PBPPIC14.RAM      00015   A00026  R3      VAR     WORD BANK0 SYSTEM       ' System Register
  00000026            00058 R3                              EQU     RAM_START + 006h
                      00059 ; C:\PROGRAM FILES (X86)\PBP3\PBPPIC14.RAM      00016   A00028  R4      VAR     WORD BANK0 SYSTEM       ' System Register
  00000028            00060 R4                              EQU     RAM_START + 008h
                      00061 ; C:\PROGRAM FILES (X86)\PBP3\PBPPIC14.RAM      00017   A0002A  R5      VAR     WORD BANK0 SYSTEM       ' System Register
  0000002A            00062 R5                              EQU     RAM_START + 00Ah
                      00063 ; C:\PROGRAM FILES (X86)\PBP3\PBPPIC14.RAM      00018   A0002C  R6      VAR     WORD BANK0 SYSTEM       ' System Register
  0000002C            00064 R6                              EQU     RAM_START + 00Ch
                      00065 ; C:\PROGRAM FILES (X86)\PBP3\PBPPIC14.RAM      00019   A0002E  R7      VAR     WORD BANK0 SYSTEM       ' System Register
  0000002E            00066 R7                              EQU     RAM_START + 00Eh
                      00067 ; C:\PROGRAM FILES (X86)\PBP3\PBPPIC14.RAM      00020   A00030  R8      VAR     WORD BANK0 SYSTEM       ' System Register
  00000030            00068 R8                              EQU     RAM_START + 010h
                      00069 ; C:\PROGRAM FILES (X86)\PBP3\PBPPIC14.RAM      00026   A00032  FLAGS   VAR     BYTE BANK0 SYSTEM       ' Static flags
  00000032            00070 FLAGS                           EQU     RAM_START + 012h
                      00071 ; C:\PROGRAM FILES (X86)\PBP3\PBPPIC14.RAM      00025   A00033  GOP     VAR     BYTE BANK0 SYSTEM       ' Gen Op Parameter
  00000033            00072 GOP                             EQU     RAM_START + 013h
                      00073 ; C:\PROGRAM FILES (X86)\PBP3\PBPPIC14.RAM      00022   A00034  RM1     VAR     BYTE BANK0 SYSTEM       ' Pin 1 Mask
  00000034            00074 RM1                             EQU     RAM_START + 014h
                      00075 ; C:\PROGRAM FILES (X86)\PBP3\PBPPIC14.RAM      00024   A00035  RM2     VAR     BYTE BANK0 SYSTEM       ' Pin 2 Mask
  00000035            00076 RM2                             EQU     RAM_START + 015h
                      00077 ; C:\PROGRAM FILES (X86)\PBP3\PBPPIC14.RAM      00021   A00036  RR1     VAR     BYTE BANK0 SYSTEM       ' Pin 1 Register
  00000036            00078 RR1                             EQU     RAM_START + 016h
                      00079 ; C:\PROGRAM FILES (X86)\PBP3\PBPPIC14.RAM      00023   A00037  RR2     VAR     BYTE BANK0 SYSTEM       ' Pin 2 Register
  00000037            00080 RR2                             EQU     RAM_START + 017h
                      00081 ; C:\USERS\ANDREW MCENTEE\DOCUMENTS\DEVELOPMENT\PBP3\16F688 PROGRAMS\I2C SCANNER.PBP    00038   A00038  VALID                           var             word
  00000038            00082 _VALID                          EQU     RAM_START + 018h
                      00083 ; C:\USERS\ANDREW MCENTEE\DOCUMENTS\DEVELOPMENT\PBP3\16F688 PROGRAMS\I2C SCANNER.PBP    00036   A0003A  COUNTER                         VAR     byte
  0000003A            00084 _COUNTER                        EQU     RAM_START + 01Ah
                      00085 ; C:\USERS\ANDREW MCENTEE\DOCUMENTS\DEVELOPMENT\PBP3\16F688 PROGRAMS\I2C SCANNER.PBP    00035   A0003B  I                                       var             byte
  0000003B            00086 _I                              EQU     RAM_START + 01Bh
                      00087 ; C:\USERS\ANDREW MCENTEE\DOCUMENTS\DEVELOPMENT\PBP3\16F688 PROGRAMS\I2C SCANNER.PBP    00037   A0003C  I2C_ADDR                        var             byte
  0000003C            00088 _I2C_ADDR                       EQU     RAM_START + 01Ch
                      00089 ; C:\PROGRAM FILES (X86)\PBP3\DEVICES\PIC16F688.PBPINC  00139   PORTL   VAR     PORTA
  00000005            00090 _PORTL                          EQU      PORTA
                      00091 ; C:\PROGRAM FILES (X86)\PBP3\DEVICES\PIC16F688.PBPINC  00140   PORTH   VAR     PORTC
  00000007            00092 _PORTH                          EQU      PORTC
                      00093 ; C:\PROGRAM FILES (X86)\PBP3\DEVICES\PIC16F688.PBPINC  00141   TRISL   VAR     TRISA
  00000085            00094 _TRISL                          EQU      TRISA
                      00095 ; C:\PROGRAM FILES (X86)\PBP3\DEVICES\PIC16F688.PBPINC  00142   TRISH   VAR     TRISC
  00000087            00096 _TRISH                          EQU      TRISC
                      00097 #define _LED                    _PORTC??2
                      00098 #define _SDA                    _PORTA??5
                      00099 #define _SCL                    _PORTA??4
                      00100 #define _DSP                    _PORTA??0
                      00101 #define _PORTC??2                PORTC, 002h
                      00102 #define _PORTA??5                PORTA, 005h
                      00103 #define _PORTA??4                PORTA, 004h
                      00104 #define _PORTA??0                PORTA, 000h
                      00105 
MPASM 5.75                   I2C SCANNER.ASM   3-19-2018  12:35:42         PAGE  3


LOC  OBJECT CODE     LINE SOURCE TEXT
  VALUE

                      00106 ; Constants.
  00000000            00107 _T2400                          EQU     00000h
  00000001            00108 _T1200                          EQU     00001h
  00000002            00109 _T9600                          EQU     00002h
  00000003            00110 _T300                           EQU     00003h
  00000004            00111 _N2400                          EQU     00004h
  00000005            00112 _N1200                          EQU     00005h
  00000006            00113 _N9600                          EQU     00006h
  00000007            00114 _N300                           EQU     00007h
  00000008            00115 _OT2400                         EQU     00008h
  00000009            00116 _OT1200                         EQU     00009h
  0000000A            00117 _OT9600                         EQU     0000Ah
  0000000B            00118 _OT300                          EQU     0000Bh
  0000000C            00119 _ON2400                         EQU     0000Ch
  0000000D            00120 _ON1200                         EQU     0000Dh
  0000000E            00121 _ON9600                         EQU     0000Eh
  0000000F            00122 _ON300                          EQU     0000Fh
  00000000            00123 _MSBPRE                         EQU     00000h
  00000001            00124 _LSBPRE                         EQU     00001h
  00000002            00125 _MSBPOST                        EQU     00002h
  00000003            00126 _LSBPOST                        EQU     00003h
  00000000            00127 _LSBFIRST                       EQU     00000h
  00000001            00128 _MSBFIRST                       EQU     00001h
  00000000            00129 _CLS                            EQU     00000h
  00000001            00130 _HOME                           EQU     00001h
  00000007            00131 _BELL                           EQU     00007h
  00000008            00132 _BKSP                           EQU     00008h
  00000009            00133 _TAB                            EQU     00009h
  0000000D            00134 _CR                             EQU     0000Dh
  00000012            00135 _UnitOn                         EQU     00012h
  0000001A            00136 _UnitOff                        EQU     0001Ah
  0000001C            00137 _UnitsOff                       EQU     0001Ch
  00000014            00138 _LightsOn                       EQU     00014h
  00000010            00139 _LightsOff                      EQU     00010h
  0000001E            00140 _Dim                            EQU     0001Eh
  00000016            00141 _Bright                         EQU     00016h
                      00142         INCLUDE "I2C SCANNER.MAC"
                      00001 
                      00208         LIST
                      00143         INCLUDE "C:\PROGRAM FILES (X86)\PBP3\PBPPIC14.LIB"
                      00001 ;******************************************************************
                      00002 ;*  PBPPIC14.LIB                                                  *
                      00003 ;*                                                                *
                      00004 ;*  By        : Leonard Zerman, Jeff Schmoyer,                    *
                      00005 ;*              Darrel Taylor, Charles Leo                        *
                      00006 ;*  Notice    : Copyright (c) 2017 microEngineering Labs, Inc.    *
                      00007 ;*              All Rights Reserved                               *
                      00008 ;*  Date      : 03/27/2017                                        *
                      00009 ;*  Version   : 3.1.0                                             *
                      00010 ;*  Notes     :                                                   *
                      00011 ;******************************************************************
                      00061   LIST
                      00062 ; Oscillator is 8MHz
MPASM 5.75                   I2C SCANNER.ASM   3-19-2018  12:35:42         PAGE  4


LOC  OBJECT CODE     LINE SOURCE TEXT
  VALUE

                      01135   LIST
0000                  01136     ORG RESET_ORG               ; Reset vector usually at 0
                      01146   LIST
0000   01B2           01147         clrf    FLAGS           ; Clear all flags on reset
                      01151   LIST
0001   2900           01152         goto    INIT            ; Finish initialization
                      02629   LIST
0002   16B2           02630 I2CWRITES bsf   I2CSTOPFLAG     ; Indicate Stop after this byte
0003   1EB2           02631         btfss   I2CSTOPFLAG     ; Skip next always
0004   12B2           02632 I2CWRITE bcf    I2CSTOPFLAG     ; Don't Stop
0005   1932           02633         btfsc   I2CFIRSTFLAG    ; Check for first I2C char (command)
0006   280C           02634         goto    i2cwrite2       ; No
0007   39FE           02635         andlw   0feh            ; Make sure r/w bit clear
0008   00B3           02636         movwf   GOP             ; Save command
0009   1532           02637         bsf     I2CFIRSTFLAG    ; Indicate not first anymore
000A   1003           02638         bcf     STATUS, C       ; Clear Carry for OK return
000B   28FB           02639         goto    DONE            ; That's it for now
                      02640 
000C   1A32           02641 i2cwrite2 btfsc I2CWRITEFLAG    ; Already writing?
000D   2814           02642         goto    i2cwriteip      ; Yes
000E   00A6           02643         movwf   R3              ; Save char
000F   1632           02644         bsf     I2CWRITEFLAG    ; Indicate write
0010   202B           02645         call    i2cstart        ; Send Start condition and command
0011   1803           02646         btfsc   STATUS, C       ; Acknowledged?
0012   2819           02647         goto    i2cstop         ; No
0013   0826           02648         movf    R3, W           ; Get char back
0014   2032           02649 i2cwriteip call i2cwritec       ; Write character
0015   1803           02650         btfsc   STATUS, C       ; Acknowledged?
0016   2819           02651         goto    i2cstop         ; No
0017   1EB2           02652         btfss   I2CSTOPFLAG     ; Send stop bit?
0018   28FB           02653         goto    DONE            ; No
                      02654 
0019   2024           02655 i2cstop call    i2cdal          ; 10/8 Start data low
001A   2049           02656         call    i2cckh          ; 13/12 Set clock high (input)
001B   1132           02657         bcf     I2CFIRSTFLAG    ; 1 Reset first char flag
001C   1232           02658         bcf     I2CWRITEFLAG    ; 1 No longer writing
001D   11B2           02659         bcf     I2CREADFLAG     ; 1 No longer reading either
                      02660 ;       goto    i2cdah          ; Set data high (input) (fall through)
                      02661 
001E   0836           02662 i2cdah  movf    RR1, W          ; 1 (9/8) Get pointer to data pin
001F   0084           02663         movwf   FSR             ; 1
0020   0834           02664         movf    RM1, W          ; 1
0021                  02665 i2chigh
                      02666       ifndef I2C_INTERNAL
0021   1784           02667         bsf     FSR, 7          ; 1 Point to TRIS
                      02668       endif
0022   0480           02669         iorwf   INDF, F         ; 1 Set high (input)
0023   282A           02670         goto    i2chl           ; 2
                      02671 
0024   0836           02672 i2cdal  movf    RR1, W          ; 1 (8/6) Get pointer to data pin
0025   0084           02673         movwf   FSR             ; 1
0026   0934           02674         comf    RM1, W          ; 1
0027   0580           02675 i2clow  andwf   INDF, F         ; 1 Set low
MPASM 5.75                   I2C SCANNER.ASM   3-19-2018  12:35:42         PAGE  5


LOC  OBJECT CODE     LINE SOURCE TEXT
  VALUE

                      02676       ifndef I2C_INTERNAL
0028   1784           02677         bsf     FSR, 7          ; 1 Point to TRIS
0029   0580           02678         andwf   INDF, F         ; 1 Set to output
                      02679       endif
002A                  02680 i2chl
                      02681       ifndef I2C_SLOW
002A   0008           02682         return                  ; 2
                      02683       else
                      02684           if (OSC > 12)
                      02685         goto    $ + 1           ; 2
                      02686           endif
                      02687           if (OSC > 16)
                      02688         goto    $ + 1           ; 2
                      02689           endif
                      02690           if (OSC > 20)
                      02691         goto    $ + 1           ; 2
                      02692           endif
                      02693         goto    DONE            ; 8
                      02694       endif
                      02695 
002B   201E           02696 i2cstart call   i2cdah          ; 11/10 Make sure bus is idle
002C   2049           02697         call    i2cckh          ; 13/12
                      02698       ifdef I2C_SLOW
                      02699         call    DONERET         ; 4
                      02700       endif
002D   2024           02701         call    i2cdal          ; 10/8 Send Start condition
002E   2045           02702         call    i2cckl          ; 12/10
002F   0833           02703         movf    GOP, W          ; 1 Get command
0030   19B2           02704         btfsc   I2CREADFLAG     ; 1 / 2 Read?
0031   3801           02705         iorlw   1               ; 1 / 0 Yes, put in read bit
                      02706 
0032   00A2           02707 i2cwritec movwf R1              ; 1 Save data
0033   3008           02708         movlw   8               ; 1 8 bits to send
0034   00A3           02709         movwf   R1 + 1          ; 1 Bit counter
0035   0DA2           02710 i2cwriteloop rlf R1, F          ; 1 Get a bit to send
0036   1803           02711         btfsc   STATUS, C       ; 1 / 2 Skip if no bit
0037   201E           02712         call    i2cdah          ; 11/10 / 0 Set bit high (input)
0038   1C03           02713         btfss   STATUS, C       ; 1 / 2 Skip if bit
0039   2024           02714         call    i2cdal          ; 10/8 / 0 Set bit low
003A   2049           02715         call    i2cckh          ; 13/12 Set clock high (input)
003B   2045           02716         call    i2cckl          ; 12/10 Set clock low
003C   0BA3           02717         decfsz  R1 + 1, F       ; 1 / 2 Do next bit, if any
003D   2835           02718         goto    i2cwriteloop    ; 2
003E   201E           02719         call    i2cdah          ; 11/10 Make sure data high (input)
                      02720 ;       goto    i2cgetbit       ; Get acknowledge (fall through)
                      02721 
003F   2049           02722 i2cgetbit call  i2cckh          ; 13/12 (28/25) Set clock high
0040   0836           02723         movf    RR1, W          ; 1 Point to data pin
0041   0084           02724         movwf   FSR             ; 1
0042   0834           02725         movf    RM1, W          ; 1
0043   0500           02726         andwf   INDF, W         ; 1 Isolate pin
0044   3EFF           02727         addlw   -1              ; 1 Move bit to carry
                      02728       ifdef I2C_INTERNAL
MPASM 5.75                   I2C SCANNER.ASM   3-19-2018  12:35:42         PAGE  6


LOC  OBJECT CODE     LINE SOURCE TEXT
  VALUE

                      02729         call    i2cckl          ; Set clock low
                      02730         goto    i2cdah          ; Reset data high
                      02731       endif
                      02732 ;       goto    i2cckl          ; Set clock low (fall through)
                      02733 
0045   0837           02734 i2cckl  movf    RR2, W          ; 1 (10/8) Get pointer to clock pin
0046   0084           02735         movwf   FSR             ; 1
0047   0935           02736         comf    RM2, W          ; 1
0048   2827           02737         goto    i2clow          ; 7/5 Finish it up
                      02738 
0049   0837           02739 i2cckh  movf    RR2, W          ; 1 (11/10) Get pointer to clock pin
004A   0084           02740         movwf   FSR             ; 1
004B   0835           02741 i2chold movf    RM2, W          ; 1
                      02742       ifdef I2C_SCLOUT
                      02743         iorwf   INDF, F         ; 1 Set high
                      02744         bsf     FSR, 7          ; 1 Point to TRIS
                      02745         comf    RM2, W          ; 1 Get inverted mask
                      02746         andwf   INDF, F         ; 1 Set to output
                      02747         goto    i2chl           ; 4
                      02748       else
                      02749         ifndef I2C_HOLD
004C   2821           02750         goto    i2chigh         ; 8/7 Finish it up
                      02751         else
                      02752         bsf     FSR, 7          ; 1 Point to TRIS
                      02753         iorwf   INDF, F         ; 1 Set high (input)
                      02754         bcf     FSR, 7          ; 1 Point to PORT
                      02755         andwf   INDF, W         ; 1 Isolate pin
                      02756         btfsc   STATUS, Z       ; 1 / 2 Check for still low
                      02757         goto    i2chold         ; 2 / 0 Still low
                      02758         goto    i2chl           ; 4
                      02759         endif
                      02760       endif
                      03834   LIST
004D   01A5           03835 SEROUTDEC clrf  R2 + 1          ; Zero high value
004E   00A4           03836 SEROUTDECL movwf R2             ; Save low value
004F   17B3           03837         bsf     GOP, 7          ; Blanking on
0050   3027           03838         movlw   high 10000      ; Find 10,000s
0051   00A3           03839         movwf   R1 + 1
0052   3010           03840         movlw   low 10000
0053   2060           03841         call    seroutdig       ; Do the work
0054   3003           03842         movlw   high 1000       ; Find 1,000s
0055   00A3           03843         movwf   R1 + 1
0056   30E8           03844         movlw   low 1000
0057   2060           03845         call    seroutdig       ; Do the work
0058   01A3           03846         clrf    R1 + 1          ; Find 100s
0059   3064           03847         movlw   100
005A   2060           03848         call    seroutdig       ; Do the work
005B   01A3           03849         clrf    R1 + 1          ; Find 10s
005C   300A           03850         movlw   10
005D   2060           03851         call    seroutdig       ; Do the work
005E   0824           03852         movf    R2, W           ; Get the 1s
005F   286B           03853         goto    serouta         ; Send the 1s
                      03854 
MPASM 5.75                   I2C SCANNER.ASM   3-19-2018  12:35:42         PAGE  7


LOC  OBJECT CODE     LINE SOURCE TEXT
  VALUE

0060   00A2           03855 seroutdig movwf R1              ; Save last piece
0061   0825           03856         movf    R2 + 1, W       ; Move remainder to dividend
0062   00A1           03857         movwf   R0 + 1
0063   0824           03858         movf    R2, W
0064   00A0           03859         movwf   R0
0065   20DF           03860         call    DIV             ; Do the math
0066   0820           03861         movf    R0, W           ; Get the result
0067   1D03           03862         btfss   STATUS, Z       ; If zero, goto blank check
0068   13B3           03863         bcf     GOP, 7          ; Not zero so clear blank
0069   1BB3           03864         btfsc   GOP, 7          ; If blanking on, don't send
006A   0008           03865         return
006B   3E30           03866 serouta addlw   '0'             ; Add ASCII offset
                      03867 ;       goto    SEROUT          ; Fall through
                      03886   LIST
006C   00A6           03887 SEROUT  movwf   R3              ; Data to send
006D   0836           03888         movf    RR1, W          ; Get port
006E   0084           03889         movwf   FSR
006F   3009           03890         movlw   9               ; 1 start bit + 8 data bits
0070   00A7           03891         movwf   R3 + 1
0071   1003           03892         bcf     STATUS, C       ; Start bit low
0072   2078           03893 seroutloop call seroutbit       ; 18+ (22) Send a bit
0073   0CA6           03894         rrf     R3, F           ; 1 Move to next bit
0074   0BA7           03895         decfsz  R3 + 1, F       ; 1 / 2 Do next bit, if any
0075   2872           03896         goto    seroutloop      ; 2 / 0
0076   1403           03897         bsf     STATUS, C       ; 1 Stop bit high
                      03898       ifndef CHAR_PACING
0077   2878           03899         goto    seroutbit       ; 18+ Send stop bit (need cycles)
                      03900       else
                      03901         call    seroutbit       ; 18+ Send stop bit
                      03902         movlw   (CHAR_PACING) >> 8
                      03903         movwf   R0 + 1
                      03904         movlw   low (CHAR_PACING)
                      03905         goto    PAUSEUSL        ; Delay for character pacing
                      03906       endif
                      03907 
0078   1384           03908 seroutbit bcf   FSR, 7          ; 1 (18+) Make sure we're pointing to the port
0079   1DB3           03909         btfss   GOP, 3          ; 1 / 2 Check for TRIS mode
007A   2887           03910         goto    seroutnorm      ; 2 / 0 Go handle normal mode
                      03911 
007B   0800           03912         movf    INDF, W         ; 1 Get PORT data
007C   0434           03913         iorwf   RM1, W          ; 1 Set bit on
007D   1D33           03914         btfss   GOP, 2          ; 1 / 2 Bit matches invert mode
007E   0634           03915         xorwf   RM1, W          ; 1 / 0 Set bit off
007F   0080           03916         movwf   INDF            ; 1 Write it out
0080   1784           03917         bsf     FSR, 7          ; 1 Point FSR to port TRIS
0081   0800           03918         movf    INDF, W         ; 1 Get TRIS data
0082   0434           03919         iorwf   RM1, W          ; 1 Make bit an input
0083   1C03           03920         btfss   STATUS, C       ; 1 / 2 Bit direction matches bit
0084   0634           03921         xorwf   RM1, W          ; 1 / 0 Make bit an output
0085   0080           03922         movwf   INDF            ; 1 Write it out
0086   2892           03923         goto    serdelay        ; 2 Wait remainder of bit time
                      03924 
0087   0800           03925 seroutnorm movf INDF, W         ; 1 Get PORT data
MPASM 5.75                   I2C SCANNER.ASM   3-19-2018  12:35:42         PAGE  8


LOC  OBJECT CODE     LINE SOURCE TEXT
  VALUE

0088   0434           03926         iorwf   RM1, W          ; 1 Set bit on
0089   1C03           03927         btfss   STATUS, C       ; 1 / 2 Skip if bit should be on
008A   0634           03928         xorwf   RM1, W          ; 1 / 0 Set bit off
008B   1933           03929         btfsc   GOP, 2          ; 1 / 2 Invert if 'N' mode
008C   0634           03930         xorwf   RM1, W          ; 1 / 0 Flip for invert
008D   0080           03931         movwf   INDF            ; 1 Write it out
008E   1784           03932         bsf     FSR, 7          ; 1 Point FSR to port TRIS
008F   0934           03933         comf    RM1, W          ; 1 Get complemented bit mask to W
0090   0580           03934         andwf   INDF, F         ; 1 Clear TRIS bit to set output
0091   2892           03935         goto    serdelay        ; 2 Wait remainder of bit time
                      03958   LIST
                      03959       ifdef SERINX_USED
                      03960 sersdelay bsf   GOP, 6          ; Mark short delay
                      03961       endif
0092   3000           03962 serdelay movlw  high sertable   ; 1 (26 + 22) Set PC latch high for table call
0093   008A           03963         movwf   PCLATH          ; 1
0094   0D33           03964         rlf     GOP, W          ; 1 Get baud value x 2
0095   3906           03965         andlw   06h             ; 1 Mask to our bits
0096   00A0           03966         movwf   R0              ; 1 Save it
0097   209F           03967         call    sergettbl       ; 9 Get high part of delay (table location in W)
0098   00A1           03968         movwf   R0 + 1          ; 1 Store for PAUSEUS
0099   3000           03969         movlw   high sertable   ; 1 Set PC latch high for table call
009A   008A           03970         movwf   PCLATH          ; 1
009B   0A20           03971         incf    R0, W           ; 1 Point to low part of delay
009C   209F           03972         call    sergettbl       ; 9 Get low part of delay (table location in W)
                      03973       ifndef SERINX_USED        ; If only Serout used
009D   0000           03974         nop                     ; 1
009E   28B9           03975         goto    PAUSEUSL        ; -2 (PAUSEUSL gives you 2 less than you ask for)
                      03976       else
                      03977         btfss   GOP, 6          ; 1 If short delay
                      03978         goto    PAUSEUSL        ; -2 (PAUSEUSL gives you 2 less than you ask for)
                      03979         bcf     GOP, 6          ; Clear short delay mark
                      03980         movwf   R0              ; Save low part
                      03981         movlw   2               ; Divide time by 4
                      03982         call    SHIFTR
                      03983         goto    PAUSEUSL        ; Do 1/4 delay
                      03984 SHIFTR_USED = 1
                      03985       endif
                      03986 
009F   3EA3           03987 sergettbl addlw low sertable    ; 1
00A0   1803           03988         btfsc   STATUS, C       ; 1 / 2
00A1   0A8A           03989         incf    PCLATH, F       ; 1 / 0
00A2   0082           03990         movwf   PCL             ; 2 + 2 + 2
00A3   3401           03991 sertable retlw  high (SDELAY_2400)
00A4   3489           03992         retlw   low (SDELAY_2400)
00A5   3403           03993         retlw   high (SDELAY_1200)
00A6   3429           03994         retlw   low (SDELAY_1200)
00A7   3400           03995         retlw   high (SDELAY_9600)
00A8   3450           03996         retlw   low (SDELAY_9600)
00A9   340C           03997         retlw   high (SDELAY_300)
00AA   34ED           03998         retlw   low (SDELAY_300)
                      06341   LIST
00AB   01A3           06342 PAUSE   clrf    R1 + 1
MPASM 5.75                   I2C SCANNER.ASM   3-19-2018  12:35:42         PAGE  9


LOC  OBJECT CODE     LINE SOURCE TEXT
  VALUE

00AC   00A2           06343 PAUSEL  movwf   R1
00AD   30FF           06344 pauseloop movlw -1              ; 1 (9)
00AE   07A2           06345         addwf   R1, F           ; 1
00AF   1C03           06346         btfss   STATUS, C       ; 1 / 2
00B0   07A3           06347         addwf   R1 + 1, F       ; 1 / 0
00B1   1C03           06348         btfss   STATUS, C       ; 2
00B2   28FB           06349         goto    DONE
00B3   3003           06350         movlw   (PAUSE_DELAY) >> 8      ; 1
00B4   00A1           06351         movwf   R0 + 1          ; 1
00B5   30E3           06352         movlw   low (PAUSE_DELAY)       ; 1
00B6   20B9           06353         call    PAUSEUSL        ; -2 (PAUSEUSL gives you 2 less than you ask for)
00B7   28AD           06354         goto    pauseloop       ; 2
                      06433   LIST
00B8   01A1           06434 PAUSEUS clrf    R0 + 1          ; 1
00B9   3EF4           06435 PAUSEUSL addlw  -12             ; 1 Subtract overhead
00BA   00A0           06436         movwf   R0              ; 1
00BB   09A1           06437         comf    R0 + 1, F       ; 1
00BC   30FE           06438         movlw   -2              ; 1
00BD   1C03           06439         btfss   STATUS, C       ; 1 / 2
00BE   28C2           06440         goto    pauseush        ; 2 / 0
00BF   07A0           06441 pauseusloop addwf R0, F         ; 1
00C0   1803           06442         btfsc   STATUS, C       ; 1 / 2
00C1   28BF           06443         goto    pauseusloop     ; 2 / 0
00C2   07A0           06444 pauseush addwf  R0, F           ; 1 Do an extra countdown
                      06445         CLRWDT?NOP              ; 1 Keep Watchdog clear
                          M     ifndef NO_CLRWDT
00C3   0064               M         clrwdt
                          M     else
                          M         nop
                          M     endif
00C4   0FA1           06446         incfsz  R0 + 1, F       ; 1 / 2
00C5   28BF           06447         goto    pauseusloop     ; 2 / 0
00C6   0000           06448         nop                     ; 1
00C7   1820           06449         btfsc   R0, 0           ; 1 / 2
00C8   28C9           06450         goto    $ + 1           ; 2 / 0 Burn an extra cycle
00C9   1820           06451         btfsc   R0, 0           ; 1 / 2
00CA   28CB           06452         goto    $ + 1           ; 2 / 0 Burn an extra cycle
00CB   0008           06453         return                  ; 2 + 3 (call + setup)
                      07250   LIST
00CC   00A2           07251 CMPGE   movwf   R1
00CD   3003           07252         movlw   3               ; Mask for = >
00CE   28CF           07253         goto    CMP
                      07401   LIST
00CF   00A8           07402 CMP     movwf   R4              ; Save compare state
00D0   0823           07403         movf    R1 + 1, W       ; Flags = MSB(R0) - MSB(R1)
00D1   0221           07404         subwf   R0 + 1, W
00D2   1D03           07405         btfss   STATUS, Z       ; If unequal then done
00D3   28D6           07406         goto    cmpnoteq
00D4   0822           07407         movf    R1, W           ; Flags = LSB(R0) - LSB(R1)
00D5   0220           07408         subwf   R0, W
00D6   3004           07409 cmpnoteq movlw  4               ; W = 4 if R0 < R1
00D7   1803           07410         btfsc   STATUS, C
00D8   3001           07411         movlw   1               ; W = 1 if R0 > R1
MPASM 5.75                   I2C SCANNER.ASM   3-19-2018  12:35:42         PAGE 10


LOC  OBJECT CODE     LINE SOURCE TEXT
  VALUE

00D9   1903           07412         btfsc   STATUS, Z
00DA   3002           07413         movlw   2               ; W = 2 if R0 == R1
00DB   0528           07414         andwf   R4, W           ; Mask for compare state
00DC   1D03           07415         btfss   STATUS, Z
00DD   30FF           07416         movlw   -1
00DE   28FB           07417         goto    DONE
                      07633   LIST
00DF   01A5           07634 DIV     clrf    R2 + 1
00E0   01A4           07635         clrf    R2
                      07636 
00E1   3010           07637 DIV32DIV movlw   16
00E2   00A6           07638         movwf   R3
                      07639 
00E3   0D21           07640 divloop rlf     R0 + 1, W
00E4   0DA4           07641         rlf     R2, F
00E5   0DA5           07642         rlf     R2 + 1, F
00E6   0822           07643         movf    R1, W
00E7   02A4           07644         subwf   R2, F
00E8   0823           07645         movf    R1 + 1, W
00E9   1C03           07646         btfss   STATUS, C
00EA   0F23           07647         incfsz  R1 + 1, W
00EB   02A5           07648         subwf   R2 + 1, F
                      07649 
00EC   1803           07650         btfsc   STATUS, C
00ED   28F5           07651         goto    divok
00EE   0822           07652         movf    R1, W
00EF   07A4           07653         addwf   R2, F
00F0   0823           07654         movf    R1 + 1, W
00F1   1803           07655         btfsc   STATUS, C
00F2   0F23           07656         incfsz  R1 + 1, W
00F3   07A5           07657         addwf   R2 + 1, F
                      07658 
00F4   1003           07659         bcf     STATUS, C
                      07660 
00F5   0DA0           07661 divok   rlf     R0, F
00F6   0DA1           07662         rlf     R0 + 1, F
                      07663 
00F7   0BA6           07664         decfsz  R3, F
00F8   28E3           07665         goto    divloop
00F9   0820           07666         movf    R0, W           ; Get low byte to W
00FA   28FB           07667         goto    DONE
                      07778   LIST
00FB   1383           07779 DONE    bcf     STATUS, IRP     ; 1 Set FSR to bank 0/1
00FC   1303           07780         bcf     STATUS, RP1     ; 1 Show direct bank 0
00FD   1283           07781         bcf     STATUS, RP0     ; 1
                      07782         CLRWDT?NOP              ; 1 Hit Watchdog timer
                          M     ifndef NO_CLRWDT
00FE   0064               M         clrwdt
                          M     else
                          M         nop
                          M     endif
00FF   0008           07783 DONERET return                  ; 2 Done
                      07809   LIST
MPASM 5.75                   I2C SCANNER.ASM   3-19-2018  12:35:42         PAGE 11


LOC  OBJECT CODE     LINE SOURCE TEXT
  VALUE

0100                  07810 INIT
                      07848   LIST
0100                  07849 main
                      00144 
                      00145 
                      00146 ; C:\PROGRAM FILES (X86)\PBP3\DEVICES\PIC16F688.PBPINC  00036   #HEADER
                      00147 ; C:\PROGRAM FILES (X86)\PBP3\DEVICES\PIC16F688.PBPINC  00060   #CONFIG
                      00148 ; C:\PROGRAM FILES (X86)\PBP3\DEVICES\PIC16F688.PBPINC  00129   BANK0   $0020, $007F
                      00149 ; C:\PROGRAM FILES (X86)\PBP3\DEVICES\PIC16F688.PBPINC  00130   BANK1   $00A0, $00EF
                      00150 ; C:\PROGRAM FILES (X86)\PBP3\DEVICES\PIC16F688.PBPINC  00131   BANK2   $0120, $016F
                      00151 ; C:\PROGRAM FILES (X86)\PBP3\DEVICES\PIC16F688.PBPINC  00133   EEPROM  $2100, $21FF
                      00152 ; C:\PROGRAM FILES (X86)\PBP3\DEVICES\PIC16F688.PBPINC  00135       #ERROR "-n option (PBPL) is not supported for this device."
                      00153 ; C:\PROGRAM FILES (X86)\PBP3\DEVICES\PIC16F688.PBPINC  00136   #ENDIF
                      00154 ; C:\PROGRAM FILES (X86)\PBP3\DEVICES\PIC16F688.PBPINC  00137   LIBRARY "PBPPIC14"
                      00155 ; C:\PROGRAM FILES (X86)\PBP3\DEVICES\PIC16F688.PBPINC  00138   DEFINE  CODE_SIZE 4
                      00156 
                      00157 ; C:\PROGRAM FILES (X86)\PBP3\DEVICES\PIC16F688.PBPINC  00143   include "PBPPIC14.RAM"
                      00158 ; C:\PROGRAM FILES (X86)\PBP3\DEVICES\PIC16F688.PBPINC  00147   #HEADER
                      00159 
                      00160 ; C:\USERS\ANDREW MCENTEE\DOCUMENTS\DEVELOPMENT\PBP3\16F688 PROGRAMS\I2C SCANNER.PBP    00011   include "MODEDEFS.BAS"
                      00161 ; C:\PROGRAM FILES (X86)\PBP3\MODEDEFS.BAS      00014   Symbol T2400  = 0       ' Driven True
                      00162 ; C:\PROGRAM FILES (X86)\PBP3\MODEDEFS.BAS      00015   Symbol T1200  = 1       ' Driven True
                      00163 ; C:\PROGRAM FILES (X86)\PBP3\MODEDEFS.BAS      00016   Symbol T9600  = 2       ' Driven True
                      00164 ; C:\PROGRAM FILES (X86)\PBP3\MODEDEFS.BAS      00017   Symbol T300   = 3       ' Driven True
                      00165 ; C:\PROGRAM FILES (X86)\PBP3\MODEDEFS.BAS      00019   Symbol N2400  = 4       ' Driven Inverted
                      00166 ; C:\PROGRAM FILES (X86)\PBP3\MODEDEFS.BAS      00020   Symbol N1200  = 5       ' Driven Inverted
                      00167 ; C:\PROGRAM FILES (X86)\PBP3\MODEDEFS.BAS      00021   Symbol N9600  = 6       ' Driven Inverted
                      00168 ; C:\PROGRAM FILES (X86)\PBP3\MODEDEFS.BAS      00022   Symbol N300   = 7       ' Driven Inverted
                      00169 ; C:\PROGRAM FILES (X86)\PBP3\MODEDEFS.BAS      00024   Symbol OT2400 = 8       ' Open True
                      00170 ; C:\PROGRAM FILES (X86)\PBP3\MODEDEFS.BAS      00025   Symbol OT1200 = 9       ' Open True
                      00171 ; C:\PROGRAM FILES (X86)\PBP3\MODEDEFS.BAS      00026   Symbol OT9600 = 10      ' Open True
                      00172 ; C:\PROGRAM FILES (X86)\PBP3\MODEDEFS.BAS      00027   Symbol OT300  = 11      ' Open True
                      00173 ; C:\PROGRAM FILES (X86)\PBP3\MODEDEFS.BAS      00029   Symbol ON2400 = 12      ' Open Inverted
                      00174 ; C:\PROGRAM FILES (X86)\PBP3\MODEDEFS.BAS      00030   Symbol ON1200 = 13      ' Open Inverted
                      00175 ; C:\PROGRAM FILES (X86)\PBP3\MODEDEFS.BAS      00031   Symbol ON9600 = 14      ' Open Inverted
                      00176 ; C:\PROGRAM FILES (X86)\PBP3\MODEDEFS.BAS      00032   Symbol ON300  = 15      ' Open Inverted
                      00177 ; C:\PROGRAM FILES (X86)\PBP3\MODEDEFS.BAS      00036   Symbol MSBPRE = 0       ' MSB first, sample before clock
                      00178 ; C:\PROGRAM FILES (X86)\PBP3\MODEDEFS.BAS      00037   Symbol LSBPRE = 1       ' LSB first, sample before clock
                      00179 ; C:\PROGRAM FILES (X86)\PBP3\MODEDEFS.BAS      00038   Symbol MSBPOST = 2      ' MSB first, sample after clock
                      00180 ; C:\PROGRAM FILES (X86)\PBP3\MODEDEFS.BAS      00039   Symbol LSBPOST = 3      ' LSB first, sample after clock
                      00181 ; C:\PROGRAM FILES (X86)\PBP3\MODEDEFS.BAS      00042   Symbol LSBFIRST = 0     ' LSB first
                      00182 ; C:\PROGRAM FILES (X86)\PBP3\MODEDEFS.BAS      00043   Symbol MSBFIRST = 1     ' MSB first
                      00183 ; C:\PROGRAM FILES (X86)\PBP3\MODEDEFS.BAS      00047   Symbol CLS = 0
                      00184 ; C:\PROGRAM FILES (X86)\PBP3\MODEDEFS.BAS      00048   Symbol HOME = 1
                      00185 ; C:\PROGRAM FILES (X86)\PBP3\MODEDEFS.BAS      00049   Symbol BELL = 7
                      00186 ; C:\PROGRAM FILES (X86)\PBP3\MODEDEFS.BAS      00050   Symbol BKSP = 8
                      00187 ; C:\PROGRAM FILES (X86)\PBP3\MODEDEFS.BAS      00051   Symbol TAB = 9
                      00188 ; C:\PROGRAM FILES (X86)\PBP3\MODEDEFS.BAS      00052   Symbol CR = 13
                      00189 ; C:\PROGRAM FILES (X86)\PBP3\MODEDEFS.BAS      00056   Symbol UnitOn = %10010
                      00190 ; C:\PROGRAM FILES (X86)\PBP3\MODEDEFS.BAS      00057   Symbol UnitOff = %11010
                      00191 ; C:\PROGRAM FILES (X86)\PBP3\MODEDEFS.BAS      00058   Symbol UnitsOff = %11100
                      00192 ; C:\PROGRAM FILES (X86)\PBP3\MODEDEFS.BAS      00059   Symbol LightsOn = %10100
                      00193 ; C:\PROGRAM FILES (X86)\PBP3\MODEDEFS.BAS      00060   Symbol LightsOff = %10000
MPASM 5.75                   I2C SCANNER.ASM   3-19-2018  12:35:42         PAGE 12


LOC  OBJECT CODE     LINE SOURCE TEXT
  VALUE

                      00194 ; C:\PROGRAM FILES (X86)\PBP3\MODEDEFS.BAS      00061   Symbol Dim = %11110
                      00195 ; C:\PROGRAM FILES (X86)\PBP3\MODEDEFS.BAS      00062   Symbol Bright = %10110
                      00196 ; C:\USERS\ANDREW MCENTEE\DOCUMENTS\DEVELOPMENT\PBP3\16F688 PROGRAMS\I2C SCANNER.PBP    00012   define OSC 8
                      00197 
                      00198 ; C:\USERS\ANDREW MCENTEE\DOCUMENTS\DEVELOPMENT\PBP3\16F688 PROGRAMS\I2C SCANNER.PBP    00013   OPTION_REG =%00000000     'Disable all PORTA pullups, set prescaler for WDT to 1:1
                      00199         MOVE?CB 000h, OPTION_REG
                          M         CHK?RP  OPTION_REG
                          M     if (((OPTION_REG) & 180h) == 0)
                          M       if (PREV_BANK == 1)
                          M         bcf     STATUS, RP0
                          M       endif
                          M       if (PREV_BANK == 2)
                          M         bcf     STATUS, RP1
                          M       endif
                          M       if (PREV_BANK == 3)
                          M         bcf     STATUS, RP0
                          M         bcf     STATUS, RP1
                          M       endif
                          M PREV_BANK = 0
                          M     endif
                          M 
                          M     if (((OPTION_REG) & 180h) == 80h)
                          M       if (PREV_BANK == 0)
0100   1683               M         bsf     STATUS, RP0
                          M       endif
                          M       if (PREV_BANK == 2)
                          M         bsf     STATUS, RP0
                          M         bcf     STATUS, RP1
                          M       endif
                          M       if (PREV_BANK == 3)
                          M         bcf     STATUS, RP1
                          M       endif
  00000001                M PREV_BANK = 1
                          M     endif
                          M 
                          M     if (((OPTION_REG) & 180h) == 100h)
                          M       if (PREV_BANK == 0)
                          M         bsf     STATUS, RP1
                          M       endif
                          M       if (PREV_BANK == 1)
                          M         bcf     STATUS, RP0
                          M         bsf     STATUS, RP1
                          M       endif
                          M       if (PREV_BANK == 3)
                          M         bcf     STATUS, RP0
                          M       endif
                          M PREV_BANK = 2
                          M     endif
                          M 
                          M     if (((OPTION_REG) & 180h) == 180h)
                          M       if (PREV_BANK == 0)
                          M         bsf     STATUS, RP0
                          M         bsf     STATUS, RP1
MPASM 5.75                   I2C SCANNER.ASM   3-19-2018  12:35:42         PAGE 13


LOC  OBJECT CODE     LINE SOURCE TEXT
  VALUE

                          M       endif
                          M       if (PREV_BANK == 1)
                          M         bsf     STATUS, RP1
                          M       endif
                          M       if (PREV_BANK == 2)
                          M         bsf     STATUS, RP0
                          M       endif
                          M PREV_BANK = 3
                          M     endif
                          M     if (low (000h) == 0)
0101   0181               M         clrf    OPTION_REG
                          M     else
                          M         movlw   low (000h)
                          M         movwf   OPTION_REG
                          M     endif
                      00200 
                      00201 ; C:\USERS\ANDREW MCENTEE\DOCUMENTS\DEVELOPMENT\PBP3\16F688 PROGRAMS\I2C SCANNER.PBP    00014   INTCON = %00000000        'Disable all interrupts
                      00202         MOVE?CB 000h, INTCON
                          M         CHK?RP  INTCON
                          M     if (((INTCON) & 180h) == 0)
                          M       if (PREV_BANK == 1)
0102   1283               M         bcf     STATUS, RP0
                          M       endif
                          M       if (PREV_BANK == 2)
                          M         bcf     STATUS, RP1
                          M       endif
                          M       if (PREV_BANK == 3)
                          M         bcf     STATUS, RP0
                          M         bcf     STATUS, RP1
                          M       endif
  00000000                M PREV_BANK = 0
                          M     endif
                          M 
                          M     if (((INTCON) & 180h) == 80h)
                          M       if (PREV_BANK == 0)
                          M         bsf     STATUS, RP0
                          M       endif
                          M       if (PREV_BANK == 2)
                          M         bsf     STATUS, RP0
                          M         bcf     STATUS, RP1
                          M       endif
                          M       if (PREV_BANK == 3)
                          M         bcf     STATUS, RP1
                          M       endif
                          M PREV_BANK = 1
                          M     endif
                          M 
                          M     if (((INTCON) & 180h) == 100h)
                          M       if (PREV_BANK == 0)
                          M         bsf     STATUS, RP1
                          M       endif
                          M       if (PREV_BANK == 1)
                          M         bcf     STATUS, RP0
MPASM 5.75                   I2C SCANNER.ASM   3-19-2018  12:35:42         PAGE 14


LOC  OBJECT CODE     LINE SOURCE TEXT
  VALUE

                          M         bsf     STATUS, RP1
                          M       endif
                          M       if (PREV_BANK == 3)
                          M         bcf     STATUS, RP0
                          M       endif
                          M PREV_BANK = 2
                          M     endif
                          M 
                          M     if (((INTCON) & 180h) == 180h)
                          M       if (PREV_BANK == 0)
                          M         bsf     STATUS, RP0
                          M         bsf     STATUS, RP1
                          M       endif
                          M       if (PREV_BANK == 1)
                          M         bsf     STATUS, RP1
                          M       endif
                          M       if (PREV_BANK == 2)
                          M         bsf     STATUS, RP0
                          M       endif
                          M PREV_BANK = 3
                          M     endif
                          M     if (low (000h) == 0)
0103   018B               M         clrf    INTCON
                          M     else
                          M         movlw   low (000h)
                          M         movwf   INTCON
                          M     endif
                      00203 
                      00204 ; C:\USERS\ANDREW MCENTEE\DOCUMENTS\DEVELOPMENT\PBP3\16F688 PROGRAMS\I2C SCANNER.PBP    00015   PIE1 = %00000000          'Disable other Interrupts
                      00205         MOVE?CB 000h, PIE1
                          M         CHK?RP  PIE1
                          M     if (((PIE1)  & 180h) == 0)
                          M       if (PREV_BANK == 1)
                          M         bcf     STATUS, RP0
                          M       endif
                          M       if (PREV_BANK == 2)
                          M         bcf     STATUS, RP1
                          M       endif
                          M       if (PREV_BANK == 3)
                          M         bcf     STATUS, RP0
                          M         bcf     STATUS, RP1
                          M       endif
                          M PREV_BANK = 0
                          M     endif
                          M 
                          M     if (((PIE1)  & 180h) == 80h)
                          M       if (PREV_BANK == 0)
0104   1683               M         bsf     STATUS, RP0
                          M       endif
                          M       if (PREV_BANK == 2)
                          M         bsf     STATUS, RP0
                          M         bcf     STATUS, RP1
                          M       endif
MPASM 5.75                   I2C SCANNER.ASM   3-19-2018  12:35:42         PAGE 15


LOC  OBJECT CODE     LINE SOURCE TEXT
  VALUE

                          M       if (PREV_BANK == 3)
                          M         bcf     STATUS, RP1
                          M       endif
  00000001                M PREV_BANK = 1
                          M     endif
                          M 
                          M     if (((PIE1)  & 180h) == 100h)
                          M       if (PREV_BANK == 0)
                          M         bsf     STATUS, RP1
                          M       endif
                          M       if (PREV_BANK == 1)
                          M         bcf     STATUS, RP0
                          M         bsf     STATUS, RP1
                          M       endif
                          M       if (PREV_BANK == 3)
                          M         bcf     STATUS, RP0
                          M       endif
                          M PREV_BANK = 2
                          M     endif
                          M 
                          M     if (((PIE1)  & 180h) == 180h)
                          M       if (PREV_BANK == 0)
                          M         bsf     STATUS, RP0
                          M         bsf     STATUS, RP1
                          M       endif
                          M       if (PREV_BANK == 1)
                          M         bsf     STATUS, RP1
                          M       endif
                          M       if (PREV_BANK == 2)
                          M         bsf     STATUS, RP0
                          M       endif
                          M PREV_BANK = 3
                          M     endif
                          M     if (low (000h) == 0)
0105   018C               M         clrf    PIE1
                          M     else
                          M         movlw   low (000h)
                          M         movwf   PIE1
                          M     endif
                      00206 
                      00207 ; C:\USERS\ANDREW MCENTEE\DOCUMENTS\DEVELOPMENT\PBP3\16F688 PROGRAMS\I2C SCANNER.PBP    00016   PIR1 = %00000000          'Reset all flags
                      00208         MOVE?CB 000h, PIR1
                          M         CHK?RP  PIR1
                          M     if (((PIR1)  & 180h) == 0)
                          M       if (PREV_BANK == 1)
0106   1283               M         bcf     STATUS, RP0
                          M       endif
                          M       if (PREV_BANK == 2)
                          M         bcf     STATUS, RP1
                          M       endif
                          M       if (PREV_BANK == 3)
                          M         bcf     STATUS, RP0
                          M         bcf     STATUS, RP1
MPASM 5.75                   I2C SCANNER.ASM   3-19-2018  12:35:42         PAGE 16


LOC  OBJECT CODE     LINE SOURCE TEXT
  VALUE

                          M       endif
  00000000                M PREV_BANK = 0
                          M     endif
                          M 
                          M     if (((PIR1)  & 180h) == 80h)
                          M       if (PREV_BANK == 0)
                          M         bsf     STATUS, RP0
                          M       endif
                          M       if (PREV_BANK == 2)
                          M         bsf     STATUS, RP0
                          M         bcf     STATUS, RP1
                          M       endif
                          M       if (PREV_BANK == 3)
                          M         bcf     STATUS, RP1
                          M       endif
                          M PREV_BANK = 1
                          M     endif
                          M 
                          M     if (((PIR1)  & 180h) == 100h)
                          M       if (PREV_BANK == 0)
                          M         bsf     STATUS, RP1
                          M       endif
                          M       if (PREV_BANK == 1)
                          M         bcf     STATUS, RP0
                          M         bsf     STATUS, RP1
                          M       endif
                          M       if (PREV_BANK == 3)
                          M         bcf     STATUS, RP0
                          M       endif
                          M PREV_BANK = 2
                          M     endif
                          M 
                          M     if (((PIR1)  & 180h) == 180h)
                          M       if (PREV_BANK == 0)
                          M         bsf     STATUS, RP0
                          M         bsf     STATUS, RP1
                          M       endif
                          M       if (PREV_BANK == 1)
                          M         bsf     STATUS, RP1
                          M       endif
                          M       if (PREV_BANK == 2)
                          M         bsf     STATUS, RP0
                          M       endif
                          M PREV_BANK = 3
                          M     endif
                          M     if (low (000h) == 0)
0107   018C               M         clrf    PIR1
                          M     else
                          M         movlw   low (000h)
                          M         movwf   PIR1
                          M     endif
                      00209 
                      00210 ; C:\USERS\ANDREW MCENTEE\DOCUMENTS\DEVELOPMENT\PBP3\16F688 PROGRAMS\I2C SCANNER.PBP    00017   OSCCON = %01110111        '8MHz, set sytem to run on HFINTOSC
MPASM 5.75                   I2C SCANNER.ASM   3-19-2018  12:35:42         PAGE 17


LOC  OBJECT CODE     LINE SOURCE TEXT
  VALUE

                      00211         MOVE?CB 077h, OSCCON
                          M         CHK?RP  OSCCON
                          M     if (((OSCCON) & 180h) == 0)
                          M       if (PREV_BANK == 1)
                          M         bcf     STATUS, RP0
                          M       endif
                          M       if (PREV_BANK == 2)
                          M         bcf     STATUS, RP1
                          M       endif
                          M       if (PREV_BANK == 3)
                          M         bcf     STATUS, RP0
                          M         bcf     STATUS, RP1
                          M       endif
                          M PREV_BANK = 0
                          M     endif
                          M 
                          M     if (((OSCCON) & 180h) == 80h)
                          M       if (PREV_BANK == 0)
0108   1683               M         bsf     STATUS, RP0
                          M       endif
                          M       if (PREV_BANK == 2)
                          M         bsf     STATUS, RP0
                          M         bcf     STATUS, RP1
                          M       endif
                          M       if (PREV_BANK == 3)
                          M         bcf     STATUS, RP1
                          M       endif
  00000001                M PREV_BANK = 1
                          M     endif
                          M 
                          M     if (((OSCCON) & 180h) == 100h)
                          M       if (PREV_BANK == 0)
                          M         bsf     STATUS, RP1
                          M       endif
                          M       if (PREV_BANK == 1)
                          M         bcf     STATUS, RP0
                          M         bsf     STATUS, RP1
                          M       endif
                          M       if (PREV_BANK == 3)
                          M         bcf     STATUS, RP0
                          M       endif
                          M PREV_BANK = 2
                          M     endif
                          M 
                          M     if (((OSCCON) & 180h) == 180h)
                          M       if (PREV_BANK == 0)
                          M         bsf     STATUS, RP0
                          M         bsf     STATUS, RP1
                          M       endif
                          M       if (PREV_BANK == 1)
                          M         bsf     STATUS, RP1
                          M       endif
                          M       if (PREV_BANK == 2)
MPASM 5.75                   I2C SCANNER.ASM   3-19-2018  12:35:42         PAGE 18


LOC  OBJECT CODE     LINE SOURCE TEXT
  VALUE

                          M         bsf     STATUS, RP0
                          M       endif
                          M PREV_BANK = 3
                          M     endif
                          M     if (low (077h) == 0)
                          M         clrf    OSCCON
                          M     else
0109   3077               M         movlw   low (077h)
010A   008F               M         movwf   OSCCON
                          M     endif
                      00212 
                      00213 ; C:\USERS\ANDREW MCENTEE\DOCUMENTS\DEVELOPMENT\PBP3\16F688 PROGRAMS\I2C SCANNER.PBP    00018   ANSEL = %00100000         
                      00214         MOVE?CB 020h, ANSEL
                          M         CHK?RP  ANSEL
                          M     if (((ANSEL) & 180h) == 0)
                          M       if (PREV_BANK == 1)
                          M         bcf     STATUS, RP0
                          M       endif
                          M       if (PREV_BANK == 2)
                          M         bcf     STATUS, RP1
                          M       endif
                          M       if (PREV_BANK == 3)
                          M         bcf     STATUS, RP0
                          M         bcf     STATUS, RP1
                          M       endif
                          M PREV_BANK = 0
                          M     endif
                          M 
                          M     if (((ANSEL) & 180h) == 80h)
                          M       if (PREV_BANK == 0)
                          M         bsf     STATUS, RP0
                          M       endif
                          M       if (PREV_BANK == 2)
                          M         bsf     STATUS, RP0
                          M         bcf     STATUS, RP1
                          M       endif
                          M       if (PREV_BANK == 3)
                          M         bcf     STATUS, RP1
                          M       endif
  00000001                M PREV_BANK = 1
                          M     endif
                          M 
                          M     if (((ANSEL) & 180h) == 100h)
                          M       if (PREV_BANK == 0)
                          M         bsf     STATUS, RP1
                          M       endif
                          M       if (PREV_BANK == 1)
                          M         bcf     STATUS, RP0
                          M         bsf     STATUS, RP1
                          M       endif
                          M       if (PREV_BANK == 3)
                          M         bcf     STATUS, RP0
                          M       endif
MPASM 5.75                   I2C SCANNER.ASM   3-19-2018  12:35:42         PAGE 19


LOC  OBJECT CODE     LINE SOURCE TEXT
  VALUE

                          M PREV_BANK = 2
                          M     endif
                          M 
                          M     if (((ANSEL) & 180h) == 180h)
                          M       if (PREV_BANK == 0)
                          M         bsf     STATUS, RP0
                          M         bsf     STATUS, RP1
                          M       endif
                          M       if (PREV_BANK == 1)
                          M         bsf     STATUS, RP1
                          M       endif
                          M       if (PREV_BANK == 2)
                          M         bsf     STATUS, RP0
                          M       endif
                          M PREV_BANK = 3
                          M     endif
                          M     if (low (020h) == 0)
                          M         clrf    ANSEL
                          M     else
010B   3020               M         movlw   low (020h)
010C   0091               M         movwf   ANSEL
                          M     endif
                      00215 
                      00216 ; C:\USERS\ANDREW MCENTEE\DOCUMENTS\DEVELOPMENT\PBP3\16F688 PROGRAMS\I2C SCANNER.PBP    00019   TRISA = %00000000         'Set all Port A pins to output
                      00217         MOVE?CB 000h, TRISA
                          M         CHK?RP  TRISA
                          M     if (((TRISA) & 180h) == 0)
                          M       if (PREV_BANK == 1)
                          M         bcf     STATUS, RP0
                          M       endif
                          M       if (PREV_BANK == 2)
                          M         bcf     STATUS, RP1
                          M       endif
                          M       if (PREV_BANK == 3)
                          M         bcf     STATUS, RP0
                          M         bcf     STATUS, RP1
                          M       endif
                          M PREV_BANK = 0
                          M     endif
                          M 
                          M     if (((TRISA) & 180h) == 80h)
                          M       if (PREV_BANK == 0)
                          M         bsf     STATUS, RP0
                          M       endif
                          M       if (PREV_BANK == 2)
                          M         bsf     STATUS, RP0
                          M         bcf     STATUS, RP1
                          M       endif
                          M       if (PREV_BANK == 3)
                          M         bcf     STATUS, RP1
                          M       endif
  00000001                M PREV_BANK = 1
                          M     endif
MPASM 5.75                   I2C SCANNER.ASM   3-19-2018  12:35:42         PAGE 20


LOC  OBJECT CODE     LINE SOURCE TEXT
  VALUE

                          M 
                          M     if (((TRISA) & 180h) == 100h)
                          M       if (PREV_BANK == 0)
                          M         bsf     STATUS, RP1
                          M       endif
                          M       if (PREV_BANK == 1)
                          M         bcf     STATUS, RP0
                          M         bsf     STATUS, RP1
                          M       endif
                          M       if (PREV_BANK == 3)
                          M         bcf     STATUS, RP0
                          M       endif
                          M PREV_BANK = 2
                          M     endif
                          M 
                          M     if (((TRISA) & 180h) == 180h)
                          M       if (PREV_BANK == 0)
                          M         bsf     STATUS, RP0
                          M         bsf     STATUS, RP1
                          M       endif
                          M       if (PREV_BANK == 1)
                          M         bsf     STATUS, RP1
                          M       endif
                          M       if (PREV_BANK == 2)
                          M         bsf     STATUS, RP0
                          M       endif
                          M PREV_BANK = 3
                          M     endif
                          M     if (low (000h) == 0)
010D   0185               M         clrf    TRISA
                          M     else
                          M         movlw   low (000h)
                          M         movwf   TRISA
                          M     endif
                      00218 
                      00219 ; C:\USERS\ANDREW MCENTEE\DOCUMENTS\DEVELOPMENT\PBP3\16F688 PROGRAMS\I2C SCANNER.PBP    00020   TRISC = %00000000         'Set all Port C pins to output
                      00220         MOVE?CB 000h, TRISC
                          M         CHK?RP  TRISC
                          M     if (((TRISC) & 180h) == 0)
                          M       if (PREV_BANK == 1)
                          M         bcf     STATUS, RP0
                          M       endif
                          M       if (PREV_BANK == 2)
                          M         bcf     STATUS, RP1
                          M       endif
                          M       if (PREV_BANK == 3)
                          M         bcf     STATUS, RP0
                          M         bcf     STATUS, RP1
                          M       endif
                          M PREV_BANK = 0
                          M     endif
                          M 
                          M     if (((TRISC) & 180h) == 80h)
MPASM 5.75                   I2C SCANNER.ASM   3-19-2018  12:35:42         PAGE 21


LOC  OBJECT CODE     LINE SOURCE TEXT
  VALUE

                          M       if (PREV_BANK == 0)
                          M         bsf     STATUS, RP0
                          M       endif
                          M       if (PREV_BANK == 2)
                          M         bsf     STATUS, RP0
                          M         bcf     STATUS, RP1
                          M       endif
                          M       if (PREV_BANK == 3)
                          M         bcf     STATUS, RP1
                          M       endif
  00000001                M PREV_BANK = 1
                          M     endif
                          M 
                          M     if (((TRISC) & 180h) == 100h)
                          M       if (PREV_BANK == 0)
                          M         bsf     STATUS, RP1
                          M       endif
                          M       if (PREV_BANK == 1)
                          M         bcf     STATUS, RP0
                          M         bsf     STATUS, RP1
                          M       endif
                          M       if (PREV_BANK == 3)
                          M         bcf     STATUS, RP0
                          M       endif
                          M PREV_BANK = 2
                          M     endif
                          M 
                          M     if (((TRISC) & 180h) == 180h)
                          M       if (PREV_BANK == 0)
                          M         bsf     STATUS, RP0
                          M         bsf     STATUS, RP1
                          M       endif
                          M       if (PREV_BANK == 1)
                          M         bsf     STATUS, RP1
                          M       endif
                          M       if (PREV_BANK == 2)
                          M         bsf     STATUS, RP0
                          M       endif
                          M PREV_BANK = 3
                          M     endif
                          M     if (low (000h) == 0)
010E   0187               M         clrf    TRISC
                          M     else
                          M         movlw   low (000h)
                          M         movwf   TRISC
                          M     endif
                      00221 
                      00222 ; C:\USERS\ANDREW MCENTEE\DOCUMENTS\DEVELOPMENT\PBP3\16F688 PROGRAMS\I2C SCANNER.PBP    00021   WPUA = %00000000
                      00223         MOVE?CB 000h, WPUA
                          M         CHK?RP  WPUA
                          M     if (((WPUA)  & 180h) == 0)
                          M       if (PREV_BANK == 1)
                          M         bcf     STATUS, RP0
MPASM 5.75                   I2C SCANNER.ASM   3-19-2018  12:35:42         PAGE 22


LOC  OBJECT CODE     LINE SOURCE TEXT
  VALUE

                          M       endif
                          M       if (PREV_BANK == 2)
                          M         bcf     STATUS, RP1
                          M       endif
                          M       if (PREV_BANK == 3)
                          M         bcf     STATUS, RP0
                          M         bcf     STATUS, RP1
                          M       endif
                          M PREV_BANK = 0
                          M     endif
                          M 
                          M     if (((WPUA)  & 180h) == 80h)
                          M       if (PREV_BANK == 0)
                          M         bsf     STATUS, RP0
                          M       endif
                          M       if (PREV_BANK == 2)
                          M         bsf     STATUS, RP0
                          M         bcf     STATUS, RP1
                          M       endif
                          M       if (PREV_BANK == 3)
                          M         bcf     STATUS, RP1
                          M       endif
  00000001                M PREV_BANK = 1
                          M     endif
                          M 
                          M     if (((WPUA)  & 180h) == 100h)
                          M       if (PREV_BANK == 0)
                          M         bsf     STATUS, RP1
                          M       endif
                          M       if (PREV_BANK == 1)
                          M         bcf     STATUS, RP0
                          M         bsf     STATUS, RP1
                          M       endif
                          M       if (PREV_BANK == 3)
                          M         bcf     STATUS, RP0
                          M       endif
                          M PREV_BANK = 2
                          M     endif
                          M 
                          M     if (((WPUA)  & 180h) == 180h)
                          M       if (PREV_BANK == 0)
                          M         bsf     STATUS, RP0
                          M         bsf     STATUS, RP1
                          M       endif
                          M       if (PREV_BANK == 1)
                          M         bsf     STATUS, RP1
                          M       endif
                          M       if (PREV_BANK == 2)
                          M         bsf     STATUS, RP0
                          M       endif
                          M PREV_BANK = 3
                          M     endif
                          M     if (low (000h) == 0)
MPASM 5.75                   I2C SCANNER.ASM   3-19-2018  12:35:42         PAGE 23


LOC  OBJECT CODE     LINE SOURCE TEXT
  VALUE

010F   0195               M         clrf    WPUA
                          M     else
                          M         movlw   low (000h)
                          M         movwf   WPUA
                          M     endif
                      00224 
                      00225 ; C:\USERS\ANDREW MCENTEE\DOCUMENTS\DEVELOPMENT\PBP3\16F688 PROGRAMS\I2C SCANNER.PBP    00022   IOCA = %00000000          'Disable PORT A interrupt on change
                      00226         MOVE?CB 000h, IOCA
                          M         CHK?RP  IOCA
                          M     if (((IOCA)  & 180h) == 0)
                          M       if (PREV_BANK == 1)
                          M         bcf     STATUS, RP0
                          M       endif
                          M       if (PREV_BANK == 2)
                          M         bcf     STATUS, RP1
                          M       endif
                          M       if (PREV_BANK == 3)
                          M         bcf     STATUS, RP0
                          M         bcf     STATUS, RP1
                          M       endif
                          M PREV_BANK = 0
                          M     endif
                          M 
                          M     if (((IOCA)  & 180h) == 80h)
                          M       if (PREV_BANK == 0)
                          M         bsf     STATUS, RP0
                          M       endif
                          M       if (PREV_BANK == 2)
                          M         bsf     STATUS, RP0
                          M         bcf     STATUS, RP1
                          M       endif
                          M       if (PREV_BANK == 3)
                          M         bcf     STATUS, RP1
                          M       endif
  00000001                M PREV_BANK = 1
                          M     endif
                          M 
                          M     if (((IOCA)  & 180h) == 100h)
                          M       if (PREV_BANK == 0)
                          M         bsf     STATUS, RP1
                          M       endif
                          M       if (PREV_BANK == 1)
                          M         bcf     STATUS, RP0
                          M         bsf     STATUS, RP1
                          M       endif
                          M       if (PREV_BANK == 3)
                          M         bcf     STATUS, RP0
                          M       endif
                          M PREV_BANK = 2
                          M     endif
                          M 
                          M     if (((IOCA)  & 180h) == 180h)
                          M       if (PREV_BANK == 0)
MPASM 5.75                   I2C SCANNER.ASM   3-19-2018  12:35:42         PAGE 24


LOC  OBJECT CODE     LINE SOURCE TEXT
  VALUE

                          M         bsf     STATUS, RP0
                          M         bsf     STATUS, RP1
                          M       endif
                          M       if (PREV_BANK == 1)
                          M         bsf     STATUS, RP1
                          M       endif
                          M       if (PREV_BANK == 2)
                          M         bsf     STATUS, RP0
                          M       endif
                          M PREV_BANK = 3
                          M     endif
                          M     if (low (000h) == 0)
0110   0196               M         clrf    IOCA
                          M     else
                          M         movlw   low (000h)
                          M         movwf   IOCA
                          M     endif
                      00227 
                      00228 ; C:\USERS\ANDREW MCENTEE\DOCUMENTS\DEVELOPMENT\PBP3\16F688 PROGRAMS\I2C SCANNER.PBP    00023   CMCON0 = %00000111        'Disable Comparator
                      00229         MOVE?CB 007h, CMCON0
                          M         CHK?RP  CMCON0
                          M     if (((CMCON0) & 180h) == 0)
                          M       if (PREV_BANK == 1)
0111   1283               M         bcf     STATUS, RP0
                          M       endif
                          M       if (PREV_BANK == 2)
                          M         bcf     STATUS, RP1
                          M       endif
                          M       if (PREV_BANK == 3)
                          M         bcf     STATUS, RP0
                          M         bcf     STATUS, RP1
                          M       endif
  00000000                M PREV_BANK = 0
                          M     endif
                          M 
                          M     if (((CMCON0) & 180h) == 80h)
                          M       if (PREV_BANK == 0)
                          M         bsf     STATUS, RP0
                          M       endif
                          M       if (PREV_BANK == 2)
                          M         bsf     STATUS, RP0
                          M         bcf     STATUS, RP1
                          M       endif
                          M       if (PREV_BANK == 3)
                          M         bcf     STATUS, RP1
                          M       endif
                          M PREV_BANK = 1
                          M     endif
                          M 
                          M     if (((CMCON0) & 180h) == 100h)
                          M       if (PREV_BANK == 0)
                          M         bsf     STATUS, RP1
                          M       endif
MPASM 5.75                   I2C SCANNER.ASM   3-19-2018  12:35:42         PAGE 25


LOC  OBJECT CODE     LINE SOURCE TEXT
  VALUE

                          M       if (PREV_BANK == 1)
                          M         bcf     STATUS, RP0
                          M         bsf     STATUS, RP1
                          M       endif
                          M       if (PREV_BANK == 3)
                          M         bcf     STATUS, RP0
                          M       endif
                          M PREV_BANK = 2
                          M     endif
                          M 
                          M     if (((CMCON0) & 180h) == 180h)
                          M       if (PREV_BANK == 0)
                          M         bsf     STATUS, RP0
                          M         bsf     STATUS, RP1
                          M       endif
                          M       if (PREV_BANK == 1)
                          M         bsf     STATUS, RP1
                          M       endif
                          M       if (PREV_BANK == 2)
                          M         bsf     STATUS, RP0
                          M       endif
                          M PREV_BANK = 3
                          M     endif
                          M     if (low (007h) == 0)
                          M         clrf    CMCON0
                          M     else
0112   3007               M         movlw   low (007h)
0113   0099               M         movwf   CMCON0
                          M     endif
                      00230 
                      00231 ; C:\USERS\ANDREW MCENTEE\DOCUMENTS\DEVELOPMENT\PBP3\16F688 PROGRAMS\I2C SCANNER.PBP    00024   ADCON0 = %00000000        'Disable A/D
                      00232         MOVE?CB 000h, ADCON0
                          M         CHK?RP  ADCON0
                          M     if (((ADCON0) & 180h) == 0)
                          M       if (PREV_BANK == 1)
                          M         bcf     STATUS, RP0
                          M       endif
                          M       if (PREV_BANK == 2)
                          M         bcf     STATUS, RP1
                          M       endif
                          M       if (PREV_BANK == 3)
                          M         bcf     STATUS, RP0
                          M         bcf     STATUS, RP1
                          M       endif
  00000000                M PREV_BANK = 0
                          M     endif
                          M 
                          M     if (((ADCON0) & 180h) == 80h)
                          M       if (PREV_BANK == 0)
                          M         bsf     STATUS, RP0
                          M       endif
                          M       if (PREV_BANK == 2)
                          M         bsf     STATUS, RP0
MPASM 5.75                   I2C SCANNER.ASM   3-19-2018  12:35:42         PAGE 26


LOC  OBJECT CODE     LINE SOURCE TEXT
  VALUE

                          M         bcf     STATUS, RP1
                          M       endif
                          M       if (PREV_BANK == 3)
                          M         bcf     STATUS, RP1
                          M       endif
                          M PREV_BANK = 1
                          M     endif
                          M 
                          M     if (((ADCON0) & 180h) == 100h)
                          M       if (PREV_BANK == 0)
                          M         bsf     STATUS, RP1
                          M       endif
                          M       if (PREV_BANK == 1)
                          M         bcf     STATUS, RP0
                          M         bsf     STATUS, RP1
                          M       endif
                          M       if (PREV_BANK == 3)
                          M         bcf     STATUS, RP0
                          M       endif
                          M PREV_BANK = 2
                          M     endif
                          M 
                          M     if (((ADCON0) & 180h) == 180h)
                          M       if (PREV_BANK == 0)
                          M         bsf     STATUS, RP0
                          M         bsf     STATUS, RP1
                          M       endif
                          M       if (PREV_BANK == 1)
                          M         bsf     STATUS, RP1
                          M       endif
                          M       if (PREV_BANK == 2)
                          M         bsf     STATUS, RP0
                          M       endif
                          M PREV_BANK = 3
                          M     endif
                          M     if (low (000h) == 0)
0114   019F               M         clrf    ADCON0
                          M     else
                          M         movlw   low (000h)
                          M         movwf   ADCON0
                          M     endif
                      00233 
                      00234 ; C:\USERS\ANDREW MCENTEE\DOCUMENTS\DEVELOPMENT\PBP3\16F688 PROGRAMS\I2C SCANNER.PBP    00040   output LED
                      00235         OUTPUT?T        _LED
                          M         MOVE?CT 0, ((PORTC) + 80h), 002h
                          M         CHK?RP  ((PORTC) + 80h)
                          M     if (((((PORTC) + 80h)) & 180h) == 0)
                          M       if (PREV_BANK == 1)
                          M         bcf     STATUS, RP0
                          M       endif
                          M       if (PREV_BANK == 2)
                          M         bcf     STATUS, RP1
                          M       endif
MPASM 5.75                   I2C SCANNER.ASM   3-19-2018  12:35:42         PAGE 27


LOC  OBJECT CODE     LINE SOURCE TEXT
  VALUE

                          M       if (PREV_BANK == 3)
                          M         bcf     STATUS, RP0
                          M         bcf     STATUS, RP1
                          M       endif
                          M PREV_BANK = 0
                          M     endif
                          M 
                          M     if (((((PORTC) + 80h)) & 180h) == 80h)
                          M       if (PREV_BANK == 0)
0115   1683               M         bsf     STATUS, RP0
                          M       endif
                          M       if (PREV_BANK == 2)
                          M         bsf     STATUS, RP0
                          M         bcf     STATUS, RP1
                          M       endif
                          M       if (PREV_BANK == 3)
                          M         bcf     STATUS, RP1
                          M       endif
  00000001                M PREV_BANK = 1
                          M     endif
                          M 
                          M     if (((((PORTC) + 80h)) & 180h) == 100h)
                          M       if (PREV_BANK == 0)
                          M         bsf     STATUS, RP1
                          M       endif
                          M       if (PREV_BANK == 1)
                          M         bcf     STATUS, RP0
                          M         bsf     STATUS, RP1
                          M       endif
                          M       if (PREV_BANK == 3)
                          M         bcf     STATUS, RP0
                          M       endif
                          M PREV_BANK = 2
                          M     endif
                          M 
                          M     if (((((PORTC) + 80h)) & 180h) == 180h)
                          M       if (PREV_BANK == 0)
                          M         bsf     STATUS, RP0
                          M         bsf     STATUS, RP1
                          M       endif
                          M       if (PREV_BANK == 1)
                          M         bsf     STATUS, RP1
                          M       endif
                          M       if (PREV_BANK == 2)
                          M         bsf     STATUS, RP0
                          M       endif
                          M PREV_BANK = 3
                          M     endif
                          M     if (((0)   & 1) == 1)
                          M         bsf     ((PORTC) + 80h), 002h
                          M     else
0116   1107               M         bcf     ((PORTC) + 80h), 002h
                          M     endif
MPASM 5.75                   I2C SCANNER.ASM   3-19-2018  12:35:42         PAGE 28


LOC  OBJECT CODE     LINE SOURCE TEXT
  VALUE

                      00236 
                      00237 ; C:\USERS\ANDREW MCENTEE\DOCUMENTS\DEVELOPMENT\PBP3\16F688 PROGRAMS\I2C SCANNER.PBP    00041   output SCL
                      00238         OUTPUT?T        _SCL
                          M         MOVE?CT 0, ((PORTA) + 80h), 004h
                          M         CHK?RP  ((PORTA) + 80h)
                          M     if (((((PORTA) + 80h)) & 180h) == 0)
                          M       if (PREV_BANK == 1)
                          M         bcf     STATUS, RP0
                          M       endif
                          M       if (PREV_BANK == 2)
                          M         bcf     STATUS, RP1
                          M       endif
                          M       if (PREV_BANK == 3)
                          M         bcf     STATUS, RP0
                          M         bcf     STATUS, RP1
                          M       endif
                          M PREV_BANK = 0
                          M     endif
                          M 
                          M     if (((((PORTA) + 80h)) & 180h) == 80h)
                          M       if (PREV_BANK == 0)
                          M         bsf     STATUS, RP0
                          M       endif
                          M       if (PREV_BANK == 2)
                          M         bsf     STATUS, RP0
                          M         bcf     STATUS, RP1
                          M       endif
                          M       if (PREV_BANK == 3)
                          M         bcf     STATUS, RP1
                          M       endif
  00000001                M PREV_BANK = 1
                          M     endif
                          M 
                          M     if (((((PORTA) + 80h)) & 180h) == 100h)
                          M       if (PREV_BANK == 0)
                          M         bsf     STATUS, RP1
                          M       endif
                          M       if (PREV_BANK == 1)
                          M         bcf     STATUS, RP0
                          M         bsf     STATUS, RP1
                          M       endif
                          M       if (PREV_BANK == 3)
                          M         bcf     STATUS, RP0
                          M       endif
                          M PREV_BANK = 2
                          M     endif
                          M 
                          M     if (((((PORTA) + 80h)) & 180h) == 180h)
                          M       if (PREV_BANK == 0)
                          M         bsf     STATUS, RP0
                          M         bsf     STATUS, RP1
                          M       endif
                          M       if (PREV_BANK == 1)
MPASM 5.75                   I2C SCANNER.ASM   3-19-2018  12:35:42         PAGE 29


LOC  OBJECT CODE     LINE SOURCE TEXT
  VALUE

                          M         bsf     STATUS, RP1
                          M       endif
                          M       if (PREV_BANK == 2)
                          M         bsf     STATUS, RP0
                          M       endif
                          M PREV_BANK = 3
                          M     endif
                          M     if (((0)   & 1) == 1)
                          M         bsf     ((PORTA) + 80h), 004h
                          M     else
0117   1205               M         bcf     ((PORTA) + 80h), 004h
                          M     endif
                      00239 
                      00240 ; C:\USERS\ANDREW MCENTEE\DOCUMENTS\DEVELOPMENT\PBP3\16F688 PROGRAMS\I2C SCANNER.PBP    00042   output SDA
                      00241         OUTPUT?T        _SDA
                          M         MOVE?CT 0, ((PORTA) + 80h), 005h
                          M         CHK?RP  ((PORTA) + 80h)
                          M     if (((((PORTA) + 80h)) & 180h) == 0)
                          M       if (PREV_BANK == 1)
                          M         bcf     STATUS, RP0
                          M       endif
                          M       if (PREV_BANK == 2)
                          M         bcf     STATUS, RP1
                          M       endif
                          M       if (PREV_BANK == 3)
                          M         bcf     STATUS, RP0
                          M         bcf     STATUS, RP1
                          M       endif
                          M PREV_BANK = 0
                          M     endif
                          M 
                          M     if (((((PORTA) + 80h)) & 180h) == 80h)
                          M       if (PREV_BANK == 0)
                          M         bsf     STATUS, RP0
                          M       endif
                          M       if (PREV_BANK == 2)
                          M         bsf     STATUS, RP0
                          M         bcf     STATUS, RP1
                          M       endif
                          M       if (PREV_BANK == 3)
                          M         bcf     STATUS, RP1
                          M       endif
  00000001                M PREV_BANK = 1
                          M     endif
                          M 
                          M     if (((((PORTA) + 80h)) & 180h) == 100h)
                          M       if (PREV_BANK == 0)
                          M         bsf     STATUS, RP1
                          M       endif
                          M       if (PREV_BANK == 1)
                          M         bcf     STATUS, RP0
                          M         bsf     STATUS, RP1
                          M       endif
MPASM 5.75                   I2C SCANNER.ASM   3-19-2018  12:35:42         PAGE 30


LOC  OBJECT CODE     LINE SOURCE TEXT
  VALUE

                          M       if (PREV_BANK == 3)
                          M         bcf     STATUS, RP0
                          M       endif
                          M PREV_BANK = 2
                          M     endif
                          M 
                          M     if (((((PORTA) + 80h)) & 180h) == 180h)
                          M       if (PREV_BANK == 0)
                          M         bsf     STATUS, RP0
                          M         bsf     STATUS, RP1
                          M       endif
                          M       if (PREV_BANK == 1)
                          M         bsf     STATUS, RP1
                          M       endif
                          M       if (PREV_BANK == 2)
                          M         bsf     STATUS, RP0
                          M       endif
                          M PREV_BANK = 3
                          M     endif
                          M     if (((0)   & 1) == 1)
                          M         bsf     ((PORTA) + 80h), 005h
                          M     else
0118   1285               M         bcf     ((PORTA) + 80h), 005h
                          M     endif
                      00242 
                      00243 ; C:\USERS\ANDREW MCENTEE\DOCUMENTS\DEVELOPMENT\PBP3\16F688 PROGRAMS\I2C SCANNER.PBP    00043   output DSP
                      00244         OUTPUT?T        _DSP
                          M         MOVE?CT 0, ((PORTA) + 80h), 000h
                          M         CHK?RP  ((PORTA) + 80h)
                          M     if (((((PORTA) + 80h)) & 180h) == 0)
                          M       if (PREV_BANK == 1)
                          M         bcf     STATUS, RP0
                          M       endif
                          M       if (PREV_BANK == 2)
                          M         bcf     STATUS, RP1
                          M       endif
                          M       if (PREV_BANK == 3)
                          M         bcf     STATUS, RP0
                          M         bcf     STATUS, RP1
                          M       endif
                          M PREV_BANK = 0
                          M     endif
                          M 
                          M     if (((((PORTA) + 80h)) & 180h) == 80h)
                          M       if (PREV_BANK == 0)
                          M         bsf     STATUS, RP0
                          M       endif
                          M       if (PREV_BANK == 2)
                          M         bsf     STATUS, RP0
                          M         bcf     STATUS, RP1
                          M       endif
                          M       if (PREV_BANK == 3)
                          M         bcf     STATUS, RP1
MPASM 5.75                   I2C SCANNER.ASM   3-19-2018  12:35:42         PAGE 31


LOC  OBJECT CODE     LINE SOURCE TEXT
  VALUE

                          M       endif
  00000001                M PREV_BANK = 1
                          M     endif
                          M 
                          M     if (((((PORTA) + 80h)) & 180h) == 100h)
                          M       if (PREV_BANK == 0)
                          M         bsf     STATUS, RP1
                          M       endif
                          M       if (PREV_BANK == 1)
                          M         bcf     STATUS, RP0
                          M         bsf     STATUS, RP1
                          M       endif
                          M       if (PREV_BANK == 3)
                          M         bcf     STATUS, RP0
                          M       endif
                          M PREV_BANK = 2
                          M     endif
                          M 
                          M     if (((((PORTA) + 80h)) & 180h) == 180h)
                          M       if (PREV_BANK == 0)
                          M         bsf     STATUS, RP0
                          M         bsf     STATUS, RP1
                          M       endif
                          M       if (PREV_BANK == 1)
                          M         bsf     STATUS, RP1
                          M       endif
                          M       if (PREV_BANK == 2)
                          M         bsf     STATUS, RP0
                          M       endif
                          M PREV_BANK = 3
                          M     endif
                          M     if (((0)   & 1) == 1)
                          M         bsf     ((PORTA) + 80h), 000h
                          M     else
0119   1005               M         bcf     ((PORTA) + 80h), 000h
                          M     endif
                      00245 
                      00246 ; C:\USERS\ANDREW MCENTEE\DOCUMENTS\DEVELOPMENT\PBP3\16F688 PROGRAMS\I2C SCANNER.PBP    00045   gosub INIT_LCD
                      00247         GOSUB?L _INIT_LCD
  0000                    M     local dlabel
                          M     ifdef DEBUG_STACK
                          M         CHK?RP  DEBUG_STACK
                          M       ifdef DEBUG_STACK_ADDR
                          M         bcf     STATUS, C
                          M         rlf     DEBUG_STACK, W
                          M         addlw   DEBUG_STACK_ADDR
                          M         movwf   FSR
                          M         movlw   low (dlabel)
                          M         movwf   INDF
                          M         incf    FSR, F
                          M         movlw   high (dlabel)
                          M         movwf   INDF
                          M       endif
MPASM 5.75                   I2C SCANNER.ASM   3-19-2018  12:35:42         PAGE 32


LOC  OBJECT CODE     LINE SOURCE TEXT
  VALUE

                          M         incf    DEBUG_STACK, F
                          M     endif
                          M         L?CALL  _INIT_LCD
                          M         RST?RP
                          M     if ((PREV_BANK & 1) != 0)
011A   1283               M         bcf     STATUS, RP0
                          M     endif
                          M     if ((PREV_BANK & 2) != 0)
                          M         bcf     STATUS, RP1
                          M     endif
  00000000                M PREV_BANK = 0
                          M 
                          M     ifdef USE_LINKER
                          M       if (CODE_SIZE > 2)
                          M         pagesel _INIT_LCD
                          M       endif
                          M     else
                          M       if ((_INIT_LCD) < 1)
                          M         if (CODE_SIZE > 2)
                          M           if (((_INIT_LCD) & 800h) == 0)
                          M         bcf     PCLATH, 3
                          M         else
                          M         bsf     PCLATH, 3
                          M         endif
                          M         endif
                          M         if (CODE_SIZE > 4)
                          M           if (((_INIT_LCD) & 1000h) == 0)
                          M         bcf     PCLATH, 4
                          M           else
                          M         bsf     PCLATH, 4
                          M           endif
                          M         endif
                          M       else
                          M         if ((_INIT_LCD) > $)
                          M           if (CODE_SIZE > 2)
                          M             if (((_INIT_LCD) & 800h) == 0)
011B   118A               M         bcf     PCLATH, 3
                          M             else
                          M         bsf     PCLATH, 3
                          M             endif
                          M           endif
                          M           if (CODE_SIZE > 4)
                          M             if (((_INIT_LCD) & 1000h) == 0)
                          M         bcf     PCLATH, 4
                          M             else
                          M         bsf     PCLATH, 4
                          M             endif
                          M           endif
                          M         else
                          M           if (CODE_SIZE > 2)
                          M             if (((_INIT_LCD) & 1800h) == 0)
                          M         clrf    PCLATH
                          M             else
MPASM 5.75                   I2C SCANNER.ASM   3-19-2018  12:35:42         PAGE 33


LOC  OBJECT CODE     LINE SOURCE TEXT
  VALUE

                          M               if (((_INIT_LCD) & 800h) == 0)
                          M         bcf     PCLATH, 3
                          M               else
                          M         bsf     PCLATH, 3
                          M               endif
                          M               if (CODE_SIZE > 4)
                          M                 if (((_INIT_LCD) & 1000h) == 0)
                          M         bcf     PCLATH, 4
                          M                 else
                          M         bsf     PCLATH, 4
                          M                 endif   
                          M               endif
                          M             endif
                          M           endif
                          M         endif
                          M       endif
                          M     endif
                          M 
011C   21E1               M         call    _INIT_LCD
011D                      M dlabel
                      00248 
                      00249 ; C:\USERS\ANDREW MCENTEE\DOCUMENTS\DEVELOPMENT\PBP3\16F688 PROGRAMS\I2C SCANNER.PBP    00046   gosub clr
                      00250         GOSUB?L _clr
  0000                    M     local dlabel
                          M     ifdef DEBUG_STACK
                          M         CHK?RP  DEBUG_STACK
                          M       ifdef DEBUG_STACK_ADDR
                          M         bcf     STATUS, C
                          M         rlf     DEBUG_STACK, W
                          M         addlw   DEBUG_STACK_ADDR
                          M         movwf   FSR
                          M         movlw   low (dlabel)
                          M         movwf   INDF
                          M         incf    FSR, F
                          M         movlw   high (dlabel)
                          M         movwf   INDF
                          M       endif
                          M         incf    DEBUG_STACK, F
                          M     endif
                          M         L?CALL  _clr
                          M         RST?RP
                          M     if ((PREV_BANK & 1) != 0)
                          M         bcf     STATUS, RP0
                          M     endif
                          M     if ((PREV_BANK & 2) != 0)
                          M         bcf     STATUS, RP1
                          M     endif
  00000000                M PREV_BANK = 0
                          M 
                          M     ifdef USE_LINKER
                          M       if (CODE_SIZE > 2)
                          M         pagesel _clr
                          M       endif
MPASM 5.75                   I2C SCANNER.ASM   3-19-2018  12:35:42         PAGE 34


LOC  OBJECT CODE     LINE SOURCE TEXT
  VALUE

                          M     else
                          M       if ((_clr)  < 1)
                          M         if (CODE_SIZE > 2)
                          M           if (((_clr)  & 800h) == 0)
                          M         bcf     PCLATH, 3
                          M         else
                          M         bsf     PCLATH, 3
                          M         endif
                          M         endif
                          M         if (CODE_SIZE > 4)
                          M           if (((_clr)  & 1000h) == 0)
                          M         bcf     PCLATH, 4
                          M           else
                          M         bsf     PCLATH, 4
                          M           endif
                          M         endif
                          M       else
                          M         if ((_clr)  > $)
                          M           if (CODE_SIZE > 2)
                          M             if (((_clr)  & 800h) == 0)
011D   118A               M         bcf     PCLATH, 3
                          M             else
                          M         bsf     PCLATH, 3
                          M             endif
                          M           endif
                          M           if (CODE_SIZE > 4)
                          M             if (((_clr)  & 1000h) == 0)
                          M         bcf     PCLATH, 4
                          M             else
                          M         bsf     PCLATH, 4
                          M             endif
                          M           endif
                          M         else
                          M           if (CODE_SIZE > 2)
                          M             if (((_clr)  & 1800h) == 0)
                          M         clrf    PCLATH
                          M             else
                          M               if (((_clr)  & 800h) == 0)
                          M         bcf     PCLATH, 3
                          M               else
                          M         bsf     PCLATH, 3
                          M               endif
                          M               if (CODE_SIZE > 4)
                          M                 if (((_clr)  & 1000h) == 0)
                          M         bcf     PCLATH, 4
                          M                 else
                          M         bsf     PCLATH, 4
                          M                 endif   
                          M               endif
                          M             endif
                          M           endif
                          M         endif
                          M       endif
MPASM 5.75                   I2C SCANNER.ASM   3-19-2018  12:35:42         PAGE 35


LOC  OBJECT CODE     LINE SOURCE TEXT
  VALUE

                          M     endif
                          M 
011E   21E9               M         call    _clr
011F                      M dlabel
                      00251 
                      00252 ; C:\USERS\ANDREW MCENTEE\DOCUMENTS\DEVELOPMENT\PBP3\16F688 PROGRAMS\I2C SCANNER.PBP    00047   gosub Line1
                      00253         GOSUB?L _Line1
  0000                    M     local dlabel
                          M     ifdef DEBUG_STACK
                          M         CHK?RP  DEBUG_STACK
                          M       ifdef DEBUG_STACK_ADDR
                          M         bcf     STATUS, C
                          M         rlf     DEBUG_STACK, W
                          M         addlw   DEBUG_STACK_ADDR
                          M         movwf   FSR
                          M         movlw   low (dlabel)
                          M         movwf   INDF
                          M         incf    FSR, F
                          M         movlw   high (dlabel)
                          M         movwf   INDF
                          M       endif
                          M         incf    DEBUG_STACK, F
                          M     endif
                          M         L?CALL  _Line1
                          M         RST?RP
                          M     if ((PREV_BANK & 1) != 0)
                          M         bcf     STATUS, RP0
                          M     endif
                          M     if ((PREV_BANK & 2) != 0)
                          M         bcf     STATUS, RP1
                          M     endif
  00000000                M PREV_BANK = 0
                          M 
                          M     ifdef USE_LINKER
                          M       if (CODE_SIZE > 2)
                          M         pagesel _Line1
                          M       endif
                          M     else
                          M       if ((_Line1) < 1)
                          M         if (CODE_SIZE > 2)
                          M           if (((_Line1) & 800h) == 0)
                          M         bcf     PCLATH, 3
                          M         else
                          M         bsf     PCLATH, 3
                          M         endif
                          M         endif
                          M         if (CODE_SIZE > 4)
                          M           if (((_Line1) & 1000h) == 0)
                          M         bcf     PCLATH, 4
                          M           else
                          M         bsf     PCLATH, 4
                          M           endif
                          M         endif
MPASM 5.75                   I2C SCANNER.ASM   3-19-2018  12:35:42         PAGE 36


LOC  OBJECT CODE     LINE SOURCE TEXT
  VALUE

                          M       else
                          M         if ((_Line1) > $)
                          M           if (CODE_SIZE > 2)
                          M             if (((_Line1) & 800h) == 0)
011F   118A               M         bcf     PCLATH, 3
                          M             else
                          M         bsf     PCLATH, 3
                          M             endif
                          M           endif
                          M           if (CODE_SIZE > 4)
                          M             if (((_Line1) & 1000h) == 0)
                          M         bcf     PCLATH, 4
                          M             else
                          M         bsf     PCLATH, 4
                          M             endif
                          M           endif
                          M         else
                          M           if (CODE_SIZE > 2)
                          M             if (((_Line1) & 1800h) == 0)
                          M         clrf    PCLATH
                          M             else
                          M               if (((_Line1) & 800h) == 0)
                          M         bcf     PCLATH, 3
                          M               else
                          M         bsf     PCLATH, 3
                          M               endif
                          M               if (CODE_SIZE > 4)
                          M                 if (((_Line1) & 1000h) == 0)
                          M         bcf     PCLATH, 4
                          M                 else
                          M         bsf     PCLATH, 4
                          M                 endif   
                          M               endif
                          M             endif
                          M           endif
                          M         endif
                          M       endif
                          M     endif
                          M 
0120   21F9               M         call    _Line1
0121                      M dlabel
                      00254 
                      00255 ; C:\USERS\ANDREW MCENTEE\DOCUMENTS\DEVELOPMENT\PBP3\16F688 PROGRAMS\I2C SCANNER.PBP    00048   gosub blink_cur
                      00256         GOSUB?L _blink_cur
  0000                    M     local dlabel
                          M     ifdef DEBUG_STACK
                          M         CHK?RP  DEBUG_STACK
                          M       ifdef DEBUG_STACK_ADDR
                          M         bcf     STATUS, C
                          M         rlf     DEBUG_STACK, W
                          M         addlw   DEBUG_STACK_ADDR
                          M         movwf   FSR
                          M         movlw   low (dlabel)
MPASM 5.75                   I2C SCANNER.ASM   3-19-2018  12:35:42         PAGE 37


LOC  OBJECT CODE     LINE SOURCE TEXT
  VALUE

                          M         movwf   INDF
                          M         incf    FSR, F
                          M         movlw   high (dlabel)
                          M         movwf   INDF
                          M       endif
                          M         incf    DEBUG_STACK, F
                          M     endif
                          M         L?CALL  _blink_cur
                          M         RST?RP
                          M     if ((PREV_BANK & 1) != 0)
                          M         bcf     STATUS, RP0
                          M     endif
                          M     if ((PREV_BANK & 2) != 0)
                          M         bcf     STATUS, RP1
                          M     endif
  00000000                M PREV_BANK = 0
                          M 
                          M     ifdef USE_LINKER
                          M       if (CODE_SIZE > 2)
                          M         pagesel _blink_cur
                          M       endif
                          M     else
                          M       if ((_blink_cur) < 1)
                          M         if (CODE_SIZE > 2)
                          M           if (((_blink_cur) & 800h) == 0)
                          M         bcf     PCLATH, 3
                          M         else
                          M         bsf     PCLATH, 3
                          M         endif
                          M         endif
                          M         if (CODE_SIZE > 4)
                          M           if (((_blink_cur) & 1000h) == 0)
                          M         bcf     PCLATH, 4
                          M           else
                          M         bsf     PCLATH, 4
                          M           endif
                          M         endif
                          M       else
                          M         if ((_blink_cur) > $)
                          M           if (CODE_SIZE > 2)
                          M             if (((_blink_cur) & 800h) == 0)
0121   118A               M         bcf     PCLATH, 3
                          M             else
                          M         bsf     PCLATH, 3
                          M             endif
                          M           endif
                          M           if (CODE_SIZE > 4)
                          M             if (((_blink_cur) & 1000h) == 0)
                          M         bcf     PCLATH, 4
                          M             else
                          M         bsf     PCLATH, 4
                          M             endif
                          M           endif
MPASM 5.75                   I2C SCANNER.ASM   3-19-2018  12:35:42         PAGE 38


LOC  OBJECT CODE     LINE SOURCE TEXT
  VALUE

                          M         else
                          M           if (CODE_SIZE > 2)
                          M             if (((_blink_cur) & 1800h) == 0)
                          M         clrf    PCLATH
                          M             else
                          M               if (((_blink_cur) & 800h) == 0)
                          M         bcf     PCLATH, 3
                          M               else
                          M         bsf     PCLATH, 3
                          M               endif
                          M               if (CODE_SIZE > 4)
                          M                 if (((_blink_cur) & 1000h) == 0)
                          M         bcf     PCLATH, 4
                          M                 else
                          M         bsf     PCLATH, 4
                          M                 endif   
                          M               endif
                          M             endif
                          M           endif
                          M         endif
                          M       endif
                          M     endif
                          M 
0122   2213               M         call    _blink_cur
0123                      M dlabel
                      00257 
                      00258 ; C:\USERS\ANDREW MCENTEE\DOCUMENTS\DEVELOPMENT\PBP3\16F688 PROGRAMS\I2C SCANNER.PBP    00049   counter = 0
                      00259         MOVE?CB 000h, _COUNTER
                          M         CHK?RP  _COUNTER
                          M     if (((_COUNTER) & 180h) == 0)
                          M       if (PREV_BANK == 1)
                          M         bcf     STATUS, RP0
                          M       endif
                          M       if (PREV_BANK == 2)
                          M         bcf     STATUS, RP1
                          M       endif
                          M       if (PREV_BANK == 3)
                          M         bcf     STATUS, RP0
                          M         bcf     STATUS, RP1
                          M       endif
  00000000                M PREV_BANK = 0
                          M     endif
                          M 
                          M     if (((_COUNTER) & 180h) == 80h)
                          M       if (PREV_BANK == 0)
                          M         bsf     STATUS, RP0
                          M       endif
                          M       if (PREV_BANK == 2)
                          M         bsf     STATUS, RP0
                          M         bcf     STATUS, RP1
                          M       endif
                          M       if (PREV_BANK == 3)
                          M         bcf     STATUS, RP1
MPASM 5.75                   I2C SCANNER.ASM   3-19-2018  12:35:42         PAGE 39


LOC  OBJECT CODE     LINE SOURCE TEXT
  VALUE

                          M       endif
                          M PREV_BANK = 1
                          M     endif
                          M 
                          M     if (((_COUNTER) & 180h) == 100h)
                          M       if (PREV_BANK == 0)
                          M         bsf     STATUS, RP1
                          M       endif
                          M       if (PREV_BANK == 1)
                          M         bcf     STATUS, RP0
                          M         bsf     STATUS, RP1
                          M       endif
                          M       if (PREV_BANK == 3)
                          M         bcf     STATUS, RP0
                          M       endif
                          M PREV_BANK = 2
                          M     endif
                          M 
                          M     if (((_COUNTER) & 180h) == 180h)
                          M       if (PREV_BANK == 0)
                          M         bsf     STATUS, RP0
                          M         bsf     STATUS, RP1
                          M       endif
                          M       if (PREV_BANK == 1)
                          M         bsf     STATUS, RP1
                          M       endif
                          M       if (PREV_BANK == 2)
                          M         bsf     STATUS, RP0
                          M       endif
                          M PREV_BANK = 3
                          M     endif
                          M     if (low (000h) == 0)
0123   01BA               M         clrf    _COUNTER
                          M     else
                          M         movlw   low (000h)
                          M         movwf   _COUNTER
                          M     endif
                      00260 
                      00261 ; C:\USERS\ANDREW MCENTEE\DOCUMENTS\DEVELOPMENT\PBP3\16F688 PROGRAMS\I2C SCANNER.PBP    00050   serout dsp,T9600,["I2C Scanner"]
                      00262         SERPIN?T        _DSP
                          M         BIT?R1  PORTA, 000h
0124   3005               M         movlw   low ((PORTA) + ((000h)  >> 3))
                          M         CHK?RP  RR1
                          M     if (((RR1)   & 180h) == 0)
                          M       if (PREV_BANK == 1)
                          M         bcf     STATUS, RP0
                          M       endif
                          M       if (PREV_BANK == 2)
                          M         bcf     STATUS, RP1
                          M       endif
                          M       if (PREV_BANK == 3)
                          M         bcf     STATUS, RP0
                          M         bcf     STATUS, RP1
MPASM 5.75                   I2C SCANNER.ASM   3-19-2018  12:35:42         PAGE 40


LOC  OBJECT CODE     LINE SOURCE TEXT
  VALUE

                          M       endif
  00000000                M PREV_BANK = 0
                          M     endif
                          M 
                          M     if (((RR1)   & 180h) == 80h)
                          M       if (PREV_BANK == 0)
                          M         bsf     STATUS, RP0
                          M       endif
                          M       if (PREV_BANK == 2)
                          M         bsf     STATUS, RP0
                          M         bcf     STATUS, RP1
                          M       endif
                          M       if (PREV_BANK == 3)
                          M         bcf     STATUS, RP1
                          M       endif
                          M PREV_BANK = 1
                          M     endif
                          M 
                          M     if (((RR1)   & 180h) == 100h)
                          M       if (PREV_BANK == 0)
                          M         bsf     STATUS, RP1
                          M       endif
                          M       if (PREV_BANK == 1)
                          M         bcf     STATUS, RP0
                          M         bsf     STATUS, RP1
                          M       endif
                          M       if (PREV_BANK == 3)
                          M         bcf     STATUS, RP0
                          M       endif
                          M PREV_BANK = 2
                          M     endif
                          M 
                          M     if (((RR1)   & 180h) == 180h)
                          M       if (PREV_BANK == 0)
                          M         bsf     STATUS, RP0
                          M         bsf     STATUS, RP1
                          M       endif
                          M       if (PREV_BANK == 1)
                          M         bsf     STATUS, RP1
                          M       endif
                          M       if (PREV_BANK == 2)
                          M         bsf     STATUS, RP0
                          M       endif
                          M PREV_BANK = 3
                          M     endif
0125   00B6               M         movwf   RR1
                          M         BIT?W   000h
                          M     if (((000h)  & 7) == 0)
0126   3001               M         movlw   01h
                          M     endif
                          M     if (((000h)  & 7) == 1)
                          M         movlw   02h
                          M     endif
MPASM 5.75                   I2C SCANNER.ASM   3-19-2018  12:35:42         PAGE 41


LOC  OBJECT CODE     LINE SOURCE TEXT
  VALUE

                          M     if (((000h)  & 7) == 2)
                          M         movlw   04h
                          M     endif
                          M     if (((000h)  & 7) == 3)
                          M         movlw   08h
                          M     endif
                          M     if (((000h)  & 7) == 4)
                          M         movlw   10h
                          M     endif
                          M     if (((000h)  & 7) == 5)
                          M         movlw   20h
                          M     endif
                          M     if (((000h)  & 7) == 6)
                          M         movlw   40h
                          M     endif
                          M     if (((000h)  & 7) == 7)
                          M         movlw   80h
                          M     endif
0127   00B4               M         movwf   RM1
                      00263         SERMODE?C       _T9600
                          M         MOVE?CB _T9600, GOP
                          M         CHK?RP  GOP
                          M     if (((GOP)   & 180h) == 0)
                          M       if (PREV_BANK == 1)
                          M         bcf     STATUS, RP0
                          M       endif
                          M       if (PREV_BANK == 2)
                          M         bcf     STATUS, RP1
                          M       endif
                          M       if (PREV_BANK == 3)
                          M         bcf     STATUS, RP0
                          M         bcf     STATUS, RP1
                          M       endif
  00000000                M PREV_BANK = 0
                          M     endif
                          M 
                          M     if (((GOP)   & 180h) == 80h)
                          M       if (PREV_BANK == 0)
                          M         bsf     STATUS, RP0
                          M       endif
                          M       if (PREV_BANK == 2)
                          M         bsf     STATUS, RP0
                          M         bcf     STATUS, RP1
                          M       endif
                          M       if (PREV_BANK == 3)
                          M         bcf     STATUS, RP1
                          M       endif
                          M PREV_BANK = 1
                          M     endif
                          M 
                          M     if (((GOP)   & 180h) == 100h)
                          M       if (PREV_BANK == 0)
                          M         bsf     STATUS, RP1
MPASM 5.75                   I2C SCANNER.ASM   3-19-2018  12:35:42         PAGE 42


LOC  OBJECT CODE     LINE SOURCE TEXT
  VALUE

                          M       endif
                          M       if (PREV_BANK == 1)
                          M         bcf     STATUS, RP0
                          M         bsf     STATUS, RP1
                          M       endif
                          M       if (PREV_BANK == 3)
                          M         bcf     STATUS, RP0
                          M       endif
                          M PREV_BANK = 2
                          M     endif
                          M 
                          M     if (((GOP)   & 180h) == 180h)
                          M       if (PREV_BANK == 0)
                          M         bsf     STATUS, RP0
                          M         bsf     STATUS, RP1
                          M       endif
                          M       if (PREV_BANK == 1)
                          M         bsf     STATUS, RP1
                          M       endif
                          M       if (PREV_BANK == 2)
                          M         bsf     STATUS, RP0
                          M       endif
                          M PREV_BANK = 3
                          M     endif
                          M     if (low (_T9600) == 0)
                          M         clrf    GOP
                          M     else
0128   3002               M         movlw   low (_T9600)
0129   00B3               M         movwf   GOP
                          M     endif
                      00264         SEROUT?C        049h
012A   3049               M         movlw   049h
                          M         L?CALL  SEROUT
                          M         RST?RP
                          M     if ((PREV_BANK & 1) != 0)
                          M         bcf     STATUS, RP0
                          M     endif
                          M     if ((PREV_BANK & 2) != 0)
                          M         bcf     STATUS, RP1
                          M     endif
  00000000                M PREV_BANK = 0
                          M 
                          M     ifdef USE_LINKER
                          M       if (CODE_SIZE > 2)
                          M         pagesel SEROUT
                          M       endif
                          M     else
                          M       if ((SEROUT) < 1)
                          M         if (CODE_SIZE > 2)
                          M           if (((SEROUT) & 800h) == 0)
                          M         bcf     PCLATH, 3
                          M         else
                          M         bsf     PCLATH, 3
MPASM 5.75                   I2C SCANNER.ASM   3-19-2018  12:35:42         PAGE 43


LOC  OBJECT CODE     LINE SOURCE TEXT
  VALUE

                          M         endif
                          M         endif
                          M         if (CODE_SIZE > 4)
                          M           if (((SEROUT) & 1000h) == 0)
                          M         bcf     PCLATH, 4
                          M           else
                          M         bsf     PCLATH, 4
                          M           endif
                          M         endif
                          M       else
                          M         if ((SEROUT) > $)
                          M           if (CODE_SIZE > 2)
                          M             if (((SEROUT) & 800h) == 0)
                          M         bcf     PCLATH, 3
                          M             else
                          M         bsf     PCLATH, 3
                          M             endif
                          M           endif
                          M           if (CODE_SIZE > 4)
                          M             if (((SEROUT) & 1000h) == 0)
                          M         bcf     PCLATH, 4
                          M             else
                          M         bsf     PCLATH, 4
                          M             endif
                          M           endif
                          M         else
                          M           if (CODE_SIZE > 2)
                          M             if (((SEROUT) & 1800h) == 0)
012B   018A               M         clrf    PCLATH
                          M             else
                          M               if (((SEROUT) & 800h) == 0)
                          M         bcf     PCLATH, 3
                          M               else
                          M         bsf     PCLATH, 3
                          M               endif
                          M               if (CODE_SIZE > 4)
                          M                 if (((SEROUT) & 1000h) == 0)
                          M         bcf     PCLATH, 4
                          M                 else
                          M         bsf     PCLATH, 4
                          M                 endif   
                          M               endif
                          M             endif
                          M           endif
                          M         endif
                          M       endif
                          M     endif
                          M 
012C   206C               M         call    SEROUT
                      00265         SEROUT?C        032h
012D   3032               M         movlw   032h
                          M         L?CALL  SEROUT
                          M         RST?RP
MPASM 5.75                   I2C SCANNER.ASM   3-19-2018  12:35:42         PAGE 44


LOC  OBJECT CODE     LINE SOURCE TEXT
  VALUE

                          M     if ((PREV_BANK & 1) != 0)
                          M         bcf     STATUS, RP0
                          M     endif
                          M     if ((PREV_BANK & 2) != 0)
                          M         bcf     STATUS, RP1
                          M     endif
  00000000                M PREV_BANK = 0
                          M 
                          M     ifdef USE_LINKER
                          M       if (CODE_SIZE > 2)
                          M         pagesel SEROUT
                          M       endif
                          M     else
                          M       if ((SEROUT) < 1)
                          M         if (CODE_SIZE > 2)
                          M           if (((SEROUT) & 800h) == 0)
                          M         bcf     PCLATH, 3
                          M         else
                          M         bsf     PCLATH, 3
                          M         endif
                          M         endif
                          M         if (CODE_SIZE > 4)
                          M           if (((SEROUT) & 1000h) == 0)
                          M         bcf     PCLATH, 4
                          M           else
                          M         bsf     PCLATH, 4
                          M           endif
                          M         endif
                          M       else
                          M         if ((SEROUT) > $)
                          M           if (CODE_SIZE > 2)
                          M             if (((SEROUT) & 800h) == 0)
                          M         bcf     PCLATH, 3
                          M             else
                          M         bsf     PCLATH, 3
                          M             endif
                          M           endif
                          M           if (CODE_SIZE > 4)
                          M             if (((SEROUT) & 1000h) == 0)
                          M         bcf     PCLATH, 4
                          M             else
                          M         bsf     PCLATH, 4
                          M             endif
                          M           endif
                          M         else
                          M           if (CODE_SIZE > 2)
                          M             if (((SEROUT) & 1800h) == 0)
012E   018A               M         clrf    PCLATH
                          M             else
                          M               if (((SEROUT) & 800h) == 0)
                          M         bcf     PCLATH, 3
                          M               else
                          M         bsf     PCLATH, 3
MPASM 5.75                   I2C SCANNER.ASM   3-19-2018  12:35:42         PAGE 45


LOC  OBJECT CODE     LINE SOURCE TEXT
  VALUE

                          M               endif
                          M               if (CODE_SIZE > 4)
                          M                 if (((SEROUT) & 1000h) == 0)
                          M         bcf     PCLATH, 4
                          M                 else
                          M         bsf     PCLATH, 4
                          M                 endif   
                          M               endif
                          M             endif
                          M           endif
                          M         endif
                          M       endif
                          M     endif
                          M 
012F   206C               M         call    SEROUT
                      00266         SEROUT?C        043h
0130   3043               M         movlw   043h
                          M         L?CALL  SEROUT
                          M         RST?RP
                          M     if ((PREV_BANK & 1) != 0)
                          M         bcf     STATUS, RP0
                          M     endif
                          M     if ((PREV_BANK & 2) != 0)
                          M         bcf     STATUS, RP1
                          M     endif
  00000000                M PREV_BANK = 0
                          M 
                          M     ifdef USE_LINKER
                          M       if (CODE_SIZE > 2)
                          M         pagesel SEROUT
                          M       endif
                          M     else
                          M       if ((SEROUT) < 1)
                          M         if (CODE_SIZE > 2)
                          M           if (((SEROUT) & 800h) == 0)
                          M         bcf     PCLATH, 3
                          M         else
                          M         bsf     PCLATH, 3
                          M         endif
                          M         endif
                          M         if (CODE_SIZE > 4)
                          M           if (((SEROUT) & 1000h) == 0)
                          M         bcf     PCLATH, 4
                          M           else
                          M         bsf     PCLATH, 4
                          M           endif
                          M         endif
                          M       else
                          M         if ((SEROUT) > $)
                          M           if (CODE_SIZE > 2)
                          M             if (((SEROUT) & 800h) == 0)
                          M         bcf     PCLATH, 3
                          M             else
MPASM 5.75                   I2C SCANNER.ASM   3-19-2018  12:35:42         PAGE 46


LOC  OBJECT CODE     LINE SOURCE TEXT
  VALUE

                          M         bsf     PCLATH, 3
                          M             endif
                          M           endif
                          M           if (CODE_SIZE > 4)
                          M             if (((SEROUT) & 1000h) == 0)
                          M         bcf     PCLATH, 4
                          M             else
                          M         bsf     PCLATH, 4
                          M             endif
                          M           endif
                          M         else
                          M           if (CODE_SIZE > 2)
                          M             if (((SEROUT) & 1800h) == 0)
0131   018A               M         clrf    PCLATH
                          M             else
                          M               if (((SEROUT) & 800h) == 0)
                          M         bcf     PCLATH, 3
                          M               else
                          M         bsf     PCLATH, 3
                          M               endif
                          M               if (CODE_SIZE > 4)
                          M                 if (((SEROUT) & 1000h) == 0)
                          M         bcf     PCLATH, 4
                          M                 else
                          M         bsf     PCLATH, 4
                          M                 endif   
                          M               endif
                          M             endif
                          M           endif
                          M         endif
                          M       endif
                          M     endif
                          M 
0132   206C               M         call    SEROUT
                      00267         SEROUT?C        020h
0133   3020               M         movlw   020h
                          M         L?CALL  SEROUT
                          M         RST?RP
                          M     if ((PREV_BANK & 1) != 0)
                          M         bcf     STATUS, RP0
                          M     endif
                          M     if ((PREV_BANK & 2) != 0)
                          M         bcf     STATUS, RP1
                          M     endif
  00000000                M PREV_BANK = 0
                          M 
                          M     ifdef USE_LINKER
                          M       if (CODE_SIZE > 2)
                          M         pagesel SEROUT
                          M       endif
                          M     else
                          M       if ((SEROUT) < 1)
                          M         if (CODE_SIZE > 2)
MPASM 5.75                   I2C SCANNER.ASM   3-19-2018  12:35:42         PAGE 47


LOC  OBJECT CODE     LINE SOURCE TEXT
  VALUE

                          M           if (((SEROUT) & 800h) == 0)
                          M         bcf     PCLATH, 3
                          M         else
                          M         bsf     PCLATH, 3
                          M         endif
                          M         endif
                          M         if (CODE_SIZE > 4)
                          M           if (((SEROUT) & 1000h) == 0)
                          M         bcf     PCLATH, 4
                          M           else
                          M         bsf     PCLATH, 4
                          M           endif
                          M         endif
                          M       else
                          M         if ((SEROUT) > $)
                          M           if (CODE_SIZE > 2)
                          M             if (((SEROUT) & 800h) == 0)
                          M         bcf     PCLATH, 3
                          M             else
                          M         bsf     PCLATH, 3
                          M             endif
                          M           endif
                          M           if (CODE_SIZE > 4)
                          M             if (((SEROUT) & 1000h) == 0)
                          M         bcf     PCLATH, 4
                          M             else
                          M         bsf     PCLATH, 4
                          M             endif
                          M           endif
                          M         else
                          M           if (CODE_SIZE > 2)
                          M             if (((SEROUT) & 1800h) == 0)
0134   018A               M         clrf    PCLATH
                          M             else
                          M               if (((SEROUT) & 800h) == 0)
                          M         bcf     PCLATH, 3
                          M               else
                          M         bsf     PCLATH, 3
                          M               endif
                          M               if (CODE_SIZE > 4)
                          M                 if (((SEROUT) & 1000h) == 0)
                          M         bcf     PCLATH, 4
                          M                 else
                          M         bsf     PCLATH, 4
                          M                 endif   
                          M               endif
                          M             endif
                          M           endif
                          M         endif
                          M       endif
                          M     endif
                          M 
0135   206C               M         call    SEROUT
MPASM 5.75                   I2C SCANNER.ASM   3-19-2018  12:35:42         PAGE 48


LOC  OBJECT CODE     LINE SOURCE TEXT
  VALUE

                      00268         SEROUT?C        053h
0136   3053               M         movlw   053h
                          M         L?CALL  SEROUT
                          M         RST?RP
                          M     if ((PREV_BANK & 1) != 0)
                          M         bcf     STATUS, RP0
                          M     endif
                          M     if ((PREV_BANK & 2) != 0)
                          M         bcf     STATUS, RP1
                          M     endif
  00000000                M PREV_BANK = 0
                          M 
                          M     ifdef USE_LINKER
                          M       if (CODE_SIZE > 2)
                          M         pagesel SEROUT
                          M       endif
                          M     else
                          M       if ((SEROUT) < 1)
                          M         if (CODE_SIZE > 2)
                          M           if (((SEROUT) & 800h) == 0)
                          M         bcf     PCLATH, 3
                          M         else
                          M         bsf     PCLATH, 3
                          M         endif
                          M         endif
                          M         if (CODE_SIZE > 4)
                          M           if (((SEROUT) & 1000h) == 0)
                          M         bcf     PCLATH, 4
                          M           else
                          M         bsf     PCLATH, 4
                          M           endif
                          M         endif
                          M       else
                          M         if ((SEROUT) > $)
                          M           if (CODE_SIZE > 2)
                          M             if (((SEROUT) & 800h) == 0)
                          M         bcf     PCLATH, 3
                          M             else
                          M         bsf     PCLATH, 3
                          M             endif
                          M           endif
                          M           if (CODE_SIZE > 4)
                          M             if (((SEROUT) & 1000h) == 0)
                          M         bcf     PCLATH, 4
                          M             else
                          M         bsf     PCLATH, 4
                          M             endif
                          M           endif
                          M         else
                          M           if (CODE_SIZE > 2)
                          M             if (((SEROUT) & 1800h) == 0)
0137   018A               M         clrf    PCLATH
                          M             else
MPASM 5.75                   I2C SCANNER.ASM   3-19-2018  12:35:42         PAGE 49


LOC  OBJECT CODE     LINE SOURCE TEXT
  VALUE

                          M               if (((SEROUT) & 800h) == 0)
                          M         bcf     PCLATH, 3
                          M               else
                          M         bsf     PCLATH, 3
                          M               endif
                          M               if (CODE_SIZE > 4)
                          M                 if (((SEROUT) & 1000h) == 0)
                          M         bcf     PCLATH, 4
                          M                 else
                          M         bsf     PCLATH, 4
                          M                 endif   
                          M               endif
                          M             endif
                          M           endif
                          M         endif
                          M       endif
                          M     endif
                          M 
0138   206C               M         call    SEROUT
                      00269         SEROUT?C        063h
0139   3063               M         movlw   063h
                          M         L?CALL  SEROUT
                          M         RST?RP
                          M     if ((PREV_BANK & 1) != 0)
                          M         bcf     STATUS, RP0
                          M     endif
                          M     if ((PREV_BANK & 2) != 0)
                          M         bcf     STATUS, RP1
                          M     endif
  00000000                M PREV_BANK = 0
                          M 
                          M     ifdef USE_LINKER
                          M       if (CODE_SIZE > 2)
                          M         pagesel SEROUT
                          M       endif
                          M     else
                          M       if ((SEROUT) < 1)
                          M         if (CODE_SIZE > 2)
                          M           if (((SEROUT) & 800h) == 0)
                          M         bcf     PCLATH, 3
                          M         else
                          M         bsf     PCLATH, 3
                          M         endif
                          M         endif
                          M         if (CODE_SIZE > 4)
                          M           if (((SEROUT) & 1000h) == 0)
                          M         bcf     PCLATH, 4
                          M           else
                          M         bsf     PCLATH, 4
                          M           endif
                          M         endif
                          M       else
                          M         if ((SEROUT) > $)
MPASM 5.75                   I2C SCANNER.ASM   3-19-2018  12:35:42         PAGE 50


LOC  OBJECT CODE     LINE SOURCE TEXT
  VALUE

                          M           if (CODE_SIZE > 2)
                          M             if (((SEROUT) & 800h) == 0)
                          M         bcf     PCLATH, 3
                          M             else
                          M         bsf     PCLATH, 3
                          M             endif
                          M           endif
                          M           if (CODE_SIZE > 4)
                          M             if (((SEROUT) & 1000h) == 0)
                          M         bcf     PCLATH, 4
                          M             else
                          M         bsf     PCLATH, 4
                          M             endif
                          M           endif
                          M         else
                          M           if (CODE_SIZE > 2)
                          M             if (((SEROUT) & 1800h) == 0)
013A   018A               M         clrf    PCLATH
                          M             else
                          M               if (((SEROUT) & 800h) == 0)
                          M         bcf     PCLATH, 3
                          M               else
                          M         bsf     PCLATH, 3
                          M               endif
                          M               if (CODE_SIZE > 4)
                          M                 if (((SEROUT) & 1000h) == 0)
                          M         bcf     PCLATH, 4
                          M                 else
                          M         bsf     PCLATH, 4
                          M                 endif   
                          M               endif
                          M             endif
                          M           endif
                          M         endif
                          M       endif
                          M     endif
                          M 
013B   206C               M         call    SEROUT
                      00270         SEROUT?C        061h
013C   3061               M         movlw   061h
                          M         L?CALL  SEROUT
                          M         RST?RP
                          M     if ((PREV_BANK & 1) != 0)
                          M         bcf     STATUS, RP0
                          M     endif
                          M     if ((PREV_BANK & 2) != 0)
                          M         bcf     STATUS, RP1
                          M     endif
  00000000                M PREV_BANK = 0
                          M 
                          M     ifdef USE_LINKER
                          M       if (CODE_SIZE > 2)
                          M         pagesel SEROUT
MPASM 5.75                   I2C SCANNER.ASM   3-19-2018  12:35:42         PAGE 51


LOC  OBJECT CODE     LINE SOURCE TEXT
  VALUE

                          M       endif
                          M     else
                          M       if ((SEROUT) < 1)
                          M         if (CODE_SIZE > 2)
                          M           if (((SEROUT) & 800h) == 0)
                          M         bcf     PCLATH, 3
                          M         else
                          M         bsf     PCLATH, 3
                          M         endif
                          M         endif
                          M         if (CODE_SIZE > 4)
                          M           if (((SEROUT) & 1000h) == 0)
                          M         bcf     PCLATH, 4
                          M           else
                          M         bsf     PCLATH, 4
                          M           endif
                          M         endif
                          M       else
                          M         if ((SEROUT) > $)
                          M           if (CODE_SIZE > 2)
                          M             if (((SEROUT) & 800h) == 0)
                          M         bcf     PCLATH, 3
                          M             else
                          M         bsf     PCLATH, 3
                          M             endif
                          M           endif
                          M           if (CODE_SIZE > 4)
                          M             if (((SEROUT) & 1000h) == 0)
                          M         bcf     PCLATH, 4
                          M             else
                          M         bsf     PCLATH, 4
                          M             endif
                          M           endif
                          M         else
                          M           if (CODE_SIZE > 2)
                          M             if (((SEROUT) & 1800h) == 0)
013D   018A               M         clrf    PCLATH
                          M             else
                          M               if (((SEROUT) & 800h) == 0)
                          M         bcf     PCLATH, 3
                          M               else
                          M         bsf     PCLATH, 3
                          M               endif
                          M               if (CODE_SIZE > 4)
                          M                 if (((SEROUT) & 1000h) == 0)
                          M         bcf     PCLATH, 4
                          M                 else
                          M         bsf     PCLATH, 4
                          M                 endif   
                          M               endif
                          M             endif
                          M           endif
                          M         endif
MPASM 5.75                   I2C SCANNER.ASM   3-19-2018  12:35:42         PAGE 52


LOC  OBJECT CODE     LINE SOURCE TEXT
  VALUE

                          M       endif
                          M     endif
                          M 
013E   206C               M         call    SEROUT
                      00271         SEROUT?C        06Eh
013F   306E               M         movlw   06Eh
                          M         L?CALL  SEROUT
                          M         RST?RP
                          M     if ((PREV_BANK & 1) != 0)
                          M         bcf     STATUS, RP0
                          M     endif
                          M     if ((PREV_BANK & 2) != 0)
                          M         bcf     STATUS, RP1
                          M     endif
  00000000                M PREV_BANK = 0
                          M 
                          M     ifdef USE_LINKER
                          M       if (CODE_SIZE > 2)
                          M         pagesel SEROUT
                          M       endif
                          M     else
                          M       if ((SEROUT) < 1)
                          M         if (CODE_SIZE > 2)
                          M           if (((SEROUT) & 800h) == 0)
                          M         bcf     PCLATH, 3
                          M         else
                          M         bsf     PCLATH, 3
                          M         endif
                          M         endif
                          M         if (CODE_SIZE > 4)
                          M           if (((SEROUT) & 1000h) == 0)
                          M         bcf     PCLATH, 4
                          M           else
                          M         bsf     PCLATH, 4
                          M           endif
                          M         endif
                          M       else
                          M         if ((SEROUT) > $)
                          M           if (CODE_SIZE > 2)
                          M             if (((SEROUT) & 800h) == 0)
                          M         bcf     PCLATH, 3
                          M             else
                          M         bsf     PCLATH, 3
                          M             endif
                          M           endif
                          M           if (CODE_SIZE > 4)
                          M             if (((SEROUT) & 1000h) == 0)
                          M         bcf     PCLATH, 4
                          M             else
                          M         bsf     PCLATH, 4
                          M             endif
                          M           endif
                          M         else
MPASM 5.75                   I2C SCANNER.ASM   3-19-2018  12:35:42         PAGE 53


LOC  OBJECT CODE     LINE SOURCE TEXT
  VALUE

                          M           if (CODE_SIZE > 2)
                          M             if (((SEROUT) & 1800h) == 0)
0140   018A               M         clrf    PCLATH
                          M             else
                          M               if (((SEROUT) & 800h) == 0)
                          M         bcf     PCLATH, 3
                          M               else
                          M         bsf     PCLATH, 3
                          M               endif
                          M               if (CODE_SIZE > 4)
                          M                 if (((SEROUT) & 1000h) == 0)
                          M         bcf     PCLATH, 4
                          M                 else
                          M         bsf     PCLATH, 4
                          M                 endif   
                          M               endif
                          M             endif
                          M           endif
                          M         endif
                          M       endif
                          M     endif
                          M 
0141   206C               M         call    SEROUT
                      00272         SEROUT?C        06Eh
0142   306E               M         movlw   06Eh
                          M         L?CALL  SEROUT
                          M         RST?RP
                          M     if ((PREV_BANK & 1) != 0)
                          M         bcf     STATUS, RP0
                          M     endif
                          M     if ((PREV_BANK & 2) != 0)
                          M         bcf     STATUS, RP1
                          M     endif
  00000000                M PREV_BANK = 0
                          M 
                          M     ifdef USE_LINKER
                          M       if (CODE_SIZE > 2)
                          M         pagesel SEROUT
                          M       endif
                          M     else
                          M       if ((SEROUT) < 1)
                          M         if (CODE_SIZE > 2)
                          M           if (((SEROUT) & 800h) == 0)
                          M         bcf     PCLATH, 3
                          M         else
                          M         bsf     PCLATH, 3
                          M         endif
                          M         endif
                          M         if (CODE_SIZE > 4)
                          M           if (((SEROUT) & 1000h) == 0)
                          M         bcf     PCLATH, 4
                          M           else
                          M         bsf     PCLATH, 4
MPASM 5.75                   I2C SCANNER.ASM   3-19-2018  12:35:42         PAGE 54


LOC  OBJECT CODE     LINE SOURCE TEXT
  VALUE

                          M           endif
                          M         endif
                          M       else
                          M         if ((SEROUT) > $)
                          M           if (CODE_SIZE > 2)
                          M             if (((SEROUT) & 800h) == 0)
                          M         bcf     PCLATH, 3
                          M             else
                          M         bsf     PCLATH, 3
                          M             endif
                          M           endif
                          M           if (CODE_SIZE > 4)
                          M             if (((SEROUT) & 1000h) == 0)
                          M         bcf     PCLATH, 4
                          M             else
                          M         bsf     PCLATH, 4
                          M             endif
                          M           endif
                          M         else
                          M           if (CODE_SIZE > 2)
                          M             if (((SEROUT) & 1800h) == 0)
0143   018A               M         clrf    PCLATH
                          M             else
                          M               if (((SEROUT) & 800h) == 0)
                          M         bcf     PCLATH, 3
                          M               else
                          M         bsf     PCLATH, 3
                          M               endif
                          M               if (CODE_SIZE > 4)
                          M                 if (((SEROUT) & 1000h) == 0)
                          M         bcf     PCLATH, 4
                          M                 else
                          M         bsf     PCLATH, 4
                          M                 endif   
                          M               endif
                          M             endif
                          M           endif
                          M         endif
                          M       endif
                          M     endif
                          M 
0144   206C               M         call    SEROUT
                      00273         SEROUT?C        065h
0145   3065               M         movlw   065h
                          M         L?CALL  SEROUT
                          M         RST?RP
                          M     if ((PREV_BANK & 1) != 0)
                          M         bcf     STATUS, RP0
                          M     endif
                          M     if ((PREV_BANK & 2) != 0)
                          M         bcf     STATUS, RP1
                          M     endif
  00000000                M PREV_BANK = 0
MPASM 5.75                   I2C SCANNER.ASM   3-19-2018  12:35:42         PAGE 55


LOC  OBJECT CODE     LINE SOURCE TEXT
  VALUE

                          M 
                          M     ifdef USE_LINKER
                          M       if (CODE_SIZE > 2)
                          M         pagesel SEROUT
                          M       endif
                          M     else
                          M       if ((SEROUT) < 1)
                          M         if (CODE_SIZE > 2)
                          M           if (((SEROUT) & 800h) == 0)
                          M         bcf     PCLATH, 3
                          M         else
                          M         bsf     PCLATH, 3
                          M         endif
                          M         endif
                          M         if (CODE_SIZE > 4)
                          M           if (((SEROUT) & 1000h) == 0)
                          M         bcf     PCLATH, 4
                          M           else
                          M         bsf     PCLATH, 4
                          M           endif
                          M         endif
                          M       else
                          M         if ((SEROUT) > $)
                          M           if (CODE_SIZE > 2)
                          M             if (((SEROUT) & 800h) == 0)
                          M         bcf     PCLATH, 3
                          M             else
                          M         bsf     PCLATH, 3
                          M             endif
                          M           endif
                          M           if (CODE_SIZE > 4)
                          M             if (((SEROUT) & 1000h) == 0)
                          M         bcf     PCLATH, 4
                          M             else
                          M         bsf     PCLATH, 4
                          M             endif
                          M           endif
                          M         else
                          M           if (CODE_SIZE > 2)
                          M             if (((SEROUT) & 1800h) == 0)
0146   018A               M         clrf    PCLATH
                          M             else
                          M               if (((SEROUT) & 800h) == 0)
                          M         bcf     PCLATH, 3
                          M               else
                          M         bsf     PCLATH, 3
                          M               endif
                          M               if (CODE_SIZE > 4)
                          M                 if (((SEROUT) & 1000h) == 0)
                          M         bcf     PCLATH, 4
                          M                 else
                          M         bsf     PCLATH, 4
                          M                 endif   
MPASM 5.75                   I2C SCANNER.ASM   3-19-2018  12:35:42         PAGE 56


LOC  OBJECT CODE     LINE SOURCE TEXT
  VALUE

                          M               endif
                          M             endif
                          M           endif
                          M         endif
                          M       endif
                          M     endif
                          M 
0147   206C               M         call    SEROUT
                      00274         SEROUT?C        072h
0148   3072               M         movlw   072h
                          M         L?CALL  SEROUT
                          M         RST?RP
                          M     if ((PREV_BANK & 1) != 0)
                          M         bcf     STATUS, RP0
                          M     endif
                          M     if ((PREV_BANK & 2) != 0)
                          M         bcf     STATUS, RP1
                          M     endif
  00000000                M PREV_BANK = 0
                          M 
                          M     ifdef USE_LINKER
                          M       if (CODE_SIZE > 2)
                          M         pagesel SEROUT
                          M       endif
                          M     else
                          M       if ((SEROUT) < 1)
                          M         if (CODE_SIZE > 2)
                          M           if (((SEROUT) & 800h) == 0)
                          M         bcf     PCLATH, 3
                          M         else
                          M         bsf     PCLATH, 3
                          M         endif
                          M         endif
                          M         if (CODE_SIZE > 4)
                          M           if (((SEROUT) & 1000h) == 0)
                          M         bcf     PCLATH, 4
                          M           else
                          M         bsf     PCLATH, 4
                          M           endif
                          M         endif
                          M       else
                          M         if ((SEROUT) > $)
                          M           if (CODE_SIZE > 2)
                          M             if (((SEROUT) & 800h) == 0)
                          M         bcf     PCLATH, 3
                          M             else
                          M         bsf     PCLATH, 3
                          M             endif
                          M           endif
                          M           if (CODE_SIZE > 4)
                          M             if (((SEROUT) & 1000h) == 0)
                          M         bcf     PCLATH, 4
                          M             else
MPASM 5.75                   I2C SCANNER.ASM   3-19-2018  12:35:42         PAGE 57


LOC  OBJECT CODE     LINE SOURCE TEXT
  VALUE

                          M         bsf     PCLATH, 4
                          M             endif
                          M           endif
                          M         else
                          M           if (CODE_SIZE > 2)
                          M             if (((SEROUT) & 1800h) == 0)
0149   018A               M         clrf    PCLATH
                          M             else
                          M               if (((SEROUT) & 800h) == 0)
                          M         bcf     PCLATH, 3
                          M               else
                          M         bsf     PCLATH, 3
                          M               endif
                          M               if (CODE_SIZE > 4)
                          M                 if (((SEROUT) & 1000h) == 0)
                          M         bcf     PCLATH, 4
                          M                 else
                          M         bsf     PCLATH, 4
                          M                 endif   
                          M               endif
                          M             endif
                          M           endif
                          M         endif
                          M       endif
                          M     endif
                          M 
014A   206C               M         call    SEROUT
                      00275 
                      00276 ; C:\USERS\ANDREW MCENTEE\DOCUMENTS\DEVELOPMENT\PBP3\16F688 PROGRAMS\I2C SCANNER.PBP    00051   pause 2000
                      00277         PAUSE?C 007D0h
                          M     if (((007D0h) >> 8) == 0)
                          M         MOVE?CA 007D0h
                          M         L?CALL  PAUSE
                          M     else
                          M         MOVE?CB (007D0h) >> 8, R1 + 1
                          M         CHK?RP  R1 + 1
                          M     if (((R1 + 1) & 180h) == 0)
                          M       if (PREV_BANK == 1)
                          M         bcf     STATUS, RP0
                          M       endif
                          M       if (PREV_BANK == 2)
                          M         bcf     STATUS, RP1
                          M       endif
                          M       if (PREV_BANK == 3)
                          M         bcf     STATUS, RP0
                          M         bcf     STATUS, RP1
                          M       endif
  00000000                M PREV_BANK = 0
                          M     endif
                          M 
                          M     if (((R1 + 1) & 180h) == 80h)
                          M       if (PREV_BANK == 0)
                          M         bsf     STATUS, RP0
MPASM 5.75                   I2C SCANNER.ASM   3-19-2018  12:35:42         PAGE 58


LOC  OBJECT CODE     LINE SOURCE TEXT
  VALUE

                          M       endif
                          M       if (PREV_BANK == 2)
                          M         bsf     STATUS, RP0
                          M         bcf     STATUS, RP1
                          M       endif
                          M       if (PREV_BANK == 3)
                          M         bcf     STATUS, RP1
                          M       endif
                          M PREV_BANK = 1
                          M     endif
                          M 
                          M     if (((R1 + 1) & 180h) == 100h)
                          M       if (PREV_BANK == 0)
                          M         bsf     STATUS, RP1
                          M       endif
                          M       if (PREV_BANK == 1)
                          M         bcf     STATUS, RP0
                          M         bsf     STATUS, RP1
                          M       endif
                          M       if (PREV_BANK == 3)
                          M         bcf     STATUS, RP0
                          M       endif
                          M PREV_BANK = 2
                          M     endif
                          M 
                          M     if (((R1 + 1) & 180h) == 180h)
                          M       if (PREV_BANK == 0)
                          M         bsf     STATUS, RP0
                          M         bsf     STATUS, RP1
                          M       endif
                          M       if (PREV_BANK == 1)
                          M         bsf     STATUS, RP1
                          M       endif
                          M       if (PREV_BANK == 2)
                          M         bsf     STATUS, RP0
                          M       endif
                          M PREV_BANK = 3
                          M     endif
                          M     if (low ((007D0h) >> 8) == 0)
                          M         clrf    R1 + 1
                          M     else
014B   3007               M         movlw   low ((007D0h) >> 8)
014C   00A3               M         movwf   R1 + 1
                          M     endif
                          M         MOVE?CA low (007D0h)
014D   30D0               M         movlw   low (low (007D0h))
                          M         L?CALL  PAUSEL
                          M         RST?RP
                          M     if ((PREV_BANK & 1) != 0)
                          M         bcf     STATUS, RP0
                          M     endif
                          M     if ((PREV_BANK & 2) != 0)
                          M         bcf     STATUS, RP1
MPASM 5.75                   I2C SCANNER.ASM   3-19-2018  12:35:42         PAGE 59


LOC  OBJECT CODE     LINE SOURCE TEXT
  VALUE

                          M     endif
  00000000                M PREV_BANK = 0
                          M 
                          M     ifdef USE_LINKER
                          M       if (CODE_SIZE > 2)
                          M         pagesel PAUSEL
                          M       endif
                          M     else
                          M       if ((PAUSEL) < 1)
                          M         if (CODE_SIZE > 2)
                          M           if (((PAUSEL) & 800h) == 0)
                          M         bcf     PCLATH, 3
                          M         else
                          M         bsf     PCLATH, 3
                          M         endif
                          M         endif
                          M         if (CODE_SIZE > 4)
                          M           if (((PAUSEL) & 1000h) == 0)
                          M         bcf     PCLATH, 4
                          M           else
                          M         bsf     PCLATH, 4
                          M           endif
                          M         endif
                          M       else
                          M         if ((PAUSEL) > $)
                          M           if (CODE_SIZE > 2)
                          M             if (((PAUSEL) & 800h) == 0)
                          M         bcf     PCLATH, 3
                          M             else
                          M         bsf     PCLATH, 3
                          M             endif
                          M           endif
                          M           if (CODE_SIZE > 4)
                          M             if (((PAUSEL) & 1000h) == 0)
                          M         bcf     PCLATH, 4
                          M             else
                          M         bsf     PCLATH, 4
                          M             endif
                          M           endif
                          M         else
                          M           if (CODE_SIZE > 2)
                          M             if (((PAUSEL) & 1800h) == 0)
014E   018A               M         clrf    PCLATH
                          M             else
                          M               if (((PAUSEL) & 800h) == 0)
                          M         bcf     PCLATH, 3
                          M               else
                          M         bsf     PCLATH, 3
                          M               endif
                          M               if (CODE_SIZE > 4)
                          M                 if (((PAUSEL) & 1000h) == 0)
                          M         bcf     PCLATH, 4
                          M                 else
MPASM 5.75                   I2C SCANNER.ASM   3-19-2018  12:35:42         PAGE 60


LOC  OBJECT CODE     LINE SOURCE TEXT
  VALUE

                          M         bsf     PCLATH, 4
                          M                 endif   
                          M               endif
                          M             endif
                          M           endif
                          M         endif
                          M       endif
                          M     endif
                          M 
014F   20AC               M         call    PAUSEL
                          M     endif
                      00278 
                      00279 ; C:\USERS\ANDREW MCENTEE\DOCUMENTS\DEVELOPMENT\PBP3\16F688 PROGRAMS\I2C SCANNER.PBP    00052   gosub CRLF
                      00280         GOSUB?L _CRLF
  0000                    M     local dlabel
                          M     ifdef DEBUG_STACK
                          M         CHK?RP  DEBUG_STACK
                          M       ifdef DEBUG_STACK_ADDR
                          M         bcf     STATUS, C
                          M         rlf     DEBUG_STACK, W
                          M         addlw   DEBUG_STACK_ADDR
                          M         movwf   FSR
                          M         movlw   low (dlabel)
                          M         movwf   INDF
                          M         incf    FSR, F
                          M         movlw   high (dlabel)
                          M         movwf   INDF
                          M       endif
                          M         incf    DEBUG_STACK, F
                          M     endif
                          M         L?CALL  _CRLF
                          M         RST?RP
                          M     if ((PREV_BANK & 1) != 0)
                          M         bcf     STATUS, RP0
                          M     endif
                          M     if ((PREV_BANK & 2) != 0)
                          M         bcf     STATUS, RP1
                          M     endif
  00000000                M PREV_BANK = 0
                          M 
                          M     ifdef USE_LINKER
                          M       if (CODE_SIZE > 2)
                          M         pagesel _CRLF
                          M       endif
                          M     else
                          M       if ((_CRLF) < 1)
                          M         if (CODE_SIZE > 2)
                          M           if (((_CRLF) & 800h) == 0)
                          M         bcf     PCLATH, 3
                          M         else
                          M         bsf     PCLATH, 3
                          M         endif
                          M         endif
MPASM 5.75                   I2C SCANNER.ASM   3-19-2018  12:35:42         PAGE 61


LOC  OBJECT CODE     LINE SOURCE TEXT
  VALUE

                          M         if (CODE_SIZE > 4)
                          M           if (((_CRLF) & 1000h) == 0)
                          M         bcf     PCLATH, 4
                          M           else
                          M         bsf     PCLATH, 4
                          M           endif
                          M         endif
                          M       else
                          M         if ((_CRLF) > $)
                          M           if (CODE_SIZE > 2)
                          M             if (((_CRLF) & 800h) == 0)
0150   118A               M         bcf     PCLATH, 3
                          M             else
                          M         bsf     PCLATH, 3
                          M             endif
                          M           endif
                          M           if (CODE_SIZE > 4)
                          M             if (((_CRLF) & 1000h) == 0)
                          M         bcf     PCLATH, 4
                          M             else
                          M         bsf     PCLATH, 4
                          M             endif
                          M           endif
                          M         else
                          M           if (CODE_SIZE > 2)
                          M             if (((_CRLF) & 1800h) == 0)
                          M         clrf    PCLATH
                          M             else
                          M               if (((_CRLF) & 800h) == 0)
                          M         bcf     PCLATH, 3
                          M               else
                          M         bsf     PCLATH, 3
                          M               endif
                          M               if (CODE_SIZE > 4)
                          M                 if (((_CRLF) & 1000h) == 0)
                          M         bcf     PCLATH, 4
                          M                 else
                          M         bsf     PCLATH, 4
                          M                 endif   
                          M               endif
                          M             endif
                          M           endif
                          M         endif
                          M       endif
                          M     endif
                          M 
0151   222D               M         call    _CRLF
0152                      M dlabel
                      00281 
                      00282 ; C:\USERS\ANDREW MCENTEE\DOCUMENTS\DEVELOPMENT\PBP3\16F688 PROGRAMS\I2C SCANNER.PBP    00053   input SDA: input SCL
                      00283         INPUT?T _SDA
                          M         MOVE?CT 1, ((PORTA) + 80h), 005h
                          M         CHK?RP  ((PORTA) + 80h)
MPASM 5.75                   I2C SCANNER.ASM   3-19-2018  12:35:42         PAGE 62


LOC  OBJECT CODE     LINE SOURCE TEXT
  VALUE

                          M     if (((((PORTA) + 80h)) & 180h) == 0)
                          M       if (PREV_BANK == 1)
                          M         bcf     STATUS, RP0
                          M       endif
                          M       if (PREV_BANK == 2)
                          M         bcf     STATUS, RP1
                          M       endif
                          M       if (PREV_BANK == 3)
                          M         bcf     STATUS, RP0
                          M         bcf     STATUS, RP1
                          M       endif
                          M PREV_BANK = 0
                          M     endif
                          M 
                          M     if (((((PORTA) + 80h)) & 180h) == 80h)
                          M       if (PREV_BANK == 0)
0152   1683               M         bsf     STATUS, RP0
                          M       endif
                          M       if (PREV_BANK == 2)
                          M         bsf     STATUS, RP0
                          M         bcf     STATUS, RP1
                          M       endif
                          M       if (PREV_BANK == 3)
                          M         bcf     STATUS, RP1
                          M       endif
  00000001                M PREV_BANK = 1
                          M     endif
                          M 
                          M     if (((((PORTA) + 80h)) & 180h) == 100h)
                          M       if (PREV_BANK == 0)
                          M         bsf     STATUS, RP1
                          M       endif
                          M       if (PREV_BANK == 1)
                          M         bcf     STATUS, RP0
                          M         bsf     STATUS, RP1
                          M       endif
                          M       if (PREV_BANK == 3)
                          M         bcf     STATUS, RP0
                          M       endif
                          M PREV_BANK = 2
                          M     endif
                          M 
                          M     if (((((PORTA) + 80h)) & 180h) == 180h)
                          M       if (PREV_BANK == 0)
                          M         bsf     STATUS, RP0
                          M         bsf     STATUS, RP1
                          M       endif
                          M       if (PREV_BANK == 1)
                          M         bsf     STATUS, RP1
                          M       endif
                          M       if (PREV_BANK == 2)
                          M         bsf     STATUS, RP0
                          M       endif
MPASM 5.75                   I2C SCANNER.ASM   3-19-2018  12:35:42         PAGE 63


LOC  OBJECT CODE     LINE SOURCE TEXT
  VALUE

                          M PREV_BANK = 3
                          M     endif
                          M     if (((1)   & 1) == 1)
0153   1685               M         bsf     ((PORTA) + 80h), 005h
                          M     else
                          M         bcf     ((PORTA) + 80h), 005h
                          M     endif
                      00284 
                      00285 ; C:\USERS\ANDREW MCENTEE\DOCUMENTS\DEVELOPMENT\PBP3\16F688 PROGRAMS\I2C SCANNER.PBP    00053   input SDA: input SCL
                      00286         INPUT?T _SCL
                          M         MOVE?CT 1, ((PORTA) + 80h), 004h
                          M         CHK?RP  ((PORTA) + 80h)
                          M     if (((((PORTA) + 80h)) & 180h) == 0)
                          M       if (PREV_BANK == 1)
                          M         bcf     STATUS, RP0
                          M       endif
                          M       if (PREV_BANK == 2)
                          M         bcf     STATUS, RP1
                          M       endif
                          M       if (PREV_BANK == 3)
                          M         bcf     STATUS, RP0
                          M         bcf     STATUS, RP1
                          M       endif
                          M PREV_BANK = 0
                          M     endif
                          M 
                          M     if (((((PORTA) + 80h)) & 180h) == 80h)
                          M       if (PREV_BANK == 0)
                          M         bsf     STATUS, RP0
                          M       endif
                          M       if (PREV_BANK == 2)
                          M         bsf     STATUS, RP0
                          M         bcf     STATUS, RP1
                          M       endif
                          M       if (PREV_BANK == 3)
                          M         bcf     STATUS, RP1
                          M       endif
  00000001                M PREV_BANK = 1
                          M     endif
                          M 
                          M     if (((((PORTA) + 80h)) & 180h) == 100h)
                          M       if (PREV_BANK == 0)
                          M         bsf     STATUS, RP1
                          M       endif
                          M       if (PREV_BANK == 1)
                          M         bcf     STATUS, RP0
                          M         bsf     STATUS, RP1
                          M       endif
                          M       if (PREV_BANK == 3)
                          M         bcf     STATUS, RP0
                          M       endif
                          M PREV_BANK = 2
                          M     endif
MPASM 5.75                   I2C SCANNER.ASM   3-19-2018  12:35:42         PAGE 64


LOC  OBJECT CODE     LINE SOURCE TEXT
  VALUE

                          M 
                          M     if (((((PORTA) + 80h)) & 180h) == 180h)
                          M       if (PREV_BANK == 0)
                          M         bsf     STATUS, RP0
                          M         bsf     STATUS, RP1
                          M       endif
                          M       if (PREV_BANK == 1)
                          M         bsf     STATUS, RP1
                          M       endif
                          M       if (PREV_BANK == 2)
                          M         bsf     STATUS, RP0
                          M       endif
                          M PREV_BANK = 3
                          M     endif
                          M     if (((1)   & 1) == 1)
0154   1605               M         bsf     ((PORTA) + 80h), 004h
                          M     else
                          M         bcf     ((PORTA) + 80h), 004h
                          M     endif
                      00287 
                      00288 ; C:\USERS\ANDREW MCENTEE\DOCUMENTS\DEVELOPMENT\PBP3\16F688 PROGRAMS\I2C SCANNER.PBP    00054   main:
                      00289 
                      00290         LABEL?L _main   
                          M         RST?RP
                          M     if ((PREV_BANK & 1) != 0)
0155   1283               M         bcf     STATUS, RP0
                          M     endif
                          M     if ((PREV_BANK & 2) != 0)
                          M         bcf     STATUS, RP1
                          M     endif
  00000000                M PREV_BANK = 0
                          M     ifdef PM_USED
                          M         LALL
                          M _main
                          M         XALL
                          M     else
0156                      M _main
                          M     endif
                      00291 
                      00292 ; C:\USERS\ANDREW MCENTEE\DOCUMENTS\DEVELOPMENT\PBP3\16F688 PROGRAMS\I2C SCANNER.PBP    00055           gosub init_blink
                      00293         GOSUB?L _init_blink
  0000                    M     local dlabel
                          M     ifdef DEBUG_STACK
                          M         CHK?RP  DEBUG_STACK
                          M       ifdef DEBUG_STACK_ADDR
                          M         bcf     STATUS, C
                          M         rlf     DEBUG_STACK, W
                          M         addlw   DEBUG_STACK_ADDR
                          M         movwf   FSR
                          M         movlw   low (dlabel)
                          M         movwf   INDF
                          M         incf    FSR, F
                          M         movlw   high (dlabel)
MPASM 5.75                   I2C SCANNER.ASM   3-19-2018  12:35:42         PAGE 65


LOC  OBJECT CODE     LINE SOURCE TEXT
  VALUE

                          M         movwf   INDF
                          M       endif
                          M         incf    DEBUG_STACK, F
                          M     endif
                          M         L?CALL  _init_blink
                          M         RST?RP
                          M     if ((PREV_BANK & 1) != 0)
                          M         bcf     STATUS, RP0
                          M     endif
                          M     if ((PREV_BANK & 2) != 0)
                          M         bcf     STATUS, RP1
                          M     endif
  00000000                M PREV_BANK = 0
                          M 
                          M     ifdef USE_LINKER
                          M       if (CODE_SIZE > 2)
                          M         pagesel _init_blink
                          M       endif
                          M     else
                          M       if ((_init_blink) < 1)
                          M         if (CODE_SIZE > 2)
                          M           if (((_init_blink) & 800h) == 0)
                          M         bcf     PCLATH, 3
                          M         else
                          M         bsf     PCLATH, 3
                          M         endif
                          M         endif
                          M         if (CODE_SIZE > 4)
                          M           if (((_init_blink) & 1000h) == 0)
                          M         bcf     PCLATH, 4
                          M           else
                          M         bsf     PCLATH, 4
                          M           endif
                          M         endif
                          M       else
                          M         if ((_init_blink) > $)
                          M           if (CODE_SIZE > 2)
                          M             if (((_init_blink) & 800h) == 0)
0156   118A               M         bcf     PCLATH, 3
                          M             else
                          M         bsf     PCLATH, 3
                          M             endif
                          M           endif
                          M           if (CODE_SIZE > 4)
                          M             if (((_init_blink) & 1000h) == 0)
                          M         bcf     PCLATH, 4
                          M             else
                          M         bsf     PCLATH, 4
                          M             endif
                          M           endif
                          M         else
                          M           if (CODE_SIZE > 2)
                          M             if (((_init_blink) & 1800h) == 0)
MPASM 5.75                   I2C SCANNER.ASM   3-19-2018  12:35:42         PAGE 66


LOC  OBJECT CODE     LINE SOURCE TEXT
  VALUE

                          M         clrf    PCLATH
                          M             else
                          M               if (((_init_blink) & 800h) == 0)
                          M         bcf     PCLATH, 3
                          M               else
                          M         bsf     PCLATH, 3
                          M               endif
                          M               if (CODE_SIZE > 4)
                          M                 if (((_init_blink) & 1000h) == 0)
                          M         bcf     PCLATH, 4
                          M                 else
                          M         bsf     PCLATH, 4
                          M                 endif   
                          M               endif
                          M             endif
                          M           endif
                          M         endif
                          M       endif
                          M     endif
                          M 
0157   223A               M         call    _init_blink
0158                      M dlabel
                      00294 
                      00295 ; C:\USERS\ANDREW MCENTEE\DOCUMENTS\DEVELOPMENT\PBP3\16F688 PROGRAMS\I2C SCANNER.PBP    00056           for I2C_ADDR = 0 to 254 step 2
                      00296         MOVE?CB 000h, _I2C_ADDR
                          M         CHK?RP  _I2C_ADDR
                          M     if (((_I2C_ADDR) & 180h) == 0)
                          M       if (PREV_BANK == 1)
                          M         bcf     STATUS, RP0
                          M       endif
                          M       if (PREV_BANK == 2)
                          M         bcf     STATUS, RP1
                          M       endif
                          M       if (PREV_BANK == 3)
                          M         bcf     STATUS, RP0
                          M         bcf     STATUS, RP1
                          M       endif
  00000000                M PREV_BANK = 0
                          M     endif
                          M 
                          M     if (((_I2C_ADDR) & 180h) == 80h)
                          M       if (PREV_BANK == 0)
                          M         bsf     STATUS, RP0
                          M       endif
                          M       if (PREV_BANK == 2)
                          M         bsf     STATUS, RP0
                          M         bcf     STATUS, RP1
                          M       endif
                          M       if (PREV_BANK == 3)
                          M         bcf     STATUS, RP1
                          M       endif
                          M PREV_BANK = 1
                          M     endif
MPASM 5.75                   I2C SCANNER.ASM   3-19-2018  12:35:42         PAGE 67


LOC  OBJECT CODE     LINE SOURCE TEXT
  VALUE

                          M 
                          M     if (((_I2C_ADDR) & 180h) == 100h)
                          M       if (PREV_BANK == 0)
                          M         bsf     STATUS, RP1
                          M       endif
                          M       if (PREV_BANK == 1)
                          M         bcf     STATUS, RP0
                          M         bsf     STATUS, RP1
                          M       endif
                          M       if (PREV_BANK == 3)
                          M         bcf     STATUS, RP0
                          M       endif
                          M PREV_BANK = 2
                          M     endif
                          M 
                          M     if (((_I2C_ADDR) & 180h) == 180h)
                          M       if (PREV_BANK == 0)
                          M         bsf     STATUS, RP0
                          M         bsf     STATUS, RP1
                          M       endif
                          M       if (PREV_BANK == 1)
                          M         bsf     STATUS, RP1
                          M       endif
                          M       if (PREV_BANK == 2)
                          M         bsf     STATUS, RP0
                          M       endif
                          M PREV_BANK = 3
                          M     endif
                          M     if (low (000h) == 0)
0158   01BC               M         clrf    _I2C_ADDR
                          M     else
                          M         movlw   low (000h)
                          M         movwf   _I2C_ADDR
                          M     endif
                      00297         LABEL?L L00001  
                          M         RST?RP
                          M     if ((PREV_BANK & 1) != 0)
                          M         bcf     STATUS, RP0
                          M     endif
                          M     if ((PREV_BANK & 2) != 0)
                          M         bcf     STATUS, RP1
                          M     endif
  00000000                M PREV_BANK = 0
                          M     ifdef PM_USED
                          M         LALL
                          M L00001
                          M         XALL
                          M     else
0159                      M L00001
                          M     endif
                      00298         CMPGT?BCL       _I2C_ADDR, 0FEh, L00002
                          M     if ((0FEh) < 0)
                          M         L?GOTO  L00002
MPASM 5.75                   I2C SCANNER.ASM   3-19-2018  12:35:42         PAGE 68


LOC  OBJECT CODE     LINE SOURCE TEXT
  VALUE

                          M     else
                          M       if ((0FEh) < 0ffh)
                          M         CLRWDT?
                          M     ifndef NO_CLRWDT
0159   0064               M         clrwdt
                          M     endif
                          M         MOVE?CA (0FEh) + 1
015A   30FF               M         movlw   low ((0FEh) + 1)
                          M         CHK?RP  _I2C_ADDR
                          M     if (((_I2C_ADDR) & 180h) == 0)
                          M       if (PREV_BANK == 1)
                          M         bcf     STATUS, RP0
                          M       endif
                          M       if (PREV_BANK == 2)
                          M         bcf     STATUS, RP1
                          M       endif
                          M       if (PREV_BANK == 3)
                          M         bcf     STATUS, RP0
                          M         bcf     STATUS, RP1
                          M       endif
  00000000                M PREV_BANK = 0
                          M     endif
                          M 
                          M     if (((_I2C_ADDR) & 180h) == 80h)
                          M       if (PREV_BANK == 0)
                          M         bsf     STATUS, RP0
                          M       endif
                          M       if (PREV_BANK == 2)
                          M         bsf     STATUS, RP0
                          M         bcf     STATUS, RP1
                          M       endif
                          M       if (PREV_BANK == 3)
                          M         bcf     STATUS, RP1
                          M       endif
                          M PREV_BANK = 1
                          M     endif
                          M 
                          M     if (((_I2C_ADDR) & 180h) == 100h)
                          M       if (PREV_BANK == 0)
                          M         bsf     STATUS, RP1
                          M       endif
                          M       if (PREV_BANK == 1)
                          M         bcf     STATUS, RP0
                          M         bsf     STATUS, RP1
                          M       endif
                          M       if (PREV_BANK == 3)
                          M         bcf     STATUS, RP0
                          M       endif
                          M PREV_BANK = 2
                          M     endif
                          M 
                          M     if (((_I2C_ADDR) & 180h) == 180h)
                          M       if (PREV_BANK == 0)
MPASM 5.75                   I2C SCANNER.ASM   3-19-2018  12:35:42         PAGE 69


LOC  OBJECT CODE     LINE SOURCE TEXT
  VALUE

                          M         bsf     STATUS, RP0
                          M         bsf     STATUS, RP1
                          M       endif
                          M       if (PREV_BANK == 1)
                          M         bsf     STATUS, RP1
                          M       endif
                          M       if (PREV_BANK == 2)
                          M         bsf     STATUS, RP0
                          M       endif
                          M PREV_BANK = 3
                          M     endif
015B   023C               M         subwf   _I2C_ADDR, W
                          M         BIT?GOTO 1, STATUS, C, L00002
                          M     ifdef USE_LINKER
                          M         CLRWDT?
                          M     else
                          M       if ($ == (L00002))
                          M         CLRWDT?
                          M       endif
                          M     endif
                          M 
                          M     ifdef USE_LINKER
                          M       if (CODE_SIZE > 2)
                          M         pagesel L00002
                          M       endif
                          M     else
                          M       if (CODE_SIZE > 2)
                          M         if (((L00002) & 800h) == 0)
015C   118A               M         bcf     PCLATH, 3
                          M         else
                          M         bsf     PCLATH, 3
                          M         endif
                          M       endif
                          M       if (CODE_SIZE > 4)
                          M         if (((L00002) & 1000h) == 0)
                          M         bcf     PCLATH, 4
                          M         else
                          M         bsf     PCLATH, 4
                          M         endif
                          M       endif
                          M     endif
                          M 
                          M     if (((STATUS) & 0ff80h) != 0)
                          M         CHK?RP  STATUS
                          M         bcf     STATUS, DC
                          M       if ((1)      == 0)
                          M         btfss   STATUS, C
                          M       else
                          M         btfsc   STATUS, C
                          M       endif
                          M         bsf     STATUS, DC
                          M         RST?RP
                          M         btfsc   STATUS, DC
MPASM 5.75                   I2C SCANNER.ASM   3-19-2018  12:35:42         PAGE 70


LOC  OBJECT CODE     LINE SOURCE TEXT
  VALUE

                          M     else
                          M         RST?RP
                          M     if ((PREV_BANK & 1) != 0)
                          M         bcf     STATUS, RP0
                          M     endif
                          M     if ((PREV_BANK & 2) != 0)
                          M         bcf     STATUS, RP1
                          M     endif
  00000000                M PREV_BANK = 0
                          M       if ((1)      == 0)
                          M         btfss   STATUS, C
                          M       else
015D   1803               M         btfsc   STATUS, C
                          M       endif
                          M     endif
                          M 
015E   299E               M         goto    L00002
                          M       endif
                          M     endif
                      00299 
                      00300 ; C:\USERS\ANDREW MCENTEE\DOCUMENTS\DEVELOPMENT\PBP3\16F688 PROGRAMS\I2C SCANNER.PBP    00057                   Valid = I2C_ADDR
                      00301         MOVE?BW _I2C_ADDR, _VALID
                          M         MOVE?BB _I2C_ADDR, _VALID
                          M         CHK?RP  _I2C_ADDR
                          M     if (((_I2C_ADDR) & 180h) == 0)
                          M       if (PREV_BANK == 1)
                          M         bcf     STATUS, RP0
                          M       endif
                          M       if (PREV_BANK == 2)
                          M         bcf     STATUS, RP1
                          M       endif
                          M       if (PREV_BANK == 3)
                          M         bcf     STATUS, RP0
                          M         bcf     STATUS, RP1
                          M       endif
  00000000                M PREV_BANK = 0
                          M     endif
                          M 
                          M     if (((_I2C_ADDR) & 180h) == 80h)
                          M       if (PREV_BANK == 0)
                          M         bsf     STATUS, RP0
                          M       endif
                          M       if (PREV_BANK == 2)
                          M         bsf     STATUS, RP0
                          M         bcf     STATUS, RP1
                          M       endif
                          M       if (PREV_BANK == 3)
                          M         bcf     STATUS, RP1
                          M       endif
                          M PREV_BANK = 1
                          M     endif
                          M 
                          M     if (((_I2C_ADDR) & 180h) == 100h)
MPASM 5.75                   I2C SCANNER.ASM   3-19-2018  12:35:42         PAGE 71


LOC  OBJECT CODE     LINE SOURCE TEXT
  VALUE

                          M       if (PREV_BANK == 0)
                          M         bsf     STATUS, RP1
                          M       endif
                          M       if (PREV_BANK == 1)
                          M         bcf     STATUS, RP0
                          M         bsf     STATUS, RP1
                          M       endif
                          M       if (PREV_BANK == 3)
                          M         bcf     STATUS, RP0
                          M       endif
                          M PREV_BANK = 2
                          M     endif
                          M 
                          M     if (((_I2C_ADDR) & 180h) == 180h)
                          M       if (PREV_BANK == 0)
                          M         bsf     STATUS, RP0
                          M         bsf     STATUS, RP1
                          M       endif
                          M       if (PREV_BANK == 1)
                          M         bsf     STATUS, RP1
                          M       endif
                          M       if (PREV_BANK == 2)
                          M         bsf     STATUS, RP0
                          M       endif
                          M PREV_BANK = 3
                          M     endif
015F   083C               M         movf    _I2C_ADDR, W
                          M         CHK?RP  _VALID
                          M     if (((_VALID) & 180h) == 0)
                          M       if (PREV_BANK == 1)
                          M         bcf     STATUS, RP0
                          M       endif
                          M       if (PREV_BANK == 2)
                          M         bcf     STATUS, RP1
                          M       endif
                          M       if (PREV_BANK == 3)
                          M         bcf     STATUS, RP0
                          M         bcf     STATUS, RP1
                          M       endif
  00000000                M PREV_BANK = 0
                          M     endif
                          M 
                          M     if (((_VALID) & 180h) == 80h)
                          M       if (PREV_BANK == 0)
                          M         bsf     STATUS, RP0
                          M       endif
                          M       if (PREV_BANK == 2)
                          M         bsf     STATUS, RP0
                          M         bcf     STATUS, RP1
                          M       endif
                          M       if (PREV_BANK == 3)
                          M         bcf     STATUS, RP1
                          M       endif
MPASM 5.75                   I2C SCANNER.ASM   3-19-2018  12:35:42         PAGE 72


LOC  OBJECT CODE     LINE SOURCE TEXT
  VALUE

                          M PREV_BANK = 1
                          M     endif
                          M 
                          M     if (((_VALID) & 180h) == 100h)
                          M       if (PREV_BANK == 0)
                          M         bsf     STATUS, RP1
                          M       endif
                          M       if (PREV_BANK == 1)
                          M         bcf     STATUS, RP0
                          M         bsf     STATUS, RP1
                          M       endif
                          M       if (PREV_BANK == 3)
                          M         bcf     STATUS, RP0
                          M       endif
                          M PREV_BANK = 2
                          M     endif
                          M 
                          M     if (((_VALID) & 180h) == 180h)
                          M       if (PREV_BANK == 0)
                          M         bsf     STATUS, RP0
                          M         bsf     STATUS, RP1
                          M       endif
                          M       if (PREV_BANK == 1)
                          M         bsf     STATUS, RP1
                          M       endif
                          M       if (PREV_BANK == 2)
                          M         bsf     STATUS, RP0
                          M       endif
                          M PREV_BANK = 3
                          M     endif
0160   00B8               M         movwf   _VALID
                          M         CHK?RP  _VALID
                          M     if (((_VALID) & 180h) == 0)
                          M       if (PREV_BANK == 1)
                          M         bcf     STATUS, RP0
                          M       endif
                          M       if (PREV_BANK == 2)
                          M         bcf     STATUS, RP1
                          M       endif
                          M       if (PREV_BANK == 3)
                          M         bcf     STATUS, RP0
                          M         bcf     STATUS, RP1
                          M       endif
  00000000                M PREV_BANK = 0
                          M     endif
                          M 
                          M     if (((_VALID) & 180h) == 80h)
                          M       if (PREV_BANK == 0)
                          M         bsf     STATUS, RP0
                          M       endif
                          M       if (PREV_BANK == 2)
                          M         bsf     STATUS, RP0
                          M         bcf     STATUS, RP1
MPASM 5.75                   I2C SCANNER.ASM   3-19-2018  12:35:42         PAGE 73


LOC  OBJECT CODE     LINE SOURCE TEXT
  VALUE

                          M       endif
                          M       if (PREV_BANK == 3)
                          M         bcf     STATUS, RP1
                          M       endif
                          M PREV_BANK = 1
                          M     endif
                          M 
                          M     if (((_VALID) & 180h) == 100h)
                          M       if (PREV_BANK == 0)
                          M         bsf     STATUS, RP1
                          M       endif
                          M       if (PREV_BANK == 1)
                          M         bcf     STATUS, RP0
                          M         bsf     STATUS, RP1
                          M       endif
                          M       if (PREV_BANK == 3)
                          M         bcf     STATUS, RP0
                          M       endif
                          M PREV_BANK = 2
                          M     endif
                          M 
                          M     if (((_VALID) & 180h) == 180h)
                          M       if (PREV_BANK == 0)
                          M         bsf     STATUS, RP0
                          M         bsf     STATUS, RP1
                          M       endif
                          M       if (PREV_BANK == 1)
                          M         bsf     STATUS, RP1
                          M       endif
                          M       if (PREV_BANK == 2)
                          M         bsf     STATUS, RP0
                          M       endif
                          M PREV_BANK = 3
                          M     endif
0161   01B9               M         clrf    (_VALID) + 1
                      00302 
                      00303 ; C:\USERS\ANDREW MCENTEE\DOCUMENTS\DEVELOPMENT\PBP3\16F688 PROGRAMS\I2C SCANNER.PBP    00058                   i2cwrite SDA,SCL,I2C_ADDR,[0],Not_found
                      00304         I2CDATA?T       _SDA
                          M         BIT?R1  PORTA, 005h
0162   3005               M         movlw   low ((PORTA) + ((005h)  >> 3))
                          M         CHK?RP  RR1
                          M     if (((RR1)   & 180h) == 0)
                          M       if (PREV_BANK == 1)
                          M         bcf     STATUS, RP0
                          M       endif
                          M       if (PREV_BANK == 2)
                          M         bcf     STATUS, RP1
                          M       endif
                          M       if (PREV_BANK == 3)
                          M         bcf     STATUS, RP0
                          M         bcf     STATUS, RP1
                          M       endif
  00000000                M PREV_BANK = 0
MPASM 5.75                   I2C SCANNER.ASM   3-19-2018  12:35:42         PAGE 74


LOC  OBJECT CODE     LINE SOURCE TEXT
  VALUE

                          M     endif
                          M 
                          M     if (((RR1)   & 180h) == 80h)
                          M       if (PREV_BANK == 0)
                          M         bsf     STATUS, RP0
                          M       endif
                          M       if (PREV_BANK == 2)
                          M         bsf     STATUS, RP0
                          M         bcf     STATUS, RP1
                          M       endif
                          M       if (PREV_BANK == 3)
                          M         bcf     STATUS, RP1
                          M       endif
                          M PREV_BANK = 1
                          M     endif
                          M 
                          M     if (((RR1)   & 180h) == 100h)
                          M       if (PREV_BANK == 0)
                          M         bsf     STATUS, RP1
                          M       endif
                          M       if (PREV_BANK == 1)
                          M         bcf     STATUS, RP0
                          M         bsf     STATUS, RP1
                          M       endif
                          M       if (PREV_BANK == 3)
                          M         bcf     STATUS, RP0
                          M       endif
                          M PREV_BANK = 2
                          M     endif
                          M 
                          M     if (((RR1)   & 180h) == 180h)
                          M       if (PREV_BANK == 0)
                          M         bsf     STATUS, RP0
                          M         bsf     STATUS, RP1
                          M       endif
                          M       if (PREV_BANK == 1)
                          M         bsf     STATUS, RP1
                          M       endif
                          M       if (PREV_BANK == 2)
                          M         bsf     STATUS, RP0
                          M       endif
                          M PREV_BANK = 3
                          M     endif
0163   00B6               M         movwf   RR1
                          M         BIT?W   005h
                          M     if (((005h)  & 7) == 0)
                          M         movlw   01h
                          M     endif
                          M     if (((005h)  & 7) == 1)
                          M         movlw   02h
                          M     endif
                          M     if (((005h)  & 7) == 2)
                          M         movlw   04h
MPASM 5.75                   I2C SCANNER.ASM   3-19-2018  12:35:42         PAGE 75


LOC  OBJECT CODE     LINE SOURCE TEXT
  VALUE

                          M     endif
                          M     if (((005h)  & 7) == 3)
                          M         movlw   08h
                          M     endif
                          M     if (((005h)  & 7) == 4)
                          M         movlw   10h
                          M     endif
                          M     if (((005h)  & 7) == 5)
0164   3020               M         movlw   20h
                          M     endif
                          M     if (((005h)  & 7) == 6)
                          M         movlw   40h
                          M     endif
                          M     if (((005h)  & 7) == 7)
                          M         movlw   80h
                          M     endif
0165   00B4               M         movwf   RM1
                      00305         I2CCLOCK?T      _SCL
                          M         BIT?R2  PORTA, 004h
0166   3005               M         movlw   low ((PORTA) + ((004h)  >> 3))
                          M         CHK?RP  RR2
                          M     if (((RR2)   & 180h) == 0)
                          M       if (PREV_BANK == 1)
                          M         bcf     STATUS, RP0
                          M       endif
                          M       if (PREV_BANK == 2)
                          M         bcf     STATUS, RP1
                          M       endif
                          M       if (PREV_BANK == 3)
                          M         bcf     STATUS, RP0
                          M         bcf     STATUS, RP1
                          M       endif
  00000000                M PREV_BANK = 0
                          M     endif
                          M 
                          M     if (((RR2)   & 180h) == 80h)
                          M       if (PREV_BANK == 0)
                          M         bsf     STATUS, RP0
                          M       endif
                          M       if (PREV_BANK == 2)
                          M         bsf     STATUS, RP0
                          M         bcf     STATUS, RP1
                          M       endif
                          M       if (PREV_BANK == 3)
                          M         bcf     STATUS, RP1
                          M       endif
                          M PREV_BANK = 1
                          M     endif
                          M 
                          M     if (((RR2)   & 180h) == 100h)
                          M       if (PREV_BANK == 0)
                          M         bsf     STATUS, RP1
                          M       endif
MPASM 5.75                   I2C SCANNER.ASM   3-19-2018  12:35:42         PAGE 76


LOC  OBJECT CODE     LINE SOURCE TEXT
  VALUE

                          M       if (PREV_BANK == 1)
                          M         bcf     STATUS, RP0
                          M         bsf     STATUS, RP1
                          M       endif
                          M       if (PREV_BANK == 3)
                          M         bcf     STATUS, RP0
                          M       endif
                          M PREV_BANK = 2
                          M     endif
                          M 
                          M     if (((RR2)   & 180h) == 180h)
                          M       if (PREV_BANK == 0)
                          M         bsf     STATUS, RP0
                          M         bsf     STATUS, RP1
                          M       endif
                          M       if (PREV_BANK == 1)
                          M         bsf     STATUS, RP1
                          M       endif
                          M       if (PREV_BANK == 2)
                          M         bsf     STATUS, RP0
                          M       endif
                          M PREV_BANK = 3
                          M     endif
0167   00B7               M         movwf   RR2
                          M         BIT?W   004h
                          M     if (((004h)  & 7) == 0)
                          M         movlw   01h
                          M     endif
                          M     if (((004h)  & 7) == 1)
                          M         movlw   02h
                          M     endif
                          M     if (((004h)  & 7) == 2)
                          M         movlw   04h
                          M     endif
                          M     if (((004h)  & 7) == 3)
                          M         movlw   08h
                          M     endif
                          M     if (((004h)  & 7) == 4)
0168   3010               M         movlw   10h
                          M     endif
                          M     if (((004h)  & 7) == 5)
                          M         movlw   20h
                          M     endif
                          M     if (((004h)  & 7) == 6)
                          M         movlw   40h
                          M     endif
                          M     if (((004h)  & 7) == 7)
                          M         movlw   80h
                          M     endif
0169   00B5               M         movwf   RM2
                      00306         I2CWRITE?BL     _I2C_ADDR, _Not_found
                          M         MOVE?BA _I2C_ADDR
                          M         CHK?RP  _I2C_ADDR
MPASM 5.75                   I2C SCANNER.ASM   3-19-2018  12:35:42         PAGE 77


LOC  OBJECT CODE     LINE SOURCE TEXT
  VALUE

                          M     if (((_I2C_ADDR) & 180h) == 0)
                          M       if (PREV_BANK == 1)
                          M         bcf     STATUS, RP0
                          M       endif
                          M       if (PREV_BANK == 2)
                          M         bcf     STATUS, RP1
                          M       endif
                          M       if (PREV_BANK == 3)
                          M         bcf     STATUS, RP0
                          M         bcf     STATUS, RP1
                          M       endif
  00000000                M PREV_BANK = 0
                          M     endif
                          M 
                          M     if (((_I2C_ADDR) & 180h) == 80h)
                          M       if (PREV_BANK == 0)
                          M         bsf     STATUS, RP0
                          M       endif
                          M       if (PREV_BANK == 2)
                          M         bsf     STATUS, RP0
                          M         bcf     STATUS, RP1
                          M       endif
                          M       if (PREV_BANK == 3)
                          M         bcf     STATUS, RP1
                          M       endif
                          M PREV_BANK = 1
                          M     endif
                          M 
                          M     if (((_I2C_ADDR) & 180h) == 100h)
                          M       if (PREV_BANK == 0)
                          M         bsf     STATUS, RP1
                          M       endif
                          M       if (PREV_BANK == 1)
                          M         bcf     STATUS, RP0
                          M         bsf     STATUS, RP1
                          M       endif
                          M       if (PREV_BANK == 3)
                          M         bcf     STATUS, RP0
                          M       endif
                          M PREV_BANK = 2
                          M     endif
                          M 
                          M     if (((_I2C_ADDR) & 180h) == 180h)
                          M       if (PREV_BANK == 0)
                          M         bsf     STATUS, RP0
                          M         bsf     STATUS, RP1
                          M       endif
                          M       if (PREV_BANK == 1)
                          M         bsf     STATUS, RP1
                          M       endif
                          M       if (PREV_BANK == 2)
                          M         bsf     STATUS, RP0
                          M       endif
MPASM 5.75                   I2C SCANNER.ASM   3-19-2018  12:35:42         PAGE 78


LOC  OBJECT CODE     LINE SOURCE TEXT
  VALUE

                          M PREV_BANK = 3
                          M     endif
016A   083C               M         movf    _I2C_ADDR, W
                          M         L?CALL  I2CWRITE
                          M         RST?RP
                          M     if ((PREV_BANK & 1) != 0)
                          M         bcf     STATUS, RP0
                          M     endif
                          M     if ((PREV_BANK & 2) != 0)
                          M         bcf     STATUS, RP1
                          M     endif
  00000000                M PREV_BANK = 0
                          M 
                          M     ifdef USE_LINKER
                          M       if (CODE_SIZE > 2)
                          M         pagesel I2CWRITE
                          M       endif
                          M     else
                          M       if ((I2CWRITE) < 1)
                          M         if (CODE_SIZE > 2)
                          M           if (((I2CWRITE) & 800h) == 0)
                          M         bcf     PCLATH, 3
                          M         else
                          M         bsf     PCLATH, 3
                          M         endif
                          M         endif
                          M         if (CODE_SIZE > 4)
                          M           if (((I2CWRITE) & 1000h) == 0)
                          M         bcf     PCLATH, 4
                          M           else
                          M         bsf     PCLATH, 4
                          M           endif
                          M         endif
                          M       else
                          M         if ((I2CWRITE) > $)
                          M           if (CODE_SIZE > 2)
                          M             if (((I2CWRITE) & 800h) == 0)
                          M         bcf     PCLATH, 3
                          M             else
                          M         bsf     PCLATH, 3
                          M             endif
                          M           endif
                          M           if (CODE_SIZE > 4)
                          M             if (((I2CWRITE) & 1000h) == 0)
                          M         bcf     PCLATH, 4
                          M             else
                          M         bsf     PCLATH, 4
                          M             endif
                          M           endif
                          M         else
                          M           if (CODE_SIZE > 2)
                          M             if (((I2CWRITE) & 1800h) == 0)
016B   018A               M         clrf    PCLATH
MPASM 5.75                   I2C SCANNER.ASM   3-19-2018  12:35:42         PAGE 79


LOC  OBJECT CODE     LINE SOURCE TEXT
  VALUE

                          M             else
                          M               if (((I2CWRITE) & 800h) == 0)
                          M         bcf     PCLATH, 3
                          M               else
                          M         bsf     PCLATH, 3
                          M               endif
                          M               if (CODE_SIZE > 4)
                          M                 if (((I2CWRITE) & 1000h) == 0)
                          M         bcf     PCLATH, 4
                          M                 else
                          M         bsf     PCLATH, 4
                          M                 endif   
                          M               endif
                          M             endif
                          M           endif
                          M         endif
                          M       endif
                          M     endif
                          M 
016C   2004               M         call    I2CWRITE
                          M         BIT?GOTO 1, STATUS, C, _Not_found
                          M     ifdef USE_LINKER
                          M         CLRWDT?
                          M     else
                          M       if ($ == (_Not_found))
                          M         CLRWDT?
                          M       endif
                          M     endif
                          M 
                          M     ifdef USE_LINKER
                          M       if (CODE_SIZE > 2)
                          M         pagesel _Not_found
                          M       endif
                          M     else
                          M       if (CODE_SIZE > 2)
                          M         if (((_Not_found) & 800h) == 0)
016D   118A               M         bcf     PCLATH, 3
                          M         else
                          M         bsf     PCLATH, 3
                          M         endif
                          M       endif
                          M       if (CODE_SIZE > 4)
                          M         if (((_Not_found) & 1000h) == 0)
                          M         bcf     PCLATH, 4
                          M         else
                          M         bsf     PCLATH, 4
                          M         endif
                          M       endif
                          M     endif
                          M 
                          M     if (((STATUS) & 0ff80h) != 0)
                          M         CHK?RP  STATUS
                          M         bcf     STATUS, DC
MPASM 5.75                   I2C SCANNER.ASM   3-19-2018  12:35:42         PAGE 80


LOC  OBJECT CODE     LINE SOURCE TEXT
  VALUE

                          M       if ((1)      == 0)
                          M         btfss   STATUS, C
                          M       else
                          M         btfsc   STATUS, C
                          M       endif
                          M         bsf     STATUS, DC
                          M         RST?RP
                          M         btfsc   STATUS, DC
                          M     else
                          M         RST?RP
                          M     if ((PREV_BANK & 1) != 0)
                          M         bcf     STATUS, RP0
                          M     endif
                          M     if ((PREV_BANK & 2) != 0)
                          M         bcf     STATUS, RP1
                          M     endif
  00000000                M PREV_BANK = 0
                          M       if ((1)      == 0)
                          M         btfss   STATUS, C
                          M       else
016E   1803               M         btfsc   STATUS, C
                          M       endif
                          M     endif
                          M 
016F   29DA               M         goto    _Not_found
                      00307         I2CWRITES?CL    000h, _Not_found
                          M     if ((high (000h)) != 0)
                          M         movlw   (000h) >> 8
                          M         L?CALL  I2CWRITE
                          M         BIT?GOTO 1, STATUS, C, _Not_found
                          M     endif
                          M         MOVE?CA low (000h)
0170   3000               M         movlw   low (low (000h))
                          M         L?CALL  I2CWRITES
                          M         RST?RP
                          M     if ((PREV_BANK & 1) != 0)
                          M         bcf     STATUS, RP0
                          M     endif
                          M     if ((PREV_BANK & 2) != 0)
                          M         bcf     STATUS, RP1
                          M     endif
  00000000                M PREV_BANK = 0
                          M 
                          M     ifdef USE_LINKER
                          M       if (CODE_SIZE > 2)
                          M         pagesel I2CWRITES
                          M       endif
                          M     else
                          M       if ((I2CWRITES) < 1)
                          M         if (CODE_SIZE > 2)
                          M           if (((I2CWRITES) & 800h) == 0)
                          M         bcf     PCLATH, 3
                          M         else
MPASM 5.75                   I2C SCANNER.ASM   3-19-2018  12:35:42         PAGE 81


LOC  OBJECT CODE     LINE SOURCE TEXT
  VALUE

                          M         bsf     PCLATH, 3
                          M         endif
                          M         endif
                          M         if (CODE_SIZE > 4)
                          M           if (((I2CWRITES) & 1000h) == 0)
                          M         bcf     PCLATH, 4
                          M           else
                          M         bsf     PCLATH, 4
                          M           endif
                          M         endif
                          M       else
                          M         if ((I2CWRITES) > $)
                          M           if (CODE_SIZE > 2)
                          M             if (((I2CWRITES) & 800h) == 0)
                          M         bcf     PCLATH, 3
                          M             else
                          M         bsf     PCLATH, 3
                          M             endif
                          M           endif
                          M           if (CODE_SIZE > 4)
                          M             if (((I2CWRITES) & 1000h) == 0)
                          M         bcf     PCLATH, 4
                          M             else
                          M         bsf     PCLATH, 4
                          M             endif
                          M           endif
                          M         else
                          M           if (CODE_SIZE > 2)
                          M             if (((I2CWRITES) & 1800h) == 0)
0171   018A               M         clrf    PCLATH
                          M             else
                          M               if (((I2CWRITES) & 800h) == 0)
                          M         bcf     PCLATH, 3
                          M               else
                          M         bsf     PCLATH, 3
                          M               endif
                          M               if (CODE_SIZE > 4)
                          M                 if (((I2CWRITES) & 1000h) == 0)
                          M         bcf     PCLATH, 4
                          M                 else
                          M         bsf     PCLATH, 4
                          M                 endif   
                          M               endif
                          M             endif
                          M           endif
                          M         endif
                          M       endif
                          M     endif
                          M 
0172   2002               M         call    I2CWRITES
                          M         BIT?GOTO 1, STATUS, C, _Not_found
                          M     ifdef USE_LINKER
                          M         CLRWDT?
MPASM 5.75                   I2C SCANNER.ASM   3-19-2018  12:35:42         PAGE 82


LOC  OBJECT CODE     LINE SOURCE TEXT
  VALUE

                          M     else
                          M       if ($ == (_Not_found))
                          M         CLRWDT?
                          M       endif
                          M     endif
                          M 
                          M     ifdef USE_LINKER
                          M       if (CODE_SIZE > 2)
                          M         pagesel _Not_found
                          M       endif
                          M     else
                          M       if (CODE_SIZE > 2)
                          M         if (((_Not_found) & 800h) == 0)
0173   118A               M         bcf     PCLATH, 3
                          M         else
                          M         bsf     PCLATH, 3
                          M         endif
                          M       endif
                          M       if (CODE_SIZE > 4)
                          M         if (((_Not_found) & 1000h) == 0)
                          M         bcf     PCLATH, 4
                          M         else
                          M         bsf     PCLATH, 4
                          M         endif
                          M       endif
                          M     endif
                          M 
                          M     if (((STATUS) & 0ff80h) != 0)
                          M         CHK?RP  STATUS
                          M         bcf     STATUS, DC
                          M       if ((1)      == 0)
                          M         btfss   STATUS, C
                          M       else
                          M         btfsc   STATUS, C
                          M       endif
                          M         bsf     STATUS, DC
                          M         RST?RP
                          M         btfsc   STATUS, DC
                          M     else
                          M         RST?RP
                          M     if ((PREV_BANK & 1) != 0)
                          M         bcf     STATUS, RP0
                          M     endif
                          M     if ((PREV_BANK & 2) != 0)
                          M         bcf     STATUS, RP1
                          M     endif
  00000000                M PREV_BANK = 0
                          M       if ((1)      == 0)
                          M         btfss   STATUS, C
                          M       else
0174   1803               M         btfsc   STATUS, C
                          M       endif
                          M     endif
MPASM 5.75                   I2C SCANNER.ASM   3-19-2018  12:35:42         PAGE 83


LOC  OBJECT CODE     LINE SOURCE TEXT
  VALUE

                          M 
0175   29DA               M         goto    _Not_found
                      00308 
                      00309 ; C:\USERS\ANDREW MCENTEE\DOCUMENTS\DEVELOPMENT\PBP3\16F688 PROGRAMS\I2C SCANNER.PBP    00059                   NEXT_ADDR:
                      00310 
                      00311         LABEL?L _NEXT_ADDR      
                          M         RST?RP
                          M     if ((PREV_BANK & 1) != 0)
                          M         bcf     STATUS, RP0
                          M     endif
                          M     if ((PREV_BANK & 2) != 0)
                          M         bcf     STATUS, RP1
                          M     endif
  00000000                M PREV_BANK = 0
                          M     ifdef PM_USED
                          M         LALL
                          M _NEXT_ADDR
                          M         XALL
                          M     else
0176                      M _NEXT_ADDR
                          M     endif
                      00312 
                      00313 ; C:\USERS\ANDREW MCENTEE\DOCUMENTS\DEVELOPMENT\PBP3\16F688 PROGRAMS\I2C SCANNER.PBP    00060                   if Valid < 1000 then
                      00314         CMPGE?WCL       _VALID, 003E8h, L00003
                          M     if ((003E8h) <= 0)
                          M         L?GOTO  L00003
                          M     else
                          M       if ((003E8h) < 10000h)
                          M         MOVE?WW _VALID, R0
                          M         MOVE?BB _VALID, R0
                          M         CHK?RP  _VALID
                          M     if (((_VALID) & 180h) == 0)
                          M       if (PREV_BANK == 1)
                          M         bcf     STATUS, RP0
                          M       endif
                          M       if (PREV_BANK == 2)
                          M         bcf     STATUS, RP1
                          M       endif
                          M       if (PREV_BANK == 3)
                          M         bcf     STATUS, RP0
                          M         bcf     STATUS, RP1
                          M       endif
  00000000                M PREV_BANK = 0
                          M     endif
                          M 
                          M     if (((_VALID) & 180h) == 80h)
                          M       if (PREV_BANK == 0)
                          M         bsf     STATUS, RP0
                          M       endif
                          M       if (PREV_BANK == 2)
                          M         bsf     STATUS, RP0
                          M         bcf     STATUS, RP1
                          M       endif
MPASM 5.75                   I2C SCANNER.ASM   3-19-2018  12:35:42         PAGE 84


LOC  OBJECT CODE     LINE SOURCE TEXT
  VALUE

                          M       if (PREV_BANK == 3)
                          M         bcf     STATUS, RP1
                          M       endif
                          M PREV_BANK = 1
                          M     endif
                          M 
                          M     if (((_VALID) & 180h) == 100h)
                          M       if (PREV_BANK == 0)
                          M         bsf     STATUS, RP1
                          M       endif
                          M       if (PREV_BANK == 1)
                          M         bcf     STATUS, RP0
                          M         bsf     STATUS, RP1
                          M       endif
                          M       if (PREV_BANK == 3)
                          M         bcf     STATUS, RP0
                          M       endif
                          M PREV_BANK = 2
                          M     endif
                          M 
                          M     if (((_VALID) & 180h) == 180h)
                          M       if (PREV_BANK == 0)
                          M         bsf     STATUS, RP0
                          M         bsf     STATUS, RP1
                          M       endif
                          M       if (PREV_BANK == 1)
                          M         bsf     STATUS, RP1
                          M       endif
                          M       if (PREV_BANK == 2)
                          M         bsf     STATUS, RP0
                          M       endif
                          M PREV_BANK = 3
                          M     endif
0176   0838               M         movf    _VALID, W
                          M         CHK?RP  R0
                          M     if (((R0)    & 180h) == 0)
                          M       if (PREV_BANK == 1)
                          M         bcf     STATUS, RP0
                          M       endif
                          M       if (PREV_BANK == 2)
                          M         bcf     STATUS, RP1
                          M       endif
                          M       if (PREV_BANK == 3)
                          M         bcf     STATUS, RP0
                          M         bcf     STATUS, RP1
                          M       endif
  00000000                M PREV_BANK = 0
                          M     endif
                          M 
                          M     if (((R0)    & 180h) == 80h)
                          M       if (PREV_BANK == 0)
                          M         bsf     STATUS, RP0
                          M       endif
MPASM 5.75                   I2C SCANNER.ASM   3-19-2018  12:35:42         PAGE 85


LOC  OBJECT CODE     LINE SOURCE TEXT
  VALUE

                          M       if (PREV_BANK == 2)
                          M         bsf     STATUS, RP0
                          M         bcf     STATUS, RP1
                          M       endif
                          M       if (PREV_BANK == 3)
                          M         bcf     STATUS, RP1
                          M       endif
                          M PREV_BANK = 1
                          M     endif
                          M 
                          M     if (((R0)    & 180h) == 100h)
                          M       if (PREV_BANK == 0)
                          M         bsf     STATUS, RP1
                          M       endif
                          M       if (PREV_BANK == 1)
                          M         bcf     STATUS, RP0
                          M         bsf     STATUS, RP1
                          M       endif
                          M       if (PREV_BANK == 3)
                          M         bcf     STATUS, RP0
                          M       endif
                          M PREV_BANK = 2
                          M     endif
                          M 
                          M     if (((R0)    & 180h) == 180h)
                          M       if (PREV_BANK == 0)
                          M         bsf     STATUS, RP0
                          M         bsf     STATUS, RP1
                          M       endif
                          M       if (PREV_BANK == 1)
                          M         bsf     STATUS, RP1
                          M       endif
                          M       if (PREV_BANK == 2)
                          M         bsf     STATUS, RP0
                          M       endif
                          M PREV_BANK = 3
                          M     endif
0177   00A0               M         movwf   R0
                          M         MOVE?BB (_VALID) + 1, (R0) + 1
                          M         CHK?RP  (_VALID) + 1
                          M     if ((((_VALID) + 1) & 180h) == 0)
                          M       if (PREV_BANK == 1)
                          M         bcf     STATUS, RP0
                          M       endif
                          M       if (PREV_BANK == 2)
                          M         bcf     STATUS, RP1
                          M       endif
                          M       if (PREV_BANK == 3)
                          M         bcf     STATUS, RP0
                          M         bcf     STATUS, RP1
                          M       endif
  00000000                M PREV_BANK = 0
                          M     endif
MPASM 5.75                   I2C SCANNER.ASM   3-19-2018  12:35:42         PAGE 86


LOC  OBJECT CODE     LINE SOURCE TEXT
  VALUE

                          M 
                          M     if ((((_VALID) + 1) & 180h) == 80h)
                          M       if (PREV_BANK == 0)
                          M         bsf     STATUS, RP0
                          M       endif
                          M       if (PREV_BANK == 2)
                          M         bsf     STATUS, RP0
                          M         bcf     STATUS, RP1
                          M       endif
                          M       if (PREV_BANK == 3)
                          M         bcf     STATUS, RP1
                          M       endif
                          M PREV_BANK = 1
                          M     endif
                          M 
                          M     if ((((_VALID) + 1) & 180h) == 100h)
                          M       if (PREV_BANK == 0)
                          M         bsf     STATUS, RP1
                          M       endif
                          M       if (PREV_BANK == 1)
                          M         bcf     STATUS, RP0
                          M         bsf     STATUS, RP1
                          M       endif
                          M       if (PREV_BANK == 3)
                          M         bcf     STATUS, RP0
                          M       endif
                          M PREV_BANK = 2
                          M     endif
                          M 
                          M     if ((((_VALID) + 1) & 180h) == 180h)
                          M       if (PREV_BANK == 0)
                          M         bsf     STATUS, RP0
                          M         bsf     STATUS, RP1
                          M       endif
                          M       if (PREV_BANK == 1)
                          M         bsf     STATUS, RP1
                          M       endif
                          M       if (PREV_BANK == 2)
                          M         bsf     STATUS, RP0
                          M       endif
                          M PREV_BANK = 3
                          M     endif
0178   0839               M         movf    (_VALID) + 1, W
                          M         CHK?RP  (R0) + 1
                          M     if ((((R0) + 1) & 180h) == 0)
                          M       if (PREV_BANK == 1)
                          M         bcf     STATUS, RP0
                          M       endif
                          M       if (PREV_BANK == 2)
                          M         bcf     STATUS, RP1
                          M       endif
                          M       if (PREV_BANK == 3)
                          M         bcf     STATUS, RP0
MPASM 5.75                   I2C SCANNER.ASM   3-19-2018  12:35:42         PAGE 87


LOC  OBJECT CODE     LINE SOURCE TEXT
  VALUE

                          M         bcf     STATUS, RP1
                          M       endif
  00000000                M PREV_BANK = 0
                          M     endif
                          M 
                          M     if ((((R0) + 1) & 180h) == 80h)
                          M       if (PREV_BANK == 0)
                          M         bsf     STATUS, RP0
                          M       endif
                          M       if (PREV_BANK == 2)
                          M         bsf     STATUS, RP0
                          M         bcf     STATUS, RP1
                          M       endif
                          M       if (PREV_BANK == 3)
                          M         bcf     STATUS, RP1
                          M       endif
                          M PREV_BANK = 1
                          M     endif
                          M 
                          M     if ((((R0) + 1) & 180h) == 100h)
                          M       if (PREV_BANK == 0)
                          M         bsf     STATUS, RP1
                          M       endif
                          M       if (PREV_BANK == 1)
                          M         bcf     STATUS, RP0
                          M         bsf     STATUS, RP1
                          M       endif
                          M       if (PREV_BANK == 3)
                          M         bcf     STATUS, RP0
                          M       endif
                          M PREV_BANK = 2
                          M     endif
                          M 
                          M     if ((((R0) + 1) & 180h) == 180h)
                          M       if (PREV_BANK == 0)
                          M         bsf     STATUS, RP0
                          M         bsf     STATUS, RP1
                          M       endif
                          M       if (PREV_BANK == 1)
                          M         bsf     STATUS, RP1
                          M       endif
                          M       if (PREV_BANK == 2)
                          M         bsf     STATUS, RP0
                          M       endif
                          M PREV_BANK = 3
                          M     endif
0179   00A1               M         movwf   (R0) + 1
                          M         MOVE?CB (003E8h) >> 8, R1 + 1
                          M         CHK?RP  R1 + 1
                          M     if (((R1 + 1) & 180h) == 0)
                          M       if (PREV_BANK == 1)
                          M         bcf     STATUS, RP0
                          M       endif
MPASM 5.75                   I2C SCANNER.ASM   3-19-2018  12:35:42         PAGE 88


LOC  OBJECT CODE     LINE SOURCE TEXT
  VALUE

                          M       if (PREV_BANK == 2)
                          M         bcf     STATUS, RP1
                          M       endif
                          M       if (PREV_BANK == 3)
                          M         bcf     STATUS, RP0
                          M         bcf     STATUS, RP1
                          M       endif
  00000000                M PREV_BANK = 0
                          M     endif
                          M 
                          M     if (((R1 + 1) & 180h) == 80h)
                          M       if (PREV_BANK == 0)
                          M         bsf     STATUS, RP0
                          M       endif
                          M       if (PREV_BANK == 2)
                          M         bsf     STATUS, RP0
                          M         bcf     STATUS, RP1
                          M       endif
                          M       if (PREV_BANK == 3)
                          M         bcf     STATUS, RP1
                          M       endif
                          M PREV_BANK = 1
                          M     endif
                          M 
                          M     if (((R1 + 1) & 180h) == 100h)
                          M       if (PREV_BANK == 0)
                          M         bsf     STATUS, RP1
                          M       endif
                          M       if (PREV_BANK == 1)
                          M         bcf     STATUS, RP0
                          M         bsf     STATUS, RP1
                          M       endif
                          M       if (PREV_BANK == 3)
                          M         bcf     STATUS, RP0
                          M       endif
                          M PREV_BANK = 2
                          M     endif
                          M 
                          M     if (((R1 + 1) & 180h) == 180h)
                          M       if (PREV_BANK == 0)
                          M         bsf     STATUS, RP0
                          M         bsf     STATUS, RP1
                          M       endif
                          M       if (PREV_BANK == 1)
                          M         bsf     STATUS, RP1
                          M       endif
                          M       if (PREV_BANK == 2)
                          M         bsf     STATUS, RP0
                          M       endif
                          M PREV_BANK = 3
                          M     endif
                          M     if (low ((003E8h) >> 8) == 0)
                          M         clrf    R1 + 1
MPASM 5.75                   I2C SCANNER.ASM   3-19-2018  12:35:42         PAGE 89


LOC  OBJECT CODE     LINE SOURCE TEXT
  VALUE

                          M     else
017A   3003               M         movlw   low ((003E8h) >> 8)
017B   00A3               M         movwf   R1 + 1
                          M     endif
                          M         MOVE?CA low (003E8h)
017C   30E8               M         movlw   low (low (003E8h))
                          M         L?CALL  CMPGE
                          M         RST?RP
                          M     if ((PREV_BANK & 1) != 0)
                          M         bcf     STATUS, RP0
                          M     endif
                          M     if ((PREV_BANK & 2) != 0)
                          M         bcf     STATUS, RP1
                          M     endif
  00000000                M PREV_BANK = 0
                          M 
                          M     ifdef USE_LINKER
                          M       if (CODE_SIZE > 2)
                          M         pagesel CMPGE
                          M       endif
                          M     else
                          M       if ((CMPGE) < 1)
                          M         if (CODE_SIZE > 2)
                          M           if (((CMPGE) & 800h) == 0)
                          M         bcf     PCLATH, 3
                          M         else
                          M         bsf     PCLATH, 3
                          M         endif
                          M         endif
                          M         if (CODE_SIZE > 4)
                          M           if (((CMPGE) & 1000h) == 0)
                          M         bcf     PCLATH, 4
                          M           else
                          M         bsf     PCLATH, 4
                          M           endif
                          M         endif
                          M       else
                          M         if ((CMPGE) > $)
                          M           if (CODE_SIZE > 2)
                          M             if (((CMPGE) & 800h) == 0)
                          M         bcf     PCLATH, 3
                          M             else
                          M         bsf     PCLATH, 3
                          M             endif
                          M           endif
                          M           if (CODE_SIZE > 4)
                          M             if (((CMPGE) & 1000h) == 0)
                          M         bcf     PCLATH, 4
                          M             else
                          M         bsf     PCLATH, 4
                          M             endif
                          M           endif
                          M         else
MPASM 5.75                   I2C SCANNER.ASM   3-19-2018  12:35:42         PAGE 90


LOC  OBJECT CODE     LINE SOURCE TEXT
  VALUE

                          M           if (CODE_SIZE > 2)
                          M             if (((CMPGE) & 1800h) == 0)
017D   018A               M         clrf    PCLATH
                          M             else
                          M               if (((CMPGE) & 800h) == 0)
                          M         bcf     PCLATH, 3
                          M               else
                          M         bsf     PCLATH, 3
                          M               endif
                          M               if (CODE_SIZE > 4)
                          M                 if (((CMPGE) & 1000h) == 0)
                          M         bcf     PCLATH, 4
                          M                 else
                          M         bsf     PCLATH, 4
                          M                 endif   
                          M               endif
                          M             endif
                          M           endif
                          M         endif
                          M       endif
                          M     endif
                          M 
017E   20CC               M         call    CMPGE
                          M         BIT?GOTO 0, STATUS, Z, L00003
                          M     ifdef USE_LINKER
                          M         CLRWDT?
                          M     else
                          M       if ($ == (L00003))
                          M         CLRWDT?
                          M       endif
                          M     endif
                          M 
                          M     ifdef USE_LINKER
                          M       if (CODE_SIZE > 2)
                          M         pagesel L00003
                          M       endif
                          M     else
                          M       if (CODE_SIZE > 2)
                          M         if (((L00003) & 800h) == 0)
017F   118A               M         bcf     PCLATH, 3
                          M         else
                          M         bsf     PCLATH, 3
                          M         endif
                          M       endif
                          M       if (CODE_SIZE > 4)
                          M         if (((L00003) & 1000h) == 0)
                          M         bcf     PCLATH, 4
                          M         else
                          M         bsf     PCLATH, 4
                          M         endif
                          M       endif
                          M     endif
                          M 
MPASM 5.75                   I2C SCANNER.ASM   3-19-2018  12:35:42         PAGE 91


LOC  OBJECT CODE     LINE SOURCE TEXT
  VALUE

                          M     if (((STATUS) & 0ff80h) != 0)
                          M         CHK?RP  STATUS
                          M         bcf     STATUS, DC
                          M       if ((0)      == 0)
                          M         btfss   STATUS, Z
                          M       else
                          M         btfsc   STATUS, Z
                          M       endif
                          M         bsf     STATUS, DC
                          M         RST?RP
                          M         btfsc   STATUS, DC
                          M     else
                          M         RST?RP
                          M     if ((PREV_BANK & 1) != 0)
                          M         bcf     STATUS, RP0
                          M     endif
                          M     if ((PREV_BANK & 2) != 0)
                          M         bcf     STATUS, RP1
                          M     endif
  00000000                M PREV_BANK = 0
                          M       if ((0)      == 0)
0180   1D03               M         btfss   STATUS, Z
                          M       else
                          M         btfsc   STATUS, Z
                          M       endif
                          M     endif
                          M 
0181   2999               M         goto    L00003
                          M       endif
                          M     endif
                      00315 
                      00316 ; C:\USERS\ANDREW MCENTEE\DOCUMENTS\DEVELOPMENT\PBP3\16F688 PROGRAMS\I2C SCANNER.PBP    00061                           counter = counter + 1
                      00317         ADD?BCB _COUNTER, 001h, _COUNTER
                          M     if ((_COUNTER) == (_COUNTER))
                          M       if ((001h) == 1)
                          M         CHK?RP  _COUNTER
                          M     if (((_COUNTER) & 180h) == 0)
                          M       if (PREV_BANK == 1)
                          M         bcf     STATUS, RP0
                          M       endif
                          M       if (PREV_BANK == 2)
                          M         bcf     STATUS, RP1
                          M       endif
                          M       if (PREV_BANK == 3)
                          M         bcf     STATUS, RP0
                          M         bcf     STATUS, RP1
                          M       endif
  00000000                M PREV_BANK = 0
                          M     endif
                          M 
                          M     if (((_COUNTER) & 180h) == 80h)
                          M       if (PREV_BANK == 0)
                          M         bsf     STATUS, RP0
MPASM 5.75                   I2C SCANNER.ASM   3-19-2018  12:35:42         PAGE 92


LOC  OBJECT CODE     LINE SOURCE TEXT
  VALUE

                          M       endif
                          M       if (PREV_BANK == 2)
                          M         bsf     STATUS, RP0
                          M         bcf     STATUS, RP1
                          M       endif
                          M       if (PREV_BANK == 3)
                          M         bcf     STATUS, RP1
                          M       endif
                          M PREV_BANK = 1
                          M     endif
                          M 
                          M     if (((_COUNTER) & 180h) == 100h)
                          M       if (PREV_BANK == 0)
                          M         bsf     STATUS, RP1
                          M       endif
                          M       if (PREV_BANK == 1)
                          M         bcf     STATUS, RP0
                          M         bsf     STATUS, RP1
                          M       endif
                          M       if (PREV_BANK == 3)
                          M         bcf     STATUS, RP0
                          M       endif
                          M PREV_BANK = 2
                          M     endif
                          M 
                          M     if (((_COUNTER) & 180h) == 180h)
                          M       if (PREV_BANK == 0)
                          M         bsf     STATUS, RP0
                          M         bsf     STATUS, RP1
                          M       endif
                          M       if (PREV_BANK == 1)
                          M         bsf     STATUS, RP1
                          M       endif
                          M       if (PREV_BANK == 2)
                          M         bsf     STATUS, RP0
                          M       endif
                          M PREV_BANK = 3
                          M     endif
0182   0ABA               M         incf    _COUNTER, F
                          M       else
                          M         movlw   001h
                          M         CHK?RP  _COUNTER
                          M         addwf   _COUNTER, F
                          M       endif
                          M     else
                          M       if ((001h) == 1)
                          M         CHK?RP  _COUNTER
                          M         incf    _COUNTER, W
                          M         MOVE?AB _COUNTER
                          M       else
                          M         movlw   001h
                          M         CHK?RP  _COUNTER
                          M         addwf   _COUNTER, W
MPASM 5.75                   I2C SCANNER.ASM   3-19-2018  12:35:42         PAGE 93


LOC  OBJECT CODE     LINE SOURCE TEXT
  VALUE

                          M         MOVE?AB _COUNTER
                          M       endif
                          M     endif
                      00318 
                      00319 ; C:\USERS\ANDREW MCENTEE\DOCUMENTS\DEVELOPMENT\PBP3\16F688 PROGRAMS\I2C SCANNER.PBP    00062                           if COUNTER = 5 THEN
                      00320         CMPNE?BCL       _COUNTER, 005h, L00005
                          M     if (((005h) > -100h) & ((005h) < 100h))
                          M         CLRWDT?
                          M     ifndef NO_CLRWDT
0183   0064               M         clrwdt
                          M     endif
                          M         MOVE?BA _COUNTER
                          M         CHK?RP  _COUNTER
                          M     if (((_COUNTER) & 180h) == 0)
                          M       if (PREV_BANK == 1)
                          M         bcf     STATUS, RP0
                          M       endif
                          M       if (PREV_BANK == 2)
                          M         bcf     STATUS, RP1
                          M       endif
                          M       if (PREV_BANK == 3)
                          M         bcf     STATUS, RP0
                          M         bcf     STATUS, RP1
                          M       endif
  00000000                M PREV_BANK = 0
                          M     endif
                          M 
                          M     if (((_COUNTER) & 180h) == 80h)
                          M       if (PREV_BANK == 0)
                          M         bsf     STATUS, RP0
                          M       endif
                          M       if (PREV_BANK == 2)
                          M         bsf     STATUS, RP0
                          M         bcf     STATUS, RP1
                          M       endif
                          M       if (PREV_BANK == 3)
                          M         bcf     STATUS, RP1
                          M       endif
                          M PREV_BANK = 1
                          M     endif
                          M 
                          M     if (((_COUNTER) & 180h) == 100h)
                          M       if (PREV_BANK == 0)
                          M         bsf     STATUS, RP1
                          M       endif
                          M       if (PREV_BANK == 1)
                          M         bcf     STATUS, RP0
                          M         bsf     STATUS, RP1
                          M       endif
                          M       if (PREV_BANK == 3)
                          M         bcf     STATUS, RP0
                          M       endif
                          M PREV_BANK = 2
MPASM 5.75                   I2C SCANNER.ASM   3-19-2018  12:35:42         PAGE 94


LOC  OBJECT CODE     LINE SOURCE TEXT
  VALUE

                          M     endif
                          M 
                          M     if (((_COUNTER) & 180h) == 180h)
                          M       if (PREV_BANK == 0)
                          M         bsf     STATUS, RP0
                          M         bsf     STATUS, RP1
                          M       endif
                          M       if (PREV_BANK == 1)
                          M         bsf     STATUS, RP1
                          M       endif
                          M       if (PREV_BANK == 2)
                          M         bsf     STATUS, RP0
                          M       endif
                          M PREV_BANK = 3
                          M     endif
0184   083A               M         movf    _COUNTER, W
0185   3C05               M         sublw   005h
                          M         BIT?GOTO 0, STATUS, Z, L00005
                          M     ifdef USE_LINKER
                          M         CLRWDT?
                          M     else
                          M       if ($ == (L00005))
                          M         CLRWDT?
                          M       endif
                          M     endif
                          M 
                          M     ifdef USE_LINKER
                          M       if (CODE_SIZE > 2)
                          M         pagesel L00005
                          M       endif
                          M     else
                          M       if (CODE_SIZE > 2)
                          M         if (((L00005) & 800h) == 0)
0186   118A               M         bcf     PCLATH, 3
                          M         else
                          M         bsf     PCLATH, 3
                          M         endif
                          M       endif
                          M       if (CODE_SIZE > 4)
                          M         if (((L00005) & 1000h) == 0)
                          M         bcf     PCLATH, 4
                          M         else
                          M         bsf     PCLATH, 4
                          M         endif
                          M       endif
                          M     endif
                          M 
                          M     if (((STATUS) & 0ff80h) != 0)
                          M         CHK?RP  STATUS
                          M         bcf     STATUS, DC
                          M       if ((0)      == 0)
                          M         btfss   STATUS, Z
                          M       else
MPASM 5.75                   I2C SCANNER.ASM   3-19-2018  12:35:42         PAGE 95


LOC  OBJECT CODE     LINE SOURCE TEXT
  VALUE

                          M         btfsc   STATUS, Z
                          M       endif
                          M         bsf     STATUS, DC
                          M         RST?RP
                          M         btfsc   STATUS, DC
                          M     else
                          M         RST?RP
                          M     if ((PREV_BANK & 1) != 0)
                          M         bcf     STATUS, RP0
                          M     endif
                          M     if ((PREV_BANK & 2) != 0)
                          M         bcf     STATUS, RP1
                          M     endif
  00000000                M PREV_BANK = 0
                          M       if ((0)      == 0)
0187   1D03               M         btfss   STATUS, Z
                          M       else
                          M         btfsc   STATUS, Z
                          M       endif
                          M     endif
                          M 
0188   298B               M         goto    L00005
                          M     else
                          M         L?GOTO  L00005
                          M     endif
                      00321 
                      00322 ; C:\USERS\ANDREW MCENTEE\DOCUMENTS\DEVELOPMENT\PBP3\16F688 PROGRAMS\I2C SCANNER.PBP    00063                                   gosub Line2
                      00323         GOSUB?L _Line2
  0000                    M     local dlabel
                          M     ifdef DEBUG_STACK
                          M         CHK?RP  DEBUG_STACK
                          M       ifdef DEBUG_STACK_ADDR
                          M         bcf     STATUS, C
                          M         rlf     DEBUG_STACK, W
                          M         addlw   DEBUG_STACK_ADDR
                          M         movwf   FSR
                          M         movlw   low (dlabel)
                          M         movwf   INDF
                          M         incf    FSR, F
                          M         movlw   high (dlabel)
                          M         movwf   INDF
                          M       endif
                          M         incf    DEBUG_STACK, F
                          M     endif
                          M         L?CALL  _Line2
                          M         RST?RP
                          M     if ((PREV_BANK & 1) != 0)
                          M         bcf     STATUS, RP0
                          M     endif
                          M     if ((PREV_BANK & 2) != 0)
                          M         bcf     STATUS, RP1
                          M     endif
  00000000                M PREV_BANK = 0
MPASM 5.75                   I2C SCANNER.ASM   3-19-2018  12:35:42         PAGE 96


LOC  OBJECT CODE     LINE SOURCE TEXT
  VALUE

                          M 
                          M     ifdef USE_LINKER
                          M       if (CODE_SIZE > 2)
                          M         pagesel _Line2
                          M       endif
                          M     else
                          M       if ((_Line2) < 1)
                          M         if (CODE_SIZE > 2)
                          M           if (((_Line2) & 800h) == 0)
                          M         bcf     PCLATH, 3
                          M         else
                          M         bsf     PCLATH, 3
                          M         endif
                          M         endif
                          M         if (CODE_SIZE > 4)
                          M           if (((_Line2) & 1000h) == 0)
                          M         bcf     PCLATH, 4
                          M           else
                          M         bsf     PCLATH, 4
                          M           endif
                          M         endif
                          M       else
                          M         if ((_Line2) > $)
                          M           if (CODE_SIZE > 2)
                          M             if (((_Line2) & 800h) == 0)
0189   118A               M         bcf     PCLATH, 3
                          M             else
                          M         bsf     PCLATH, 3
                          M             endif
                          M           endif
                          M           if (CODE_SIZE > 4)
                          M             if (((_Line2) & 1000h) == 0)
                          M         bcf     PCLATH, 4
                          M             else
                          M         bsf     PCLATH, 4
                          M             endif
                          M           endif
                          M         else
                          M           if (CODE_SIZE > 2)
                          M             if (((_Line2) & 1800h) == 0)
                          M         clrf    PCLATH
                          M             else
                          M               if (((_Line2) & 800h) == 0)
                          M         bcf     PCLATH, 3
                          M               else
                          M         bsf     PCLATH, 3
                          M               endif
                          M               if (CODE_SIZE > 4)
                          M                 if (((_Line2) & 1000h) == 0)
                          M         bcf     PCLATH, 4
                          M                 else
                          M         bsf     PCLATH, 4
                          M                 endif   
MPASM 5.75                   I2C SCANNER.ASM   3-19-2018  12:35:42         PAGE 97


LOC  OBJECT CODE     LINE SOURCE TEXT
  VALUE

                          M               endif
                          M             endif
                          M           endif
                          M         endif
                          M       endif
                          M     endif
                          M 
018A   2206               M         call    _Line2
018B                      M dlabel
                      00324 
                      00325 ; C:\USERS\ANDREW MCENTEE\DOCUMENTS\DEVELOPMENT\PBP3\16F688 PROGRAMS\I2C SCANNER.PBP    00064                                   endif
                      00326         LABEL?L L00005  
                          M         RST?RP
                          M     if ((PREV_BANK & 1) != 0)
                          M         bcf     STATUS, RP0
                          M     endif
                          M     if ((PREV_BANK & 2) != 0)
                          M         bcf     STATUS, RP1
                          M     endif
  00000000                M PREV_BANK = 0
                          M     ifdef PM_USED
                          M         LALL
                          M L00005
                          M         XALL
                          M     else
018B                      M L00005
                          M     endif
                      00327 
                      00328 ; C:\USERS\ANDREW MCENTEE\DOCUMENTS\DEVELOPMENT\PBP3\16F688 PROGRAMS\I2C SCANNER.PBP    00065                           serout dsp,T9600,[#I2C_ADDR," "]
                      00329         SERPIN?T        _DSP
                          M         BIT?R1  PORTA, 000h
018B   3005               M         movlw   low ((PORTA) + ((000h)  >> 3))
                          M         CHK?RP  RR1
                          M     if (((RR1)   & 180h) == 0)
                          M       if (PREV_BANK == 1)
                          M         bcf     STATUS, RP0
                          M       endif
                          M       if (PREV_BANK == 2)
                          M         bcf     STATUS, RP1
                          M       endif
                          M       if (PREV_BANK == 3)
                          M         bcf     STATUS, RP0
                          M         bcf     STATUS, RP1
                          M       endif
  00000000                M PREV_BANK = 0
                          M     endif
                          M 
                          M     if (((RR1)   & 180h) == 80h)
                          M       if (PREV_BANK == 0)
                          M         bsf     STATUS, RP0
                          M       endif
                          M       if (PREV_BANK == 2)
                          M         bsf     STATUS, RP0
MPASM 5.75                   I2C SCANNER.ASM   3-19-2018  12:35:42         PAGE 98


LOC  OBJECT CODE     LINE SOURCE TEXT
  VALUE

                          M         bcf     STATUS, RP1
                          M       endif
                          M       if (PREV_BANK == 3)
                          M         bcf     STATUS, RP1
                          M       endif
                          M PREV_BANK = 1
                          M     endif
                          M 
                          M     if (((RR1)   & 180h) == 100h)
                          M       if (PREV_BANK == 0)
                          M         bsf     STATUS, RP1
                          M       endif
                          M       if (PREV_BANK == 1)
                          M         bcf     STATUS, RP0
                          M         bsf     STATUS, RP1
                          M       endif
                          M       if (PREV_BANK == 3)
                          M         bcf     STATUS, RP0
                          M       endif
                          M PREV_BANK = 2
                          M     endif
                          M 
                          M     if (((RR1)   & 180h) == 180h)
                          M       if (PREV_BANK == 0)
                          M         bsf     STATUS, RP0
                          M         bsf     STATUS, RP1
                          M       endif
                          M       if (PREV_BANK == 1)
                          M         bsf     STATUS, RP1
                          M       endif
                          M       if (PREV_BANK == 2)
                          M         bsf     STATUS, RP0
                          M       endif
                          M PREV_BANK = 3
                          M     endif
018C   00B6               M         movwf   RR1
                          M         BIT?W   000h
                          M     if (((000h)  & 7) == 0)
018D   3001               M         movlw   01h
                          M     endif
                          M     if (((000h)  & 7) == 1)
                          M         movlw   02h
                          M     endif
                          M     if (((000h)  & 7) == 2)
                          M         movlw   04h
                          M     endif
                          M     if (((000h)  & 7) == 3)
                          M         movlw   08h
                          M     endif
                          M     if (((000h)  & 7) == 4)
                          M         movlw   10h
                          M     endif
                          M     if (((000h)  & 7) == 5)
MPASM 5.75                   I2C SCANNER.ASM   3-19-2018  12:35:42         PAGE 99


LOC  OBJECT CODE     LINE SOURCE TEXT
  VALUE

                          M         movlw   20h
                          M     endif
                          M     if (((000h)  & 7) == 6)
                          M         movlw   40h
                          M     endif
                          M     if (((000h)  & 7) == 7)
                          M         movlw   80h
                          M     endif
018E   00B4               M         movwf   RM1
                      00330         SERMODE?C       _T9600
                          M         MOVE?CB _T9600, GOP
                          M         CHK?RP  GOP
                          M     if (((GOP)   & 180h) == 0)
                          M       if (PREV_BANK == 1)
                          M         bcf     STATUS, RP0
                          M       endif
                          M       if (PREV_BANK == 2)
                          M         bcf     STATUS, RP1
                          M       endif
                          M       if (PREV_BANK == 3)
                          M         bcf     STATUS, RP0
                          M         bcf     STATUS, RP1
                          M       endif
  00000000                M PREV_BANK = 0
                          M     endif
                          M 
                          M     if (((GOP)   & 180h) == 80h)
                          M       if (PREV_BANK == 0)
                          M         bsf     STATUS, RP0
                          M       endif
                          M       if (PREV_BANK == 2)
                          M         bsf     STATUS, RP0
                          M         bcf     STATUS, RP1
                          M       endif
                          M       if (PREV_BANK == 3)
                          M         bcf     STATUS, RP1
                          M       endif
                          M PREV_BANK = 1
                          M     endif
                          M 
                          M     if (((GOP)   & 180h) == 100h)
                          M       if (PREV_BANK == 0)
                          M         bsf     STATUS, RP1
                          M       endif
                          M       if (PREV_BANK == 1)
                          M         bcf     STATUS, RP0
                          M         bsf     STATUS, RP1
                          M       endif
                          M       if (PREV_BANK == 3)
                          M         bcf     STATUS, RP0
                          M       endif
                          M PREV_BANK = 2
                          M     endif
MPASM 5.75                   I2C SCANNER.ASM   3-19-2018  12:35:42         PAGE 100


LOC  OBJECT CODE     LINE SOURCE TEXT
  VALUE

                          M 
                          M     if (((GOP)   & 180h) == 180h)
                          M       if (PREV_BANK == 0)
                          M         bsf     STATUS, RP0
                          M         bsf     STATUS, RP1
                          M       endif
                          M       if (PREV_BANK == 1)
                          M         bsf     STATUS, RP1
                          M       endif
                          M       if (PREV_BANK == 2)
                          M         bsf     STATUS, RP0
                          M       endif
                          M PREV_BANK = 3
                          M     endif
                          M     if (low (_T9600) == 0)
                          M         clrf    GOP
                          M     else
018F   3002               M         movlw   low (_T9600)
0190   00B3               M         movwf   GOP
                          M     endif
                      00331         SEROUTD?B       _I2C_ADDR
                          M         MOVE?BA _I2C_ADDR
                          M         CHK?RP  _I2C_ADDR
                          M     if (((_I2C_ADDR) & 180h) == 0)
                          M       if (PREV_BANK == 1)
                          M         bcf     STATUS, RP0
                          M       endif
                          M       if (PREV_BANK == 2)
                          M         bcf     STATUS, RP1
                          M       endif
                          M       if (PREV_BANK == 3)
                          M         bcf     STATUS, RP0
                          M         bcf     STATUS, RP1
                          M       endif
  00000000                M PREV_BANK = 0
                          M     endif
                          M 
                          M     if (((_I2C_ADDR) & 180h) == 80h)
                          M       if (PREV_BANK == 0)
                          M         bsf     STATUS, RP0
                          M       endif
                          M       if (PREV_BANK == 2)
                          M         bsf     STATUS, RP0
                          M         bcf     STATUS, RP1
                          M       endif
                          M       if (PREV_BANK == 3)
                          M         bcf     STATUS, RP1
                          M       endif
                          M PREV_BANK = 1
                          M     endif
                          M 
                          M     if (((_I2C_ADDR) & 180h) == 100h)
                          M       if (PREV_BANK == 0)
MPASM 5.75                   I2C SCANNER.ASM   3-19-2018  12:35:42         PAGE 101


LOC  OBJECT CODE     LINE SOURCE TEXT
  VALUE

                          M         bsf     STATUS, RP1
                          M       endif
                          M       if (PREV_BANK == 1)
                          M         bcf     STATUS, RP0
                          M         bsf     STATUS, RP1
                          M       endif
                          M       if (PREV_BANK == 3)
                          M         bcf     STATUS, RP0
                          M       endif
                          M PREV_BANK = 2
                          M     endif
                          M 
                          M     if (((_I2C_ADDR) & 180h) == 180h)
                          M       if (PREV_BANK == 0)
                          M         bsf     STATUS, RP0
                          M         bsf     STATUS, RP1
                          M       endif
                          M       if (PREV_BANK == 1)
                          M         bsf     STATUS, RP1
                          M       endif
                          M       if (PREV_BANK == 2)
                          M         bsf     STATUS, RP0
                          M       endif
                          M PREV_BANK = 3
                          M     endif
0191   083C               M         movf    _I2C_ADDR, W
                          M         L?CALL  SEROUTDEC
                          M         RST?RP
                          M     if ((PREV_BANK & 1) != 0)
                          M         bcf     STATUS, RP0
                          M     endif
                          M     if ((PREV_BANK & 2) != 0)
                          M         bcf     STATUS, RP1
                          M     endif
  00000000                M PREV_BANK = 0
                          M 
                          M     ifdef USE_LINKER
                          M       if (CODE_SIZE > 2)
                          M         pagesel SEROUTDEC
                          M       endif
                          M     else
                          M       if ((SEROUTDEC) < 1)
                          M         if (CODE_SIZE > 2)
                          M           if (((SEROUTDEC) & 800h) == 0)
                          M         bcf     PCLATH, 3
                          M         else
                          M         bsf     PCLATH, 3
                          M         endif
                          M         endif
                          M         if (CODE_SIZE > 4)
                          M           if (((SEROUTDEC) & 1000h) == 0)
                          M         bcf     PCLATH, 4
                          M           else
MPASM 5.75                   I2C SCANNER.ASM   3-19-2018  12:35:42         PAGE 102


LOC  OBJECT CODE     LINE SOURCE TEXT
  VALUE

                          M         bsf     PCLATH, 4
                          M           endif
                          M         endif
                          M       else
                          M         if ((SEROUTDEC) > $)
                          M           if (CODE_SIZE > 2)
                          M             if (((SEROUTDEC) & 800h) == 0)
                          M         bcf     PCLATH, 3
                          M             else
                          M         bsf     PCLATH, 3
                          M             endif
                          M           endif
                          M           if (CODE_SIZE > 4)
                          M             if (((SEROUTDEC) & 1000h) == 0)
                          M         bcf     PCLATH, 4
                          M             else
                          M         bsf     PCLATH, 4
                          M             endif
                          M           endif
                          M         else
                          M           if (CODE_SIZE > 2)
                          M             if (((SEROUTDEC) & 1800h) == 0)
0192   018A               M         clrf    PCLATH
                          M             else
                          M               if (((SEROUTDEC) & 800h) == 0)
                          M         bcf     PCLATH, 3
                          M               else
                          M         bsf     PCLATH, 3
                          M               endif
                          M               if (CODE_SIZE > 4)
                          M                 if (((SEROUTDEC) & 1000h) == 0)
                          M         bcf     PCLATH, 4
                          M                 else
                          M         bsf     PCLATH, 4
                          M                 endif   
                          M               endif
                          M             endif
                          M           endif
                          M         endif
                          M       endif
                          M     endif
                          M 
0193   204D               M         call    SEROUTDEC
                      00332         SEROUT?C        020h
0194   3020               M         movlw   020h
                          M         L?CALL  SEROUT
                          M         RST?RP
                          M     if ((PREV_BANK & 1) != 0)
                          M         bcf     STATUS, RP0
                          M     endif
                          M     if ((PREV_BANK & 2) != 0)
                          M         bcf     STATUS, RP1
                          M     endif
MPASM 5.75                   I2C SCANNER.ASM   3-19-2018  12:35:42         PAGE 103


LOC  OBJECT CODE     LINE SOURCE TEXT
  VALUE

  00000000                M PREV_BANK = 0
                          M 
                          M     ifdef USE_LINKER
                          M       if (CODE_SIZE > 2)
                          M         pagesel SEROUT
                          M       endif
                          M     else
                          M       if ((SEROUT) < 1)
                          M         if (CODE_SIZE > 2)
                          M           if (((SEROUT) & 800h) == 0)
                          M         bcf     PCLATH, 3
                          M         else
                          M         bsf     PCLATH, 3
                          M         endif
                          M         endif
                          M         if (CODE_SIZE > 4)
                          M           if (((SEROUT) & 1000h) == 0)
                          M         bcf     PCLATH, 4
                          M           else
                          M         bsf     PCLATH, 4
                          M           endif
                          M         endif
                          M       else
                          M         if ((SEROUT) > $)
                          M           if (CODE_SIZE > 2)
                          M             if (((SEROUT) & 800h) == 0)
                          M         bcf     PCLATH, 3
                          M             else
                          M         bsf     PCLATH, 3
                          M             endif
                          M           endif
                          M           if (CODE_SIZE > 4)
                          M             if (((SEROUT) & 1000h) == 0)
                          M         bcf     PCLATH, 4
                          M             else
                          M         bsf     PCLATH, 4
                          M             endif
                          M           endif
                          M         else
                          M           if (CODE_SIZE > 2)
                          M             if (((SEROUT) & 1800h) == 0)
0195   018A               M         clrf    PCLATH
                          M             else
                          M               if (((SEROUT) & 800h) == 0)
                          M         bcf     PCLATH, 3
                          M               else
                          M         bsf     PCLATH, 3
                          M               endif
                          M               if (CODE_SIZE > 4)
                          M                 if (((SEROUT) & 1000h) == 0)
                          M         bcf     PCLATH, 4
                          M                 else
                          M         bsf     PCLATH, 4
MPASM 5.75                   I2C SCANNER.ASM   3-19-2018  12:35:42         PAGE 104


LOC  OBJECT CODE     LINE SOURCE TEXT
  VALUE

                          M                 endif   
                          M               endif
                          M             endif
                          M           endif
                          M         endif
                          M       endif
                          M     endif
                          M 
0196   206C               M         call    SEROUT
                      00333 
                      00334 ; C:\USERS\ANDREW MCENTEE\DOCUMENTS\DEVELOPMENT\PBP3\16F688 PROGRAMS\I2C SCANNER.PBP    00066                           gosub CRLF
                      00335         GOSUB?L _CRLF
  0000                    M     local dlabel
                          M     ifdef DEBUG_STACK
                          M         CHK?RP  DEBUG_STACK
                          M       ifdef DEBUG_STACK_ADDR
                          M         bcf     STATUS, C
                          M         rlf     DEBUG_STACK, W
                          M         addlw   DEBUG_STACK_ADDR
                          M         movwf   FSR
                          M         movlw   low (dlabel)
                          M         movwf   INDF
                          M         incf    FSR, F
                          M         movlw   high (dlabel)
                          M         movwf   INDF
                          M       endif
                          M         incf    DEBUG_STACK, F
                          M     endif
                          M         L?CALL  _CRLF
                          M         RST?RP
                          M     if ((PREV_BANK & 1) != 0)
                          M         bcf     STATUS, RP0
                          M     endif
                          M     if ((PREV_BANK & 2) != 0)
                          M         bcf     STATUS, RP1
                          M     endif
  00000000                M PREV_BANK = 0
                          M 
                          M     ifdef USE_LINKER
                          M       if (CODE_SIZE > 2)
                          M         pagesel _CRLF
                          M       endif
                          M     else
                          M       if ((_CRLF) < 1)
                          M         if (CODE_SIZE > 2)
                          M           if (((_CRLF) & 800h) == 0)
                          M         bcf     PCLATH, 3
                          M         else
                          M         bsf     PCLATH, 3
                          M         endif
                          M         endif
                          M         if (CODE_SIZE > 4)
                          M           if (((_CRLF) & 1000h) == 0)
MPASM 5.75                   I2C SCANNER.ASM   3-19-2018  12:35:42         PAGE 105


LOC  OBJECT CODE     LINE SOURCE TEXT
  VALUE

                          M         bcf     PCLATH, 4
                          M           else
                          M         bsf     PCLATH, 4
                          M           endif
                          M         endif
                          M       else
                          M         if ((_CRLF) > $)
                          M           if (CODE_SIZE > 2)
                          M             if (((_CRLF) & 800h) == 0)
0197   118A               M         bcf     PCLATH, 3
                          M             else
                          M         bsf     PCLATH, 3
                          M             endif
                          M           endif
                          M           if (CODE_SIZE > 4)
                          M             if (((_CRLF) & 1000h) == 0)
                          M         bcf     PCLATH, 4
                          M             else
                          M         bsf     PCLATH, 4
                          M             endif
                          M           endif
                          M         else
                          M           if (CODE_SIZE > 2)
                          M             if (((_CRLF) & 1800h) == 0)
                          M         clrf    PCLATH
                          M             else
                          M               if (((_CRLF) & 800h) == 0)
                          M         bcf     PCLATH, 3
                          M               else
                          M         bsf     PCLATH, 3
                          M               endif
                          M               if (CODE_SIZE > 4)
                          M                 if (((_CRLF) & 1000h) == 0)
                          M         bcf     PCLATH, 4
                          M                 else
                          M         bsf     PCLATH, 4
                          M                 endif   
                          M               endif
                          M             endif
                          M           endif
                          M         endif
                          M       endif
                          M     endif
                          M 
0198   222D               M         call    _CRLF
0199                      M dlabel
                      00336 
                      00337 ; C:\USERS\ANDREW MCENTEE\DOCUMENTS\DEVELOPMENT\PBP3\16F688 PROGRAMS\I2C SCANNER.PBP    00067                           endif
                      00338         LABEL?L L00003  
                          M         RST?RP
                          M     if ((PREV_BANK & 1) != 0)
                          M         bcf     STATUS, RP0
                          M     endif
MPASM 5.75                   I2C SCANNER.ASM   3-19-2018  12:35:42         PAGE 106


LOC  OBJECT CODE     LINE SOURCE TEXT
  VALUE

                          M     if ((PREV_BANK & 2) != 0)
                          M         bcf     STATUS, RP1
                          M     endif
  00000000                M PREV_BANK = 0
                          M     ifdef PM_USED
                          M         LALL
                          M L00003
                          M         XALL
                          M     else
0199                      M L00003
                          M     endif
                      00339 
                      00340 ; C:\USERS\ANDREW MCENTEE\DOCUMENTS\DEVELOPMENT\PBP3\16F688 PROGRAMS\I2C SCANNER.PBP    00068                   next I2C_addr
                      00341         NEXT?BCL        _I2C_ADDR, 002h, L00001
                          M     if ((002h) == 1)
                          M         CHK?RP  _I2C_ADDR
                          M       if ((PREV_BANK == 0) & (CODE_SIZE <= 2))
                          M         incfsz  _I2C_ADDR, F
                          M         goto    L00001
                          M       else
                          M         incf    _I2C_ADDR, F
                          M         BIT?GOTO 0, STATUS, Z, L00001
                          M       endif
                          M     else
0199   3002               M         movlw   002h
                          M         CHK?RP  _I2C_ADDR
                          M     if (((_I2C_ADDR) & 180h) == 0)
                          M       if (PREV_BANK == 1)
                          M         bcf     STATUS, RP0
                          M       endif
                          M       if (PREV_BANK == 2)
                          M         bcf     STATUS, RP1
                          M       endif
                          M       if (PREV_BANK == 3)
                          M         bcf     STATUS, RP0
                          M         bcf     STATUS, RP1
                          M       endif
  00000000                M PREV_BANK = 0
                          M     endif
                          M 
                          M     if (((_I2C_ADDR) & 180h) == 80h)
                          M       if (PREV_BANK == 0)
                          M         bsf     STATUS, RP0
                          M       endif
                          M       if (PREV_BANK == 2)
                          M         bsf     STATUS, RP0
                          M         bcf     STATUS, RP1
                          M       endif
                          M       if (PREV_BANK == 3)
                          M         bcf     STATUS, RP1
                          M       endif
                          M PREV_BANK = 1
                          M     endif
MPASM 5.75                   I2C SCANNER.ASM   3-19-2018  12:35:42         PAGE 107


LOC  OBJECT CODE     LINE SOURCE TEXT
  VALUE

                          M 
                          M     if (((_I2C_ADDR) & 180h) == 100h)
                          M       if (PREV_BANK == 0)
                          M         bsf     STATUS, RP1
                          M       endif
                          M       if (PREV_BANK == 1)
                          M         bcf     STATUS, RP0
                          M         bsf     STATUS, RP1
                          M       endif
                          M       if (PREV_BANK == 3)
                          M         bcf     STATUS, RP0
                          M       endif
                          M PREV_BANK = 2
                          M     endif
                          M 
                          M     if (((_I2C_ADDR) & 180h) == 180h)
                          M       if (PREV_BANK == 0)
                          M         bsf     STATUS, RP0
                          M         bsf     STATUS, RP1
                          M       endif
                          M       if (PREV_BANK == 1)
                          M         bsf     STATUS, RP1
                          M       endif
                          M       if (PREV_BANK == 2)
                          M         bsf     STATUS, RP0
                          M       endif
                          M PREV_BANK = 3
                          M     endif
019A   07BC               M         addwf   _I2C_ADDR, F
                          M       if ((002h) <= 255)
                          M         BIT?GOTO 0, STATUS, C, L00001
                          M     ifdef USE_LINKER
                          M         CLRWDT?
                          M     else
                          M       if ($ == (L00001))
                          M         CLRWDT?
                          M       endif
                          M     endif
                          M 
                          M     ifdef USE_LINKER
                          M       if (CODE_SIZE > 2)
                          M         pagesel L00001
                          M       endif
                          M     else
                          M       if (CODE_SIZE > 2)
                          M         if (((L00001) & 800h) == 0)
019B   118A               M         bcf     PCLATH, 3
                          M         else
                          M         bsf     PCLATH, 3
                          M         endif
                          M       endif
                          M       if (CODE_SIZE > 4)
                          M         if (((L00001) & 1000h) == 0)
MPASM 5.75                   I2C SCANNER.ASM   3-19-2018  12:35:42         PAGE 108


LOC  OBJECT CODE     LINE SOURCE TEXT
  VALUE

                          M         bcf     PCLATH, 4
                          M         else
                          M         bsf     PCLATH, 4
                          M         endif
                          M       endif
                          M     endif
                          M 
                          M     if (((STATUS) & 0ff80h) != 0)
                          M         CHK?RP  STATUS
                          M         bcf     STATUS, DC
                          M       if ((0)      == 0)
                          M         btfss   STATUS, C
                          M       else
                          M         btfsc   STATUS, C
                          M       endif
                          M         bsf     STATUS, DC
                          M         RST?RP
                          M         btfsc   STATUS, DC
                          M     else
                          M         RST?RP
                          M     if ((PREV_BANK & 1) != 0)
                          M         bcf     STATUS, RP0
                          M     endif
                          M     if ((PREV_BANK & 2) != 0)
                          M         bcf     STATUS, RP1
                          M     endif
  00000000                M PREV_BANK = 0
                          M       if ((0)      == 0)
019C   1C03               M         btfss   STATUS, C
                          M       else
                          M         btfsc   STATUS, C
                          M       endif
                          M     endif
                          M 
019D   2959               M         goto    L00001
                          M       endif
                          M     endif
                      00342         LABEL?L L00002  
                          M         RST?RP
                          M     if ((PREV_BANK & 1) != 0)
                          M         bcf     STATUS, RP0
                          M     endif
                          M     if ((PREV_BANK & 2) != 0)
                          M         bcf     STATUS, RP1
                          M     endif
  00000000                M PREV_BANK = 0
                          M     ifdef PM_USED
                          M         LALL
                          M L00002
                          M         XALL
                          M     else
019E                      M L00002
                          M     endif
MPASM 5.75                   I2C SCANNER.ASM   3-19-2018  12:35:42         PAGE 109


LOC  OBJECT CODE     LINE SOURCE TEXT
  VALUE

                      00343 
                      00344 ; C:\USERS\ANDREW MCENTEE\DOCUMENTS\DEVELOPMENT\PBP3\16F688 PROGRAMS\I2C SCANNER.PBP    00069           if COUNTER = 0 then
                      00345         CMPNE?BCL       _COUNTER, 000h, L00007
                          M     if (((000h) > -100h) & ((000h) < 100h))
                          M         CLRWDT?
                          M     ifndef NO_CLRWDT
019E   0064               M         clrwdt
                          M     endif
                          M         MOVE?BA _COUNTER
                          M         CHK?RP  _COUNTER
                          M     if (((_COUNTER) & 180h) == 0)
                          M       if (PREV_BANK == 1)
                          M         bcf     STATUS, RP0
                          M       endif
                          M       if (PREV_BANK == 2)
                          M         bcf     STATUS, RP1
                          M       endif
                          M       if (PREV_BANK == 3)
                          M         bcf     STATUS, RP0
                          M         bcf     STATUS, RP1
                          M       endif
  00000000                M PREV_BANK = 0
                          M     endif
                          M 
                          M     if (((_COUNTER) & 180h) == 80h)
                          M       if (PREV_BANK == 0)
                          M         bsf     STATUS, RP0
                          M       endif
                          M       if (PREV_BANK == 2)
                          M         bsf     STATUS, RP0
                          M         bcf     STATUS, RP1
                          M       endif
                          M       if (PREV_BANK == 3)
                          M         bcf     STATUS, RP1
                          M       endif
                          M PREV_BANK = 1
                          M     endif
                          M 
                          M     if (((_COUNTER) & 180h) == 100h)
                          M       if (PREV_BANK == 0)
                          M         bsf     STATUS, RP1
                          M       endif
                          M       if (PREV_BANK == 1)
                          M         bcf     STATUS, RP0
                          M         bsf     STATUS, RP1
                          M       endif
                          M       if (PREV_BANK == 3)
                          M         bcf     STATUS, RP0
                          M       endif
                          M PREV_BANK = 2
                          M     endif
                          M 
                          M     if (((_COUNTER) & 180h) == 180h)
MPASM 5.75                   I2C SCANNER.ASM   3-19-2018  12:35:42         PAGE 110


LOC  OBJECT CODE     LINE SOURCE TEXT
  VALUE

                          M       if (PREV_BANK == 0)
                          M         bsf     STATUS, RP0
                          M         bsf     STATUS, RP1
                          M       endif
                          M       if (PREV_BANK == 1)
                          M         bsf     STATUS, RP1
                          M       endif
                          M       if (PREV_BANK == 2)
                          M         bsf     STATUS, RP0
                          M       endif
                          M PREV_BANK = 3
                          M     endif
019F   083A               M         movf    _COUNTER, W
01A0   3C00               M         sublw   000h
                          M         BIT?GOTO 0, STATUS, Z, L00007
                          M     ifdef USE_LINKER
                          M         CLRWDT?
                          M     else
                          M       if ($ == (L00007))
                          M         CLRWDT?
                          M       endif
                          M     endif
                          M 
                          M     ifdef USE_LINKER
                          M       if (CODE_SIZE > 2)
                          M         pagesel L00007
                          M       endif
                          M     else
                          M       if (CODE_SIZE > 2)
                          M         if (((L00007) & 800h) == 0)
01A1   118A               M         bcf     PCLATH, 3
                          M         else
                          M         bsf     PCLATH, 3
                          M         endif
                          M       endif
                          M       if (CODE_SIZE > 4)
                          M         if (((L00007) & 1000h) == 0)
                          M         bcf     PCLATH, 4
                          M         else
                          M         bsf     PCLATH, 4
                          M         endif
                          M       endif
                          M     endif
                          M 
                          M     if (((STATUS) & 0ff80h) != 0)
                          M         CHK?RP  STATUS
                          M         bcf     STATUS, DC
                          M       if ((0)      == 0)
                          M         btfss   STATUS, Z
                          M       else
                          M         btfsc   STATUS, Z
                          M       endif
                          M         bsf     STATUS, DC
MPASM 5.75                   I2C SCANNER.ASM   3-19-2018  12:35:42         PAGE 111


LOC  OBJECT CODE     LINE SOURCE TEXT
  VALUE

                          M         RST?RP
                          M         btfsc   STATUS, DC
                          M     else
                          M         RST?RP
                          M     if ((PREV_BANK & 1) != 0)
                          M         bcf     STATUS, RP0
                          M     endif
                          M     if ((PREV_BANK & 2) != 0)
                          M         bcf     STATUS, RP1
                          M     endif
  00000000                M PREV_BANK = 0
                          M       if ((0)      == 0)
01A2   1D03               M         btfss   STATUS, Z
                          M       else
                          M         btfsc   STATUS, Z
                          M       endif
                          M     endif
                          M 
01A3   29D7               M         goto    L00007
                          M     else
                          M         L?GOTO  L00007
                          M     endif
                      00346 
                      00347 ; C:\USERS\ANDREW MCENTEE\DOCUMENTS\DEVELOPMENT\PBP3\16F688 PROGRAMS\I2C SCANNER.PBP    00070                   serout dsp,T9600,["No Device Found"]
                      00348         SERPIN?T        _DSP
                          M         BIT?R1  PORTA, 000h
01A4   3005               M         movlw   low ((PORTA) + ((000h)  >> 3))
                          M         CHK?RP  RR1
                          M     if (((RR1)   & 180h) == 0)
                          M       if (PREV_BANK == 1)
                          M         bcf     STATUS, RP0
                          M       endif
                          M       if (PREV_BANK == 2)
                          M         bcf     STATUS, RP1
                          M       endif
                          M       if (PREV_BANK == 3)
                          M         bcf     STATUS, RP0
                          M         bcf     STATUS, RP1
                          M       endif
  00000000                M PREV_BANK = 0
                          M     endif
                          M 
                          M     if (((RR1)   & 180h) == 80h)
                          M       if (PREV_BANK == 0)
                          M         bsf     STATUS, RP0
                          M       endif
                          M       if (PREV_BANK == 2)
                          M         bsf     STATUS, RP0
                          M         bcf     STATUS, RP1
                          M       endif
                          M       if (PREV_BANK == 3)
                          M         bcf     STATUS, RP1
                          M       endif
MPASM 5.75                   I2C SCANNER.ASM   3-19-2018  12:35:42         PAGE 112


LOC  OBJECT CODE     LINE SOURCE TEXT
  VALUE

                          M PREV_BANK = 1
                          M     endif
                          M 
                          M     if (((RR1)   & 180h) == 100h)
                          M       if (PREV_BANK == 0)
                          M         bsf     STATUS, RP1
                          M       endif
                          M       if (PREV_BANK == 1)
                          M         bcf     STATUS, RP0
                          M         bsf     STATUS, RP1
                          M       endif
                          M       if (PREV_BANK == 3)
                          M         bcf     STATUS, RP0
                          M       endif
                          M PREV_BANK = 2
                          M     endif
                          M 
                          M     if (((RR1)   & 180h) == 180h)
                          M       if (PREV_BANK == 0)
                          M         bsf     STATUS, RP0
                          M         bsf     STATUS, RP1
                          M       endif
                          M       if (PREV_BANK == 1)
                          M         bsf     STATUS, RP1
                          M       endif
                          M       if (PREV_BANK == 2)
                          M         bsf     STATUS, RP0
                          M       endif
                          M PREV_BANK = 3
                          M     endif
01A5   00B6               M         movwf   RR1
                          M         BIT?W   000h
                          M     if (((000h)  & 7) == 0)
01A6   3001               M         movlw   01h
                          M     endif
                          M     if (((000h)  & 7) == 1)
                          M         movlw   02h
                          M     endif
                          M     if (((000h)  & 7) == 2)
                          M         movlw   04h
                          M     endif
                          M     if (((000h)  & 7) == 3)
                          M         movlw   08h
                          M     endif
                          M     if (((000h)  & 7) == 4)
                          M         movlw   10h
                          M     endif
                          M     if (((000h)  & 7) == 5)
                          M         movlw   20h
                          M     endif
                          M     if (((000h)  & 7) == 6)
                          M         movlw   40h
                          M     endif
MPASM 5.75                   I2C SCANNER.ASM   3-19-2018  12:35:42         PAGE 113


LOC  OBJECT CODE     LINE SOURCE TEXT
  VALUE

                          M     if (((000h)  & 7) == 7)
                          M         movlw   80h
                          M     endif
01A7   00B4               M         movwf   RM1
                      00349         SERMODE?C       _T9600
                          M         MOVE?CB _T9600, GOP
                          M         CHK?RP  GOP
                          M     if (((GOP)   & 180h) == 0)
                          M       if (PREV_BANK == 1)
                          M         bcf     STATUS, RP0
                          M       endif
                          M       if (PREV_BANK == 2)
                          M         bcf     STATUS, RP1
                          M       endif
                          M       if (PREV_BANK == 3)
                          M         bcf     STATUS, RP0
                          M         bcf     STATUS, RP1
                          M       endif
  00000000                M PREV_BANK = 0
                          M     endif
                          M 
                          M     if (((GOP)   & 180h) == 80h)
                          M       if (PREV_BANK == 0)
                          M         bsf     STATUS, RP0
                          M       endif
                          M       if (PREV_BANK == 2)
                          M         bsf     STATUS, RP0
                          M         bcf     STATUS, RP1
                          M       endif
                          M       if (PREV_BANK == 3)
                          M         bcf     STATUS, RP1
                          M       endif
                          M PREV_BANK = 1
                          M     endif
                          M 
                          M     if (((GOP)   & 180h) == 100h)
                          M       if (PREV_BANK == 0)
                          M         bsf     STATUS, RP1
                          M       endif
                          M       if (PREV_BANK == 1)
                          M         bcf     STATUS, RP0
                          M         bsf     STATUS, RP1
                          M       endif
                          M       if (PREV_BANK == 3)
                          M         bcf     STATUS, RP0
                          M       endif
                          M PREV_BANK = 2
                          M     endif
                          M 
                          M     if (((GOP)   & 180h) == 180h)
                          M       if (PREV_BANK == 0)
                          M         bsf     STATUS, RP0
                          M         bsf     STATUS, RP1
MPASM 5.75                   I2C SCANNER.ASM   3-19-2018  12:35:42         PAGE 114


LOC  OBJECT CODE     LINE SOURCE TEXT
  VALUE

                          M       endif
                          M       if (PREV_BANK == 1)
                          M         bsf     STATUS, RP1
                          M       endif
                          M       if (PREV_BANK == 2)
                          M         bsf     STATUS, RP0
                          M       endif
                          M PREV_BANK = 3
                          M     endif
                          M     if (low (_T9600) == 0)
                          M         clrf    GOP
                          M     else
01A8   3002               M         movlw   low (_T9600)
01A9   00B3               M         movwf   GOP
                          M     endif
                      00350         SEROUT?C        04Eh
01AA   304E               M         movlw   04Eh
                          M         L?CALL  SEROUT
                          M         RST?RP
                          M     if ((PREV_BANK & 1) != 0)
                          M         bcf     STATUS, RP0
                          M     endif
                          M     if ((PREV_BANK & 2) != 0)
                          M         bcf     STATUS, RP1
                          M     endif
  00000000                M PREV_BANK = 0
                          M 
                          M     ifdef USE_LINKER
                          M       if (CODE_SIZE > 2)
                          M         pagesel SEROUT
                          M       endif
                          M     else
                          M       if ((SEROUT) < 1)
                          M         if (CODE_SIZE > 2)
                          M           if (((SEROUT) & 800h) == 0)
                          M         bcf     PCLATH, 3
                          M         else
                          M         bsf     PCLATH, 3
                          M         endif
                          M         endif
                          M         if (CODE_SIZE > 4)
                          M           if (((SEROUT) & 1000h) == 0)
                          M         bcf     PCLATH, 4
                          M           else
                          M         bsf     PCLATH, 4
                          M           endif
                          M         endif
                          M       else
                          M         if ((SEROUT) > $)
                          M           if (CODE_SIZE > 2)
                          M             if (((SEROUT) & 800h) == 0)
                          M         bcf     PCLATH, 3
                          M             else
MPASM 5.75                   I2C SCANNER.ASM   3-19-2018  12:35:42         PAGE 115


LOC  OBJECT CODE     LINE SOURCE TEXT
  VALUE

                          M         bsf     PCLATH, 3
                          M             endif
                          M           endif
                          M           if (CODE_SIZE > 4)
                          M             if (((SEROUT) & 1000h) == 0)
                          M         bcf     PCLATH, 4
                          M             else
                          M         bsf     PCLATH, 4
                          M             endif
                          M           endif
                          M         else
                          M           if (CODE_SIZE > 2)
                          M             if (((SEROUT) & 1800h) == 0)
01AB   018A               M         clrf    PCLATH
                          M             else
                          M               if (((SEROUT) & 800h) == 0)
                          M         bcf     PCLATH, 3
                          M               else
                          M         bsf     PCLATH, 3
                          M               endif
                          M               if (CODE_SIZE > 4)
                          M                 if (((SEROUT) & 1000h) == 0)
                          M         bcf     PCLATH, 4
                          M                 else
                          M         bsf     PCLATH, 4
                          M                 endif   
                          M               endif
                          M             endif
                          M           endif
                          M         endif
                          M       endif
                          M     endif
                          M 
01AC   206C               M         call    SEROUT
                      00351         SEROUT?C        06Fh
01AD   306F               M         movlw   06Fh
                          M         L?CALL  SEROUT
                          M         RST?RP
                          M     if ((PREV_BANK & 1) != 0)
                          M         bcf     STATUS, RP0
                          M     endif
                          M     if ((PREV_BANK & 2) != 0)
                          M         bcf     STATUS, RP1
                          M     endif
  00000000                M PREV_BANK = 0
                          M 
                          M     ifdef USE_LINKER
                          M       if (CODE_SIZE > 2)
                          M         pagesel SEROUT
                          M       endif
                          M     else
                          M       if ((SEROUT) < 1)
                          M         if (CODE_SIZE > 2)
MPASM 5.75                   I2C SCANNER.ASM   3-19-2018  12:35:42         PAGE 116


LOC  OBJECT CODE     LINE SOURCE TEXT
  VALUE

                          M           if (((SEROUT) & 800h) == 0)
                          M         bcf     PCLATH, 3
                          M         else
                          M         bsf     PCLATH, 3
                          M         endif
                          M         endif
                          M         if (CODE_SIZE > 4)
                          M           if (((SEROUT) & 1000h) == 0)
                          M         bcf     PCLATH, 4
                          M           else
                          M         bsf     PCLATH, 4
                          M           endif
                          M         endif
                          M       else
                          M         if ((SEROUT) > $)
                          M           if (CODE_SIZE > 2)
                          M             if (((SEROUT) & 800h) == 0)
                          M         bcf     PCLATH, 3
                          M             else
                          M         bsf     PCLATH, 3
                          M             endif
                          M           endif
                          M           if (CODE_SIZE > 4)
                          M             if (((SEROUT) & 1000h) == 0)
                          M         bcf     PCLATH, 4
                          M             else
                          M         bsf     PCLATH, 4
                          M             endif
                          M           endif
                          M         else
                          M           if (CODE_SIZE > 2)
                          M             if (((SEROUT) & 1800h) == 0)
01AE   018A               M         clrf    PCLATH
                          M             else
                          M               if (((SEROUT) & 800h) == 0)
                          M         bcf     PCLATH, 3
                          M               else
                          M         bsf     PCLATH, 3
                          M               endif
                          M               if (CODE_SIZE > 4)
                          M                 if (((SEROUT) & 1000h) == 0)
                          M         bcf     PCLATH, 4
                          M                 else
                          M         bsf     PCLATH, 4
                          M                 endif   
                          M               endif
                          M             endif
                          M           endif
                          M         endif
                          M       endif
                          M     endif
                          M 
01AF   206C               M         call    SEROUT
MPASM 5.75                   I2C SCANNER.ASM   3-19-2018  12:35:42         PAGE 117


LOC  OBJECT CODE     LINE SOURCE TEXT
  VALUE

                      00352         SEROUT?C        020h
01B0   3020               M         movlw   020h
                          M         L?CALL  SEROUT
                          M         RST?RP
                          M     if ((PREV_BANK & 1) != 0)
                          M         bcf     STATUS, RP0
                          M     endif
                          M     if ((PREV_BANK & 2) != 0)
                          M         bcf     STATUS, RP1
                          M     endif
  00000000                M PREV_BANK = 0
                          M 
                          M     ifdef USE_LINKER
                          M       if (CODE_SIZE > 2)
                          M         pagesel SEROUT
                          M       endif
                          M     else
                          M       if ((SEROUT) < 1)
                          M         if (CODE_SIZE > 2)
                          M           if (((SEROUT) & 800h) == 0)
                          M         bcf     PCLATH, 3
                          M         else
                          M         bsf     PCLATH, 3
                          M         endif
                          M         endif
                          M         if (CODE_SIZE > 4)
                          M           if (((SEROUT) & 1000h) == 0)
                          M         bcf     PCLATH, 4
                          M           else
                          M         bsf     PCLATH, 4
                          M           endif
                          M         endif
                          M       else
                          M         if ((SEROUT) > $)
                          M           if (CODE_SIZE > 2)
                          M             if (((SEROUT) & 800h) == 0)
                          M         bcf     PCLATH, 3
                          M             else
                          M         bsf     PCLATH, 3
                          M             endif
                          M           endif
                          M           if (CODE_SIZE > 4)
                          M             if (((SEROUT) & 1000h) == 0)
                          M         bcf     PCLATH, 4
                          M             else
                          M         bsf     PCLATH, 4
                          M             endif
                          M           endif
                          M         else
                          M           if (CODE_SIZE > 2)
                          M             if (((SEROUT) & 1800h) == 0)
01B1   018A               M         clrf    PCLATH
                          M             else
MPASM 5.75                   I2C SCANNER.ASM   3-19-2018  12:35:42         PAGE 118


LOC  OBJECT CODE     LINE SOURCE TEXT
  VALUE

                          M               if (((SEROUT) & 800h) == 0)
                          M         bcf     PCLATH, 3
                          M               else
                          M         bsf     PCLATH, 3
                          M               endif
                          M               if (CODE_SIZE > 4)
                          M                 if (((SEROUT) & 1000h) == 0)
                          M         bcf     PCLATH, 4
                          M                 else
                          M         bsf     PCLATH, 4
                          M                 endif   
                          M               endif
                          M             endif
                          M           endif
                          M         endif
                          M       endif
                          M     endif
                          M 
01B2   206C               M         call    SEROUT
                      00353         SEROUT?C        044h
01B3   3044               M         movlw   044h
                          M         L?CALL  SEROUT
                          M         RST?RP
                          M     if ((PREV_BANK & 1) != 0)
                          M         bcf     STATUS, RP0
                          M     endif
                          M     if ((PREV_BANK & 2) != 0)
                          M         bcf     STATUS, RP1
                          M     endif
  00000000                M PREV_BANK = 0
                          M 
                          M     ifdef USE_LINKER
                          M       if (CODE_SIZE > 2)
                          M         pagesel SEROUT
                          M       endif
                          M     else
                          M       if ((SEROUT) < 1)
                          M         if (CODE_SIZE > 2)
                          M           if (((SEROUT) & 800h) == 0)
                          M         bcf     PCLATH, 3
                          M         else
                          M         bsf     PCLATH, 3
                          M         endif
                          M         endif
                          M         if (CODE_SIZE > 4)
                          M           if (((SEROUT) & 1000h) == 0)
                          M         bcf     PCLATH, 4
                          M           else
                          M         bsf     PCLATH, 4
                          M           endif
                          M         endif
                          M       else
                          M         if ((SEROUT) > $)
MPASM 5.75                   I2C SCANNER.ASM   3-19-2018  12:35:42         PAGE 119


LOC  OBJECT CODE     LINE SOURCE TEXT
  VALUE

                          M           if (CODE_SIZE > 2)
                          M             if (((SEROUT) & 800h) == 0)
                          M         bcf     PCLATH, 3
                          M             else
                          M         bsf     PCLATH, 3
                          M             endif
                          M           endif
                          M           if (CODE_SIZE > 4)
                          M             if (((SEROUT) & 1000h) == 0)
                          M         bcf     PCLATH, 4
                          M             else
                          M         bsf     PCLATH, 4
                          M             endif
                          M           endif
                          M         else
                          M           if (CODE_SIZE > 2)
                          M             if (((SEROUT) & 1800h) == 0)
01B4   018A               M         clrf    PCLATH
                          M             else
                          M               if (((SEROUT) & 800h) == 0)
                          M         bcf     PCLATH, 3
                          M               else
                          M         bsf     PCLATH, 3
                          M               endif
                          M               if (CODE_SIZE > 4)
                          M                 if (((SEROUT) & 1000h) == 0)
                          M         bcf     PCLATH, 4
                          M                 else
                          M         bsf     PCLATH, 4
                          M                 endif   
                          M               endif
                          M             endif
                          M           endif
                          M         endif
                          M       endif
                          M     endif
                          M 
01B5   206C               M         call    SEROUT
                      00354         SEROUT?C        065h
01B6   3065               M         movlw   065h
                          M         L?CALL  SEROUT
                          M         RST?RP
                          M     if ((PREV_BANK & 1) != 0)
                          M         bcf     STATUS, RP0
                          M     endif
                          M     if ((PREV_BANK & 2) != 0)
                          M         bcf     STATUS, RP1
                          M     endif
  00000000                M PREV_BANK = 0
                          M 
                          M     ifdef USE_LINKER
                          M       if (CODE_SIZE > 2)
                          M         pagesel SEROUT
MPASM 5.75                   I2C SCANNER.ASM   3-19-2018  12:35:42         PAGE 120


LOC  OBJECT CODE     LINE SOURCE TEXT
  VALUE

                          M       endif
                          M     else
                          M       if ((SEROUT) < 1)
                          M         if (CODE_SIZE > 2)
                          M           if (((SEROUT) & 800h) == 0)
                          M         bcf     PCLATH, 3
                          M         else
                          M         bsf     PCLATH, 3
                          M         endif
                          M         endif
                          M         if (CODE_SIZE > 4)
                          M           if (((SEROUT) & 1000h) == 0)
                          M         bcf     PCLATH, 4
                          M           else
                          M         bsf     PCLATH, 4
                          M           endif
                          M         endif
                          M       else
                          M         if ((SEROUT) > $)
                          M           if (CODE_SIZE > 2)
                          M             if (((SEROUT) & 800h) == 0)
                          M         bcf     PCLATH, 3
                          M             else
                          M         bsf     PCLATH, 3
                          M             endif
                          M           endif
                          M           if (CODE_SIZE > 4)
                          M             if (((SEROUT) & 1000h) == 0)
                          M         bcf     PCLATH, 4
                          M             else
                          M         bsf     PCLATH, 4
                          M             endif
                          M           endif
                          M         else
                          M           if (CODE_SIZE > 2)
                          M             if (((SEROUT) & 1800h) == 0)
01B7   018A               M         clrf    PCLATH
                          M             else
                          M               if (((SEROUT) & 800h) == 0)
                          M         bcf     PCLATH, 3
                          M               else
                          M         bsf     PCLATH, 3
                          M               endif
                          M               if (CODE_SIZE > 4)
                          M                 if (((SEROUT) & 1000h) == 0)
                          M         bcf     PCLATH, 4
                          M                 else
                          M         bsf     PCLATH, 4
                          M                 endif   
                          M               endif
                          M             endif
                          M           endif
                          M         endif
MPASM 5.75                   I2C SCANNER.ASM   3-19-2018  12:35:42         PAGE 121


LOC  OBJECT CODE     LINE SOURCE TEXT
  VALUE

                          M       endif
                          M     endif
                          M 
01B8   206C               M         call    SEROUT
                      00355         SEROUT?C        076h
01B9   3076               M         movlw   076h
                          M         L?CALL  SEROUT
                          M         RST?RP
                          M     if ((PREV_BANK & 1) != 0)
                          M         bcf     STATUS, RP0
                          M     endif
                          M     if ((PREV_BANK & 2) != 0)
                          M         bcf     STATUS, RP1
                          M     endif
  00000000                M PREV_BANK = 0
                          M 
                          M     ifdef USE_LINKER
                          M       if (CODE_SIZE > 2)
                          M         pagesel SEROUT
                          M       endif
                          M     else
                          M       if ((SEROUT) < 1)
                          M         if (CODE_SIZE > 2)
                          M           if (((SEROUT) & 800h) == 0)
                          M         bcf     PCLATH, 3
                          M         else
                          M         bsf     PCLATH, 3
                          M         endif
                          M         endif
                          M         if (CODE_SIZE > 4)
                          M           if (((SEROUT) & 1000h) == 0)
                          M         bcf     PCLATH, 4
                          M           else
                          M         bsf     PCLATH, 4
                          M           endif
                          M         endif
                          M       else
                          M         if ((SEROUT) > $)
                          M           if (CODE_SIZE > 2)
                          M             if (((SEROUT) & 800h) == 0)
                          M         bcf     PCLATH, 3
                          M             else
                          M         bsf     PCLATH, 3
                          M             endif
                          M           endif
                          M           if (CODE_SIZE > 4)
                          M             if (((SEROUT) & 1000h) == 0)
                          M         bcf     PCLATH, 4
                          M             else
                          M         bsf     PCLATH, 4
                          M             endif
                          M           endif
                          M         else
MPASM 5.75                   I2C SCANNER.ASM   3-19-2018  12:35:42         PAGE 122


LOC  OBJECT CODE     LINE SOURCE TEXT
  VALUE

                          M           if (CODE_SIZE > 2)
                          M             if (((SEROUT) & 1800h) == 0)
01BA   018A               M         clrf    PCLATH
                          M             else
                          M               if (((SEROUT) & 800h) == 0)
                          M         bcf     PCLATH, 3
                          M               else
                          M         bsf     PCLATH, 3
                          M               endif
                          M               if (CODE_SIZE > 4)
                          M                 if (((SEROUT) & 1000h) == 0)
                          M         bcf     PCLATH, 4
                          M                 else
                          M         bsf     PCLATH, 4
                          M                 endif   
                          M               endif
                          M             endif
                          M           endif
                          M         endif
                          M       endif
                          M     endif
                          M 
01BB   206C               M         call    SEROUT
                      00356         SEROUT?C        069h
01BC   3069               M         movlw   069h
                          M         L?CALL  SEROUT
                          M         RST?RP
                          M     if ((PREV_BANK & 1) != 0)
                          M         bcf     STATUS, RP0
                          M     endif
                          M     if ((PREV_BANK & 2) != 0)
                          M         bcf     STATUS, RP1
                          M     endif
  00000000                M PREV_BANK = 0
                          M 
                          M     ifdef USE_LINKER
                          M       if (CODE_SIZE > 2)
                          M         pagesel SEROUT
                          M       endif
                          M     else
                          M       if ((SEROUT) < 1)
                          M         if (CODE_SIZE > 2)
                          M           if (((SEROUT) & 800h) == 0)
                          M         bcf     PCLATH, 3
                          M         else
                          M         bsf     PCLATH, 3
                          M         endif
                          M         endif
                          M         if (CODE_SIZE > 4)
                          M           if (((SEROUT) & 1000h) == 0)
                          M         bcf     PCLATH, 4
                          M           else
                          M         bsf     PCLATH, 4
MPASM 5.75                   I2C SCANNER.ASM   3-19-2018  12:35:42         PAGE 123


LOC  OBJECT CODE     LINE SOURCE TEXT
  VALUE

                          M           endif
                          M         endif
                          M       else
                          M         if ((SEROUT) > $)
                          M           if (CODE_SIZE > 2)
                          M             if (((SEROUT) & 800h) == 0)
                          M         bcf     PCLATH, 3
                          M             else
                          M         bsf     PCLATH, 3
                          M             endif
                          M           endif
                          M           if (CODE_SIZE > 4)
                          M             if (((SEROUT) & 1000h) == 0)
                          M         bcf     PCLATH, 4
                          M             else
                          M         bsf     PCLATH, 4
                          M             endif
                          M           endif
                          M         else
                          M           if (CODE_SIZE > 2)
                          M             if (((SEROUT) & 1800h) == 0)
01BD   018A               M         clrf    PCLATH
                          M             else
                          M               if (((SEROUT) & 800h) == 0)
                          M         bcf     PCLATH, 3
                          M               else
                          M         bsf     PCLATH, 3
                          M               endif
                          M               if (CODE_SIZE > 4)
                          M                 if (((SEROUT) & 1000h) == 0)
                          M         bcf     PCLATH, 4
                          M                 else
                          M         bsf     PCLATH, 4
                          M                 endif   
                          M               endif
                          M             endif
                          M           endif
                          M         endif
                          M       endif
                          M     endif
                          M 
01BE   206C               M         call    SEROUT
                      00357         SEROUT?C        063h
01BF   3063               M         movlw   063h
                          M         L?CALL  SEROUT
                          M         RST?RP
                          M     if ((PREV_BANK & 1) != 0)
                          M         bcf     STATUS, RP0
                          M     endif
                          M     if ((PREV_BANK & 2) != 0)
                          M         bcf     STATUS, RP1
                          M     endif
  00000000                M PREV_BANK = 0
MPASM 5.75                   I2C SCANNER.ASM   3-19-2018  12:35:42         PAGE 124


LOC  OBJECT CODE     LINE SOURCE TEXT
  VALUE

                          M 
                          M     ifdef USE_LINKER
                          M       if (CODE_SIZE > 2)
                          M         pagesel SEROUT
                          M       endif
                          M     else
                          M       if ((SEROUT) < 1)
                          M         if (CODE_SIZE > 2)
                          M           if (((SEROUT) & 800h) == 0)
                          M         bcf     PCLATH, 3
                          M         else
                          M         bsf     PCLATH, 3
                          M         endif
                          M         endif
                          M         if (CODE_SIZE > 4)
                          M           if (((SEROUT) & 1000h) == 0)
                          M         bcf     PCLATH, 4
                          M           else
                          M         bsf     PCLATH, 4
                          M           endif
                          M         endif
                          M       else
                          M         if ((SEROUT) > $)
                          M           if (CODE_SIZE > 2)
                          M             if (((SEROUT) & 800h) == 0)
                          M         bcf     PCLATH, 3
                          M             else
                          M         bsf     PCLATH, 3
                          M             endif
                          M           endif
                          M           if (CODE_SIZE > 4)
                          M             if (((SEROUT) & 1000h) == 0)
                          M         bcf     PCLATH, 4
                          M             else
                          M         bsf     PCLATH, 4
                          M             endif
                          M           endif
                          M         else
                          M           if (CODE_SIZE > 2)
                          M             if (((SEROUT) & 1800h) == 0)
01C0   018A               M         clrf    PCLATH
                          M             else
                          M               if (((SEROUT) & 800h) == 0)
                          M         bcf     PCLATH, 3
                          M               else
                          M         bsf     PCLATH, 3
                          M               endif
                          M               if (CODE_SIZE > 4)
                          M                 if (((SEROUT) & 1000h) == 0)
                          M         bcf     PCLATH, 4
                          M                 else
                          M         bsf     PCLATH, 4
                          M                 endif   
MPASM 5.75                   I2C SCANNER.ASM   3-19-2018  12:35:42         PAGE 125


LOC  OBJECT CODE     LINE SOURCE TEXT
  VALUE

                          M               endif
                          M             endif
                          M           endif
                          M         endif
                          M       endif
                          M     endif
                          M 
01C1   206C               M         call    SEROUT
                      00358         SEROUT?C        065h
01C2   3065               M         movlw   065h
                          M         L?CALL  SEROUT
                          M         RST?RP
                          M     if ((PREV_BANK & 1) != 0)
                          M         bcf     STATUS, RP0
                          M     endif
                          M     if ((PREV_BANK & 2) != 0)
                          M         bcf     STATUS, RP1
                          M     endif
  00000000                M PREV_BANK = 0
                          M 
                          M     ifdef USE_LINKER
                          M       if (CODE_SIZE > 2)
                          M         pagesel SEROUT
                          M       endif
                          M     else
                          M       if ((SEROUT) < 1)
                          M         if (CODE_SIZE > 2)
                          M           if (((SEROUT) & 800h) == 0)
                          M         bcf     PCLATH, 3
                          M         else
                          M         bsf     PCLATH, 3
                          M         endif
                          M         endif
                          M         if (CODE_SIZE > 4)
                          M           if (((SEROUT) & 1000h) == 0)
                          M         bcf     PCLATH, 4
                          M           else
                          M         bsf     PCLATH, 4
                          M           endif
                          M         endif
                          M       else
                          M         if ((SEROUT) > $)
                          M           if (CODE_SIZE > 2)
                          M             if (((SEROUT) & 800h) == 0)
                          M         bcf     PCLATH, 3
                          M             else
                          M         bsf     PCLATH, 3
                          M             endif
                          M           endif
                          M           if (CODE_SIZE > 4)
                          M             if (((SEROUT) & 1000h) == 0)
                          M         bcf     PCLATH, 4
                          M             else
MPASM 5.75                   I2C SCANNER.ASM   3-19-2018  12:35:42         PAGE 126


LOC  OBJECT CODE     LINE SOURCE TEXT
  VALUE

                          M         bsf     PCLATH, 4
                          M             endif
                          M           endif
                          M         else
                          M           if (CODE_SIZE > 2)
                          M             if (((SEROUT) & 1800h) == 0)
01C3   018A               M         clrf    PCLATH
                          M             else
                          M               if (((SEROUT) & 800h) == 0)
                          M         bcf     PCLATH, 3
                          M               else
                          M         bsf     PCLATH, 3
                          M               endif
                          M               if (CODE_SIZE > 4)
                          M                 if (((SEROUT) & 1000h) == 0)
                          M         bcf     PCLATH, 4
                          M                 else
                          M         bsf     PCLATH, 4
                          M                 endif   
                          M               endif
                          M             endif
                          M           endif
                          M         endif
                          M       endif
                          M     endif
                          M 
01C4   206C               M         call    SEROUT
                      00359         SEROUT?C        020h
01C5   3020               M         movlw   020h
                          M         L?CALL  SEROUT
                          M         RST?RP
                          M     if ((PREV_BANK & 1) != 0)
                          M         bcf     STATUS, RP0
                          M     endif
                          M     if ((PREV_BANK & 2) != 0)
                          M         bcf     STATUS, RP1
                          M     endif
  00000000                M PREV_BANK = 0
                          M 
                          M     ifdef USE_LINKER
                          M       if (CODE_SIZE > 2)
                          M         pagesel SEROUT
                          M       endif
                          M     else
                          M       if ((SEROUT) < 1)
                          M         if (CODE_SIZE > 2)
                          M           if (((SEROUT) & 800h) == 0)
                          M         bcf     PCLATH, 3
                          M         else
                          M         bsf     PCLATH, 3
                          M         endif
                          M         endif
                          M         if (CODE_SIZE > 4)
MPASM 5.75                   I2C SCANNER.ASM   3-19-2018  12:35:42         PAGE 127


LOC  OBJECT CODE     LINE SOURCE TEXT
  VALUE

                          M           if (((SEROUT) & 1000h) == 0)
                          M         bcf     PCLATH, 4
                          M           else
                          M         bsf     PCLATH, 4
                          M           endif
                          M         endif
                          M       else
                          M         if ((SEROUT) > $)
                          M           if (CODE_SIZE > 2)
                          M             if (((SEROUT) & 800h) == 0)
                          M         bcf     PCLATH, 3
                          M             else
                          M         bsf     PCLATH, 3
                          M             endif
                          M           endif
                          M           if (CODE_SIZE > 4)
                          M             if (((SEROUT) & 1000h) == 0)
                          M         bcf     PCLATH, 4
                          M             else
                          M         bsf     PCLATH, 4
                          M             endif
                          M           endif
                          M         else
                          M           if (CODE_SIZE > 2)
                          M             if (((SEROUT) & 1800h) == 0)
01C6   018A               M         clrf    PCLATH
                          M             else
                          M               if (((SEROUT) & 800h) == 0)
                          M         bcf     PCLATH, 3
                          M               else
                          M         bsf     PCLATH, 3
                          M               endif
                          M               if (CODE_SIZE > 4)
                          M                 if (((SEROUT) & 1000h) == 0)
                          M         bcf     PCLATH, 4
                          M                 else
                          M         bsf     PCLATH, 4
                          M                 endif   
                          M               endif
                          M             endif
                          M           endif
                          M         endif
                          M       endif
                          M     endif
                          M 
01C7   206C               M         call    SEROUT
                      00360         SEROUT?C        046h
01C8   3046               M         movlw   046h
                          M         L?CALL  SEROUT
                          M         RST?RP
                          M     if ((PREV_BANK & 1) != 0)
                          M         bcf     STATUS, RP0
                          M     endif
MPASM 5.75                   I2C SCANNER.ASM   3-19-2018  12:35:42         PAGE 128


LOC  OBJECT CODE     LINE SOURCE TEXT
  VALUE

                          M     if ((PREV_BANK & 2) != 0)
                          M         bcf     STATUS, RP1
                          M     endif
  00000000                M PREV_BANK = 0
                          M 
                          M     ifdef USE_LINKER
                          M       if (CODE_SIZE > 2)
                          M         pagesel SEROUT
                          M       endif
                          M     else
                          M       if ((SEROUT) < 1)
                          M         if (CODE_SIZE > 2)
                          M           if (((SEROUT) & 800h) == 0)
                          M         bcf     PCLATH, 3
                          M         else
                          M         bsf     PCLATH, 3
                          M         endif
                          M         endif
                          M         if (CODE_SIZE > 4)
                          M           if (((SEROUT) & 1000h) == 0)
                          M         bcf     PCLATH, 4
                          M           else
                          M         bsf     PCLATH, 4
                          M           endif
                          M         endif
                          M       else
                          M         if ((SEROUT) > $)
                          M           if (CODE_SIZE > 2)
                          M             if (((SEROUT) & 800h) == 0)
                          M         bcf     PCLATH, 3
                          M             else
                          M         bsf     PCLATH, 3
                          M             endif
                          M           endif
                          M           if (CODE_SIZE > 4)
                          M             if (((SEROUT) & 1000h) == 0)
                          M         bcf     PCLATH, 4
                          M             else
                          M         bsf     PCLATH, 4
                          M             endif
                          M           endif
                          M         else
                          M           if (CODE_SIZE > 2)
                          M             if (((SEROUT) & 1800h) == 0)
01C9   018A               M         clrf    PCLATH
                          M             else
                          M               if (((SEROUT) & 800h) == 0)
                          M         bcf     PCLATH, 3
                          M               else
                          M         bsf     PCLATH, 3
                          M               endif
                          M               if (CODE_SIZE > 4)
                          M                 if (((SEROUT) & 1000h) == 0)
MPASM 5.75                   I2C SCANNER.ASM   3-19-2018  12:35:42         PAGE 129


LOC  OBJECT CODE     LINE SOURCE TEXT
  VALUE

                          M         bcf     PCLATH, 4
                          M                 else
                          M         bsf     PCLATH, 4
                          M                 endif   
                          M               endif
                          M             endif
                          M           endif
                          M         endif
                          M       endif
                          M     endif
                          M 
01CA   206C               M         call    SEROUT
                      00361         SEROUT?C        06Fh
01CB   306F               M         movlw   06Fh
                          M         L?CALL  SEROUT
                          M         RST?RP
                          M     if ((PREV_BANK & 1) != 0)
                          M         bcf     STATUS, RP0
                          M     endif
                          M     if ((PREV_BANK & 2) != 0)
                          M         bcf     STATUS, RP1
                          M     endif
  00000000                M PREV_BANK = 0
                          M 
                          M     ifdef USE_LINKER
                          M       if (CODE_SIZE > 2)
                          M         pagesel SEROUT
                          M       endif
                          M     else
                          M       if ((SEROUT) < 1)
                          M         if (CODE_SIZE > 2)
                          M           if (((SEROUT) & 800h) == 0)
                          M         bcf     PCLATH, 3
                          M         else
                          M         bsf     PCLATH, 3
                          M         endif
                          M         endif
                          M         if (CODE_SIZE > 4)
                          M           if (((SEROUT) & 1000h) == 0)
                          M         bcf     PCLATH, 4
                          M           else
                          M         bsf     PCLATH, 4
                          M           endif
                          M         endif
                          M       else
                          M         if ((SEROUT) > $)
                          M           if (CODE_SIZE > 2)
                          M             if (((SEROUT) & 800h) == 0)
                          M         bcf     PCLATH, 3
                          M             else
                          M         bsf     PCLATH, 3
                          M             endif
                          M           endif
MPASM 5.75                   I2C SCANNER.ASM   3-19-2018  12:35:42         PAGE 130


LOC  OBJECT CODE     LINE SOURCE TEXT
  VALUE

                          M           if (CODE_SIZE > 4)
                          M             if (((SEROUT) & 1000h) == 0)
                          M         bcf     PCLATH, 4
                          M             else
                          M         bsf     PCLATH, 4
                          M             endif
                          M           endif
                          M         else
                          M           if (CODE_SIZE > 2)
                          M             if (((SEROUT) & 1800h) == 0)
01CC   018A               M         clrf    PCLATH
                          M             else
                          M               if (((SEROUT) & 800h) == 0)
                          M         bcf     PCLATH, 3
                          M               else
                          M         bsf     PCLATH, 3
                          M               endif
                          M               if (CODE_SIZE > 4)
                          M                 if (((SEROUT) & 1000h) == 0)
                          M         bcf     PCLATH, 4
                          M                 else
                          M         bsf     PCLATH, 4
                          M                 endif   
                          M               endif
                          M             endif
                          M           endif
                          M         endif
                          M       endif
                          M     endif
                          M 
01CD   206C               M         call    SEROUT
                      00362         SEROUT?C        075h
01CE   3075               M         movlw   075h
                          M         L?CALL  SEROUT
                          M         RST?RP
                          M     if ((PREV_BANK & 1) != 0)
                          M         bcf     STATUS, RP0
                          M     endif
                          M     if ((PREV_BANK & 2) != 0)
                          M         bcf     STATUS, RP1
                          M     endif
  00000000                M PREV_BANK = 0
                          M 
                          M     ifdef USE_LINKER
                          M       if (CODE_SIZE > 2)
                          M         pagesel SEROUT
                          M       endif
                          M     else
                          M       if ((SEROUT) < 1)
                          M         if (CODE_SIZE > 2)
                          M           if (((SEROUT) & 800h) == 0)
                          M         bcf     PCLATH, 3
                          M         else
MPASM 5.75                   I2C SCANNER.ASM   3-19-2018  12:35:42         PAGE 131


LOC  OBJECT CODE     LINE SOURCE TEXT
  VALUE

                          M         bsf     PCLATH, 3
                          M         endif
                          M         endif
                          M         if (CODE_SIZE > 4)
                          M           if (((SEROUT) & 1000h) == 0)
                          M         bcf     PCLATH, 4
                          M           else
                          M         bsf     PCLATH, 4
                          M           endif
                          M         endif
                          M       else
                          M         if ((SEROUT) > $)
                          M           if (CODE_SIZE > 2)
                          M             if (((SEROUT) & 800h) == 0)
                          M         bcf     PCLATH, 3
                          M             else
                          M         bsf     PCLATH, 3
                          M             endif
                          M           endif
                          M           if (CODE_SIZE > 4)
                          M             if (((SEROUT) & 1000h) == 0)
                          M         bcf     PCLATH, 4
                          M             else
                          M         bsf     PCLATH, 4
                          M             endif
                          M           endif
                          M         else
                          M           if (CODE_SIZE > 2)
                          M             if (((SEROUT) & 1800h) == 0)
01CF   018A               M         clrf    PCLATH
                          M             else
                          M               if (((SEROUT) & 800h) == 0)
                          M         bcf     PCLATH, 3
                          M               else
                          M         bsf     PCLATH, 3
                          M               endif
                          M               if (CODE_SIZE > 4)
                          M                 if (((SEROUT) & 1000h) == 0)
                          M         bcf     PCLATH, 4
                          M                 else
                          M         bsf     PCLATH, 4
                          M                 endif   
                          M               endif
                          M             endif
                          M           endif
                          M         endif
                          M       endif
                          M     endif
                          M 
01D0   206C               M         call    SEROUT
                      00363         SEROUT?C        06Eh
01D1   306E               M         movlw   06Eh
                          M         L?CALL  SEROUT
MPASM 5.75                   I2C SCANNER.ASM   3-19-2018  12:35:42         PAGE 132


LOC  OBJECT CODE     LINE SOURCE TEXT
  VALUE

                          M         RST?RP
                          M     if ((PREV_BANK & 1) != 0)
                          M         bcf     STATUS, RP0
                          M     endif
                          M     if ((PREV_BANK & 2) != 0)
                          M         bcf     STATUS, RP1
                          M     endif
  00000000                M PREV_BANK = 0
                          M 
                          M     ifdef USE_LINKER
                          M       if (CODE_SIZE > 2)
                          M         pagesel SEROUT
                          M       endif
                          M     else
                          M       if ((SEROUT) < 1)
                          M         if (CODE_SIZE > 2)
                          M           if (((SEROUT) & 800h) == 0)
                          M         bcf     PCLATH, 3
                          M         else
                          M         bsf     PCLATH, 3
                          M         endif
                          M         endif
                          M         if (CODE_SIZE > 4)
                          M           if (((SEROUT) & 1000h) == 0)
                          M         bcf     PCLATH, 4
                          M           else
                          M         bsf     PCLATH, 4
                          M           endif
                          M         endif
                          M       else
                          M         if ((SEROUT) > $)
                          M           if (CODE_SIZE > 2)
                          M             if (((SEROUT) & 800h) == 0)
                          M         bcf     PCLATH, 3
                          M             else
                          M         bsf     PCLATH, 3
                          M             endif
                          M           endif
                          M           if (CODE_SIZE > 4)
                          M             if (((SEROUT) & 1000h) == 0)
                          M         bcf     PCLATH, 4
                          M             else
                          M         bsf     PCLATH, 4
                          M             endif
                          M           endif
                          M         else
                          M           if (CODE_SIZE > 2)
                          M             if (((SEROUT) & 1800h) == 0)
01D2   018A               M         clrf    PCLATH
                          M             else
                          M               if (((SEROUT) & 800h) == 0)
                          M         bcf     PCLATH, 3
                          M               else
MPASM 5.75                   I2C SCANNER.ASM   3-19-2018  12:35:42         PAGE 133


LOC  OBJECT CODE     LINE SOURCE TEXT
  VALUE

                          M         bsf     PCLATH, 3
                          M               endif
                          M               if (CODE_SIZE > 4)
                          M                 if (((SEROUT) & 1000h) == 0)
                          M         bcf     PCLATH, 4
                          M                 else
                          M         bsf     PCLATH, 4
                          M                 endif   
                          M               endif
                          M             endif
                          M           endif
                          M         endif
                          M       endif
                          M     endif
                          M 
01D3   206C               M         call    SEROUT
                      00364         SEROUT?C        064h
01D4   3064               M         movlw   064h
                          M         L?CALL  SEROUT
                          M         RST?RP
                          M     if ((PREV_BANK & 1) != 0)
                          M         bcf     STATUS, RP0
                          M     endif
                          M     if ((PREV_BANK & 2) != 0)
                          M         bcf     STATUS, RP1
                          M     endif
  00000000                M PREV_BANK = 0
                          M 
                          M     ifdef USE_LINKER
                          M       if (CODE_SIZE > 2)
                          M         pagesel SEROUT
                          M       endif
                          M     else
                          M       if ((SEROUT) < 1)
                          M         if (CODE_SIZE > 2)
                          M           if (((SEROUT) & 800h) == 0)
                          M         bcf     PCLATH, 3
                          M         else
                          M         bsf     PCLATH, 3
                          M         endif
                          M         endif
                          M         if (CODE_SIZE > 4)
                          M           if (((SEROUT) & 1000h) == 0)
                          M         bcf     PCLATH, 4
                          M           else
                          M         bsf     PCLATH, 4
                          M           endif
                          M         endif
                          M       else
                          M         if ((SEROUT) > $)
                          M           if (CODE_SIZE > 2)
                          M             if (((SEROUT) & 800h) == 0)
                          M         bcf     PCLATH, 3
MPASM 5.75                   I2C SCANNER.ASM   3-19-2018  12:35:42         PAGE 134


LOC  OBJECT CODE     LINE SOURCE TEXT
  VALUE

                          M             else
                          M         bsf     PCLATH, 3
                          M             endif
                          M           endif
                          M           if (CODE_SIZE > 4)
                          M             if (((SEROUT) & 1000h) == 0)
                          M         bcf     PCLATH, 4
                          M             else
                          M         bsf     PCLATH, 4
                          M             endif
                          M           endif
                          M         else
                          M           if (CODE_SIZE > 2)
                          M             if (((SEROUT) & 1800h) == 0)
01D5   018A               M         clrf    PCLATH
                          M             else
                          M               if (((SEROUT) & 800h) == 0)
                          M         bcf     PCLATH, 3
                          M               else
                          M         bsf     PCLATH, 3
                          M               endif
                          M               if (CODE_SIZE > 4)
                          M                 if (((SEROUT) & 1000h) == 0)
                          M         bcf     PCLATH, 4
                          M                 else
                          M         bsf     PCLATH, 4
                          M                 endif   
                          M               endif
                          M             endif
                          M           endif
                          M         endif
                          M       endif
                          M     endif
                          M 
01D6   206C               M         call    SEROUT
                      00365 
                      00366 ; C:\USERS\ANDREW MCENTEE\DOCUMENTS\DEVELOPMENT\PBP3\16F688 PROGRAMS\I2C SCANNER.PBP    00071                   endif
                      00367         LABEL?L L00007  
                          M         RST?RP
                          M     if ((PREV_BANK & 1) != 0)
                          M         bcf     STATUS, RP0
                          M     endif
                          M     if ((PREV_BANK & 2) != 0)
                          M         bcf     STATUS, RP1
                          M     endif
  00000000                M PREV_BANK = 0
                          M     ifdef PM_USED
                          M         LALL
                          M L00007
                          M         XALL
                          M     else
01D7                      M L00007
                          M     endif
MPASM 5.75                   I2C SCANNER.ASM   3-19-2018  12:35:42         PAGE 135


LOC  OBJECT CODE     LINE SOURCE TEXT
  VALUE

                      00368 
                      00369 ; C:\USERS\ANDREW MCENTEE\DOCUMENTS\DEVELOPMENT\PBP3\16F688 PROGRAMS\I2C SCANNER.PBP    00072           end
                      00370         END?    
  0000                    M     local loop
01D7   0063               M loop    sleep
                          M         L?GOTO  loop
                          M     ifdef USE_LINKER
                          M         CLRWDT?
                          M     else
                          M       if ($ == (_265loop))
                          M         CLRWDT?
                          M       endif
                          M     endif
                          M 
                          M         RST?RP
                          M     if ((PREV_BANK & 1) != 0)
                          M         bcf     STATUS, RP0
                          M     endif
                          M     if ((PREV_BANK & 2) != 0)
                          M         bcf     STATUS, RP1
                          M     endif
  00000000                M PREV_BANK = 0
                          M 
                          M     ifdef USE_LINKER
                          M       if (CODE_SIZE > 2)
                          M         pagesel _265loop
                          M       endif
                          M     else
                          M       if ((_265loop) < 1)
                          M         if (CODE_SIZE > 2)
                          M           if (((_265loop) & 800h) == 0)
                          M         bcf     PCLATH, 3
                          M           else
                          M         bsf     PCLATH, 3
                          M           endif
                          M         endif
                          M         if (CODE_SIZE > 4)
                          M           if (((_265loop) & 1000h) == 0)
                          M         bcf     PCLATH, 4
                          M           else
                          M         bsf     PCLATH, 4
                          M           endif
                          M         endif
                          M       else
                          M         if ((_265loop) > $)
                          M           if (CODE_SIZE > 2)
                          M             if (((_265loop) & 800h) == 0)
                          M         bcf     PCLATH, 3
                          M             else
                          M         bsf     PCLATH, 3
                          M             endif
                          M           endif
                          M           if (CODE_SIZE > 4)
MPASM 5.75                   I2C SCANNER.ASM   3-19-2018  12:35:42         PAGE 136


LOC  OBJECT CODE     LINE SOURCE TEXT
  VALUE

                          M             if (((_265loop) & 1000h) == 0)
                          M         bcf     PCLATH, 4
                          M             else
                          M         bsf     PCLATH, 4
                          M             endif
                          M           endif
                          M         else
                          M           if (CODE_SIZE > 2)
                          M             if (((_265loop) & 1800h) == 0)
01D8   018A               M         clrf    PCLATH
                          M             else
                          M               if (((_265loop) & 800h) == 0)
                          M         bcf     PCLATH, 3
                          M               else
                          M         bsf     PCLATH, 3
                          M               endif
                          M               if (CODE_SIZE > 4)
                          M                 if (((_265loop) & 1000h) == 0)
                          M         bcf     PCLATH, 4
                          M                 else
                          M         bsf     PCLATH, 4
                          M                 endif
                          M               endif
                          M             endif
                          M           endif
                          M         endif
                          M       endif
                          M     endif
                          M 
01D9   29D7               M         goto    _265loop
                      00371 
                      00372 ; C:\USERS\ANDREW MCENTEE\DOCUMENTS\DEVELOPMENT\PBP3\16F688 PROGRAMS\I2C SCANNER.PBP    00074   NOT_FOUND:
                      00373 
                      00374         LABEL?L _Not_found      
                          M         RST?RP
                          M     if ((PREV_BANK & 1) != 0)
                          M         bcf     STATUS, RP0
                          M     endif
                          M     if ((PREV_BANK & 2) != 0)
                          M         bcf     STATUS, RP1
                          M     endif
  00000000                M PREV_BANK = 0
                          M     ifdef PM_USED
                          M         LALL
                          M _Not_found
                          M         XALL
                          M     else
01DA                      M _Not_found
                          M     endif
                      00375 
                      00376 ; C:\USERS\ANDREW MCENTEE\DOCUMENTS\DEVELOPMENT\PBP3\16F688 PROGRAMS\I2C SCANNER.PBP    00075           VALID = 1000
                      00377         MOVE?CW 003E8h, _VALID
                          M     ifdef USE_LINKER
MPASM 5.75                   I2C SCANNER.ASM   3-19-2018  12:35:42         PAGE 137


LOC  OBJECT CODE     LINE SOURCE TEXT
  VALUE

                          M         CHK?RP  _VALID
                          M         movlw   low (003E8h)
                          M         movwf   _VALID
                          M         movlw   high (003E8h)
                          M         movwf   (_VALID) + 1
                          M     else
                          M         MOVE?CB low (003E8h), _VALID
                          M         CHK?RP  _VALID
                          M     if (((_VALID) & 180h) == 0)
                          M       if (PREV_BANK == 1)
                          M         bcf     STATUS, RP0
                          M       endif
                          M       if (PREV_BANK == 2)
                          M         bcf     STATUS, RP1
                          M       endif
                          M       if (PREV_BANK == 3)
                          M         bcf     STATUS, RP0
                          M         bcf     STATUS, RP1
                          M       endif
  00000000                M PREV_BANK = 0
                          M     endif
                          M 
                          M     if (((_VALID) & 180h) == 80h)
                          M       if (PREV_BANK == 0)
                          M         bsf     STATUS, RP0
                          M       endif
                          M       if (PREV_BANK == 2)
                          M         bsf     STATUS, RP0
                          M         bcf     STATUS, RP1
                          M       endif
                          M       if (PREV_BANK == 3)
                          M         bcf     STATUS, RP1
                          M       endif
                          M PREV_BANK = 1
                          M     endif
                          M 
                          M     if (((_VALID) & 180h) == 100h)
                          M       if (PREV_BANK == 0)
                          M         bsf     STATUS, RP1
                          M       endif
                          M       if (PREV_BANK == 1)
                          M         bcf     STATUS, RP0
                          M         bsf     STATUS, RP1
                          M       endif
                          M       if (PREV_BANK == 3)
                          M         bcf     STATUS, RP0
                          M       endif
                          M PREV_BANK = 2
                          M     endif
                          M 
                          M     if (((_VALID) & 180h) == 180h)
                          M       if (PREV_BANK == 0)
                          M         bsf     STATUS, RP0
MPASM 5.75                   I2C SCANNER.ASM   3-19-2018  12:35:42         PAGE 138


LOC  OBJECT CODE     LINE SOURCE TEXT
  VALUE

                          M         bsf     STATUS, RP1
                          M       endif
                          M       if (PREV_BANK == 1)
                          M         bsf     STATUS, RP1
                          M       endif
                          M       if (PREV_BANK == 2)
                          M         bsf     STATUS, RP0
                          M       endif
                          M PREV_BANK = 3
                          M     endif
                          M     if (low (low (003E8h)) == 0)
                          M         clrf    _VALID
                          M     else
01DA   30E8               M         movlw   low (low (003E8h))
01DB   00B8               M         movwf   _VALID
                          M     endif
                          M         MOVE?CB high (003E8h), (_VALID) + 1
                          M         CHK?RP  (_VALID) + 1
                          M     if ((((_VALID) + 1) & 180h) == 0)
                          M       if (PREV_BANK == 1)
                          M         bcf     STATUS, RP0
                          M       endif
                          M       if (PREV_BANK == 2)
                          M         bcf     STATUS, RP1
                          M       endif
                          M       if (PREV_BANK == 3)
                          M         bcf     STATUS, RP0
                          M         bcf     STATUS, RP1
                          M       endif
  00000000                M PREV_BANK = 0
                          M     endif
                          M 
                          M     if ((((_VALID) + 1) & 180h) == 80h)
                          M       if (PREV_BANK == 0)
                          M         bsf     STATUS, RP0
                          M       endif
                          M       if (PREV_BANK == 2)
                          M         bsf     STATUS, RP0
                          M         bcf     STATUS, RP1
                          M       endif
                          M       if (PREV_BANK == 3)
                          M         bcf     STATUS, RP1
                          M       endif
                          M PREV_BANK = 1
                          M     endif
                          M 
                          M     if ((((_VALID) + 1) & 180h) == 100h)
                          M       if (PREV_BANK == 0)
                          M         bsf     STATUS, RP1
                          M       endif
                          M       if (PREV_BANK == 1)
                          M         bcf     STATUS, RP0
                          M         bsf     STATUS, RP1
MPASM 5.75                   I2C SCANNER.ASM   3-19-2018  12:35:42         PAGE 139


LOC  OBJECT CODE     LINE SOURCE TEXT
  VALUE

                          M       endif
                          M       if (PREV_BANK == 3)
                          M         bcf     STATUS, RP0
                          M       endif
                          M PREV_BANK = 2
                          M     endif
                          M 
                          M     if ((((_VALID) + 1) & 180h) == 180h)
                          M       if (PREV_BANK == 0)
                          M         bsf     STATUS, RP0
                          M         bsf     STATUS, RP1
                          M       endif
                          M       if (PREV_BANK == 1)
                          M         bsf     STATUS, RP1
                          M       endif
                          M       if (PREV_BANK == 2)
                          M         bsf     STATUS, RP0
                          M       endif
                          M PREV_BANK = 3
                          M     endif
                          M     if (low (high (003E8h)) == 0)
                          M         clrf    (_VALID) + 1
                          M     else
01DC   3003               M         movlw   low (high (003E8h))
01DD   00B9               M         movwf   (_VALID) + 1
                          M     endif
                          M     endif
                      00378 
                      00379 ; C:\USERS\ANDREW MCENTEE\DOCUMENTS\DEVELOPMENT\PBP3\16F688 PROGRAMS\I2C SCANNER.PBP    00076           goto NEXt_ADDR
                      00380         GOTO?L  _NEXT_ADDR
                          M         L?GOTO  _NEXT_ADDR
                          M     ifdef USE_LINKER
                          M         CLRWDT?
                          M     else
                          M       if ($ == (_NEXT_ADDR))
                          M         CLRWDT?
                          M       endif
                          M     endif
                          M 
                          M         RST?RP
                          M     if ((PREV_BANK & 1) != 0)
                          M         bcf     STATUS, RP0
                          M     endif
                          M     if ((PREV_BANK & 2) != 0)
                          M         bcf     STATUS, RP1
                          M     endif
  00000000                M PREV_BANK = 0
                          M 
                          M     ifdef USE_LINKER
                          M       if (CODE_SIZE > 2)
                          M         pagesel _NEXT_ADDR
                          M       endif
                          M     else
MPASM 5.75                   I2C SCANNER.ASM   3-19-2018  12:35:42         PAGE 140


LOC  OBJECT CODE     LINE SOURCE TEXT
  VALUE

                          M       if ((_NEXT_ADDR) < 1)
                          M         if (CODE_SIZE > 2)
                          M           if (((_NEXT_ADDR) & 800h) == 0)
                          M         bcf     PCLATH, 3
                          M           else
                          M         bsf     PCLATH, 3
                          M           endif
                          M         endif
                          M         if (CODE_SIZE > 4)
                          M           if (((_NEXT_ADDR) & 1000h) == 0)
                          M         bcf     PCLATH, 4
                          M           else
                          M         bsf     PCLATH, 4
                          M           endif
                          M         endif
                          M       else
                          M         if ((_NEXT_ADDR) > $)
                          M           if (CODE_SIZE > 2)
                          M             if (((_NEXT_ADDR) & 800h) == 0)
                          M         bcf     PCLATH, 3
                          M             else
                          M         bsf     PCLATH, 3
                          M             endif
                          M           endif
                          M           if (CODE_SIZE > 4)
                          M             if (((_NEXT_ADDR) & 1000h) == 0)
                          M         bcf     PCLATH, 4
                          M             else
                          M         bsf     PCLATH, 4
                          M             endif
                          M           endif
                          M         else
                          M           if (CODE_SIZE > 2)
                          M             if (((_NEXT_ADDR) & 1800h) == 0)
01DE   018A               M         clrf    PCLATH
                          M             else
                          M               if (((_NEXT_ADDR) & 800h) == 0)
                          M         bcf     PCLATH, 3
                          M               else
                          M         bsf     PCLATH, 3
                          M               endif
                          M               if (CODE_SIZE > 4)
                          M                 if (((_NEXT_ADDR) & 1000h) == 0)
                          M         bcf     PCLATH, 4
                          M                 else
                          M         bsf     PCLATH, 4
                          M                 endif
                          M               endif
                          M             endif
                          M           endif
                          M         endif
                          M       endif
                          M     endif
MPASM 5.75                   I2C SCANNER.ASM   3-19-2018  12:35:42         PAGE 141


LOC  OBJECT CODE     LINE SOURCE TEXT
  VALUE

                          M 
01DF   2976               M         goto    _NEXT_ADDR
                      00381 
                      00382 ; C:\USERS\ANDREW MCENTEE\DOCUMENTS\DEVELOPMENT\PBP3\16F688 PROGRAMS\I2C SCANNER.PBP    00077           return
                      00383         RETURN? 
                          M     ifdef DEBUG_STACK
                          M         CHK?RP  DEBUG_STACK
                          M         decf    DEBUG_STACK, F
                          M     endif
                          M         RST?RP
                          M     if ((PREV_BANK & 1) != 0)
                          M         bcf     STATUS, RP0
                          M     endif
                          M     if ((PREV_BANK & 2) != 0)
                          M         bcf     STATUS, RP1
                          M     endif
  00000000                M PREV_BANK = 0
01E0   0008               M         return
                      00384 
                      00385 ; C:\USERS\ANDREW MCENTEE\DOCUMENTS\DEVELOPMENT\PBP3\16F688 PROGRAMS\I2C SCANNER.PBP    00080   INIT_LCD:
                      00386 
                      00387         LABEL?L _INIT_LCD       
                          M         RST?RP
                          M     if ((PREV_BANK & 1) != 0)
                          M         bcf     STATUS, RP0
                          M     endif
                          M     if ((PREV_BANK & 2) != 0)
                          M         bcf     STATUS, RP1
                          M     endif
  00000000                M PREV_BANK = 0
                          M     ifdef PM_USED
                          M         LALL
                          M _INIT_LCD
                          M         XALL
                          M     else
01E1                      M _INIT_LCD
                          M     endif
                      00388 
                      00389 ; C:\USERS\ANDREW MCENTEE\DOCUMENTS\DEVELOPMENT\PBP3\16F688 PROGRAMS\I2C SCANNER.PBP    00081           gosub CLR:pause 25: gosub CLR
                      00390         GOSUB?L _clr
  0000                    M     local dlabel
                          M     ifdef DEBUG_STACK
                          M         CHK?RP  DEBUG_STACK
                          M       ifdef DEBUG_STACK_ADDR
                          M         bcf     STATUS, C
                          M         rlf     DEBUG_STACK, W
                          M         addlw   DEBUG_STACK_ADDR
                          M         movwf   FSR
                          M         movlw   low (dlabel)
                          M         movwf   INDF
                          M         incf    FSR, F
                          M         movlw   high (dlabel)
                          M         movwf   INDF
MPASM 5.75                   I2C SCANNER.ASM   3-19-2018  12:35:42         PAGE 142


LOC  OBJECT CODE     LINE SOURCE TEXT
  VALUE

                          M       endif
                          M         incf    DEBUG_STACK, F
                          M     endif
                          M         L?CALL  _clr
                          M         RST?RP
                          M     if ((PREV_BANK & 1) != 0)
                          M         bcf     STATUS, RP0
                          M     endif
                          M     if ((PREV_BANK & 2) != 0)
                          M         bcf     STATUS, RP1
                          M     endif
  00000000                M PREV_BANK = 0
                          M 
                          M     ifdef USE_LINKER
                          M       if (CODE_SIZE > 2)
                          M         pagesel _clr
                          M       endif
                          M     else
                          M       if ((_clr)  < 1)
                          M         if (CODE_SIZE > 2)
                          M           if (((_clr)  & 800h) == 0)
                          M         bcf     PCLATH, 3
                          M         else
                          M         bsf     PCLATH, 3
                          M         endif
                          M         endif
                          M         if (CODE_SIZE > 4)
                          M           if (((_clr)  & 1000h) == 0)
                          M         bcf     PCLATH, 4
                          M           else
                          M         bsf     PCLATH, 4
                          M           endif
                          M         endif
                          M       else
                          M         if ((_clr)  > $)
                          M           if (CODE_SIZE > 2)
                          M             if (((_clr)  & 800h) == 0)
01E1   118A               M         bcf     PCLATH, 3
                          M             else
                          M         bsf     PCLATH, 3
                          M             endif
                          M           endif
                          M           if (CODE_SIZE > 4)
                          M             if (((_clr)  & 1000h) == 0)
                          M         bcf     PCLATH, 4
                          M             else
                          M         bsf     PCLATH, 4
                          M             endif
                          M           endif
                          M         else
                          M           if (CODE_SIZE > 2)
                          M             if (((_clr)  & 1800h) == 0)
                          M         clrf    PCLATH
MPASM 5.75                   I2C SCANNER.ASM   3-19-2018  12:35:42         PAGE 143


LOC  OBJECT CODE     LINE SOURCE TEXT
  VALUE

                          M             else
                          M               if (((_clr)  & 800h) == 0)
                          M         bcf     PCLATH, 3
                          M               else
                          M         bsf     PCLATH, 3
                          M               endif
                          M               if (CODE_SIZE > 4)
                          M                 if (((_clr)  & 1000h) == 0)
                          M         bcf     PCLATH, 4
                          M                 else
                          M         bsf     PCLATH, 4
                          M                 endif   
                          M               endif
                          M             endif
                          M           endif
                          M         endif
                          M       endif
                          M     endif
                          M 
01E2   21E9               M         call    _clr
01E3                      M dlabel
                      00391 
                      00392 ; C:\USERS\ANDREW MCENTEE\DOCUMENTS\DEVELOPMENT\PBP3\16F688 PROGRAMS\I2C SCANNER.PBP    00081           gosub CLR:pause 25: gosub CLR
                      00393         PAUSE?C 019h
                          M     if (((019h) >> 8) == 0)
                          M         MOVE?CA 019h
01E3   3019               M         movlw   low (019h)
                          M         L?CALL  PAUSE
                          M         RST?RP
                          M     if ((PREV_BANK & 1) != 0)
                          M         bcf     STATUS, RP0
                          M     endif
                          M     if ((PREV_BANK & 2) != 0)
                          M         bcf     STATUS, RP1
                          M     endif
  00000000                M PREV_BANK = 0
                          M 
                          M     ifdef USE_LINKER
                          M       if (CODE_SIZE > 2)
                          M         pagesel PAUSE
                          M       endif
                          M     else
                          M       if ((PAUSE) < 1)
                          M         if (CODE_SIZE > 2)
                          M           if (((PAUSE) & 800h) == 0)
                          M         bcf     PCLATH, 3
                          M         else
                          M         bsf     PCLATH, 3
                          M         endif
                          M         endif
                          M         if (CODE_SIZE > 4)
                          M           if (((PAUSE) & 1000h) == 0)
                          M         bcf     PCLATH, 4
MPASM 5.75                   I2C SCANNER.ASM   3-19-2018  12:35:42         PAGE 144


LOC  OBJECT CODE     LINE SOURCE TEXT
  VALUE

                          M           else
                          M         bsf     PCLATH, 4
                          M           endif
                          M         endif
                          M       else
                          M         if ((PAUSE) > $)
                          M           if (CODE_SIZE > 2)
                          M             if (((PAUSE) & 800h) == 0)
                          M         bcf     PCLATH, 3
                          M             else
                          M         bsf     PCLATH, 3
                          M             endif
                          M           endif
                          M           if (CODE_SIZE > 4)
                          M             if (((PAUSE) & 1000h) == 0)
                          M         bcf     PCLATH, 4
                          M             else
                          M         bsf     PCLATH, 4
                          M             endif
                          M           endif
                          M         else
                          M           if (CODE_SIZE > 2)
                          M             if (((PAUSE) & 1800h) == 0)
01E4   018A               M         clrf    PCLATH
                          M             else
                          M               if (((PAUSE) & 800h) == 0)
                          M         bcf     PCLATH, 3
                          M               else
                          M         bsf     PCLATH, 3
                          M               endif
                          M               if (CODE_SIZE > 4)
                          M                 if (((PAUSE) & 1000h) == 0)
                          M         bcf     PCLATH, 4
                          M                 else
                          M         bsf     PCLATH, 4
                          M                 endif   
                          M               endif
                          M             endif
                          M           endif
                          M         endif
                          M       endif
                          M     endif
                          M 
01E5   20AB               M         call    PAUSE
                          M     else
                          M         MOVE?CB (019h) >> 8, R1 + 1
                          M         MOVE?CA low (019h)
                          M         L?CALL  PAUSEL
                          M     endif
                      00394 
                      00395 ; C:\USERS\ANDREW MCENTEE\DOCUMENTS\DEVELOPMENT\PBP3\16F688 PROGRAMS\I2C SCANNER.PBP    00081           gosub CLR:pause 25: gosub CLR
                      00396         GOSUB?L _clr
  0000                    M     local dlabel
MPASM 5.75                   I2C SCANNER.ASM   3-19-2018  12:35:42         PAGE 145


LOC  OBJECT CODE     LINE SOURCE TEXT
  VALUE

                          M     ifdef DEBUG_STACK
                          M         CHK?RP  DEBUG_STACK
                          M       ifdef DEBUG_STACK_ADDR
                          M         bcf     STATUS, C
                          M         rlf     DEBUG_STACK, W
                          M         addlw   DEBUG_STACK_ADDR
                          M         movwf   FSR
                          M         movlw   low (dlabel)
                          M         movwf   INDF
                          M         incf    FSR, F
                          M         movlw   high (dlabel)
                          M         movwf   INDF
                          M       endif
                          M         incf    DEBUG_STACK, F
                          M     endif
                          M         L?CALL  _clr
                          M         RST?RP
                          M     if ((PREV_BANK & 1) != 0)
                          M         bcf     STATUS, RP0
                          M     endif
                          M     if ((PREV_BANK & 2) != 0)
                          M         bcf     STATUS, RP1
                          M     endif
  00000000                M PREV_BANK = 0
                          M 
                          M     ifdef USE_LINKER
                          M       if (CODE_SIZE > 2)
                          M         pagesel _clr
                          M       endif
                          M     else
                          M       if ((_clr)  < 1)
                          M         if (CODE_SIZE > 2)
                          M           if (((_clr)  & 800h) == 0)
                          M         bcf     PCLATH, 3
                          M         else
                          M         bsf     PCLATH, 3
                          M         endif
                          M         endif
                          M         if (CODE_SIZE > 4)
                          M           if (((_clr)  & 1000h) == 0)
                          M         bcf     PCLATH, 4
                          M           else
                          M         bsf     PCLATH, 4
                          M           endif
                          M         endif
                          M       else
                          M         if ((_clr)  > $)
                          M           if (CODE_SIZE > 2)
                          M             if (((_clr)  & 800h) == 0)
01E6   118A               M         bcf     PCLATH, 3
                          M             else
                          M         bsf     PCLATH, 3
                          M             endif
MPASM 5.75                   I2C SCANNER.ASM   3-19-2018  12:35:42         PAGE 146


LOC  OBJECT CODE     LINE SOURCE TEXT
  VALUE

                          M           endif
                          M           if (CODE_SIZE > 4)
                          M             if (((_clr)  & 1000h) == 0)
                          M         bcf     PCLATH, 4
                          M             else
                          M         bsf     PCLATH, 4
                          M             endif
                          M           endif
                          M         else
                          M           if (CODE_SIZE > 2)
                          M             if (((_clr)  & 1800h) == 0)
                          M         clrf    PCLATH
                          M             else
                          M               if (((_clr)  & 800h) == 0)
                          M         bcf     PCLATH, 3
                          M               else
                          M         bsf     PCLATH, 3
                          M               endif
                          M               if (CODE_SIZE > 4)
                          M                 if (((_clr)  & 1000h) == 0)
                          M         bcf     PCLATH, 4
                          M                 else
                          M         bsf     PCLATH, 4
                          M                 endif   
                          M               endif
                          M             endif
                          M           endif
                          M         endif
                          M       endif
                          M     endif
                          M 
01E7   21E9               M         call    _clr
01E8                      M dlabel
                      00397 
                      00398 ; C:\USERS\ANDREW MCENTEE\DOCUMENTS\DEVELOPMENT\PBP3\16F688 PROGRAMS\I2C SCANNER.PBP    00082           return
                      00399         RETURN? 
                          M     ifdef DEBUG_STACK
                          M         CHK?RP  DEBUG_STACK
                          M         decf    DEBUG_STACK, F
                          M     endif
                          M         RST?RP
                          M     if ((PREV_BANK & 1) != 0)
                          M         bcf     STATUS, RP0
                          M     endif
                          M     if ((PREV_BANK & 2) != 0)
                          M         bcf     STATUS, RP1
                          M     endif
  00000000                M PREV_BANK = 0
01E8   0008               M         return
                      00400 
                      00401 ; C:\USERS\ANDREW MCENTEE\DOCUMENTS\DEVELOPMENT\PBP3\16F688 PROGRAMS\I2C SCANNER.PBP    00083   CLR:
                      00402 
                      00403         LABEL?L _clr    
MPASM 5.75                   I2C SCANNER.ASM   3-19-2018  12:35:42         PAGE 147


LOC  OBJECT CODE     LINE SOURCE TEXT
  VALUE

                          M         RST?RP
                          M     if ((PREV_BANK & 1) != 0)
                          M         bcf     STATUS, RP0
                          M     endif
                          M     if ((PREV_BANK & 2) != 0)
                          M         bcf     STATUS, RP1
                          M     endif
  00000000                M PREV_BANK = 0
                          M     ifdef PM_USED
                          M         LALL
                          M _clr
                          M         XALL
                          M     else
01E9                      M _clr
                          M     endif
                      00404 
                      00405 ; C:\USERS\ANDREW MCENTEE\DOCUMENTS\DEVELOPMENT\PBP3\16F688 PROGRAMS\I2C SCANNER.PBP    00084       serout DSP,T9600,[$FE,$01]      'Clear LCD and move cursor to home
                      00406         SERPIN?T        _DSP
                          M         BIT?R1  PORTA, 000h
01E9   3005               M         movlw   low ((PORTA) + ((000h)  >> 3))
                          M         CHK?RP  RR1
                          M     if (((RR1)   & 180h) == 0)
                          M       if (PREV_BANK == 1)
                          M         bcf     STATUS, RP0
                          M       endif
                          M       if (PREV_BANK == 2)
                          M         bcf     STATUS, RP1
                          M       endif
                          M       if (PREV_BANK == 3)
                          M         bcf     STATUS, RP0
                          M         bcf     STATUS, RP1
                          M       endif
  00000000                M PREV_BANK = 0
                          M     endif
                          M 
                          M     if (((RR1)   & 180h) == 80h)
                          M       if (PREV_BANK == 0)
                          M         bsf     STATUS, RP0
                          M       endif
                          M       if (PREV_BANK == 2)
                          M         bsf     STATUS, RP0
                          M         bcf     STATUS, RP1
                          M       endif
                          M       if (PREV_BANK == 3)
                          M         bcf     STATUS, RP1
                          M       endif
                          M PREV_BANK = 1
                          M     endif
                          M 
                          M     if (((RR1)   & 180h) == 100h)
                          M       if (PREV_BANK == 0)
                          M         bsf     STATUS, RP1
                          M       endif
MPASM 5.75                   I2C SCANNER.ASM   3-19-2018  12:35:42         PAGE 148


LOC  OBJECT CODE     LINE SOURCE TEXT
  VALUE

                          M       if (PREV_BANK == 1)
                          M         bcf     STATUS, RP0
                          M         bsf     STATUS, RP1
                          M       endif
                          M       if (PREV_BANK == 3)
                          M         bcf     STATUS, RP0
                          M       endif
                          M PREV_BANK = 2
                          M     endif
                          M 
                          M     if (((RR1)   & 180h) == 180h)
                          M       if (PREV_BANK == 0)
                          M         bsf     STATUS, RP0
                          M         bsf     STATUS, RP1
                          M       endif
                          M       if (PREV_BANK == 1)
                          M         bsf     STATUS, RP1
                          M       endif
                          M       if (PREV_BANK == 2)
                          M         bsf     STATUS, RP0
                          M       endif
                          M PREV_BANK = 3
                          M     endif
01EA   00B6               M         movwf   RR1
                          M         BIT?W   000h
                          M     if (((000h)  & 7) == 0)
01EB   3001               M         movlw   01h
                          M     endif
                          M     if (((000h)  & 7) == 1)
                          M         movlw   02h
                          M     endif
                          M     if (((000h)  & 7) == 2)
                          M         movlw   04h
                          M     endif
                          M     if (((000h)  & 7) == 3)
                          M         movlw   08h
                          M     endif
                          M     if (((000h)  & 7) == 4)
                          M         movlw   10h
                          M     endif
                          M     if (((000h)  & 7) == 5)
                          M         movlw   20h
                          M     endif
                          M     if (((000h)  & 7) == 6)
                          M         movlw   40h
                          M     endif
                          M     if (((000h)  & 7) == 7)
                          M         movlw   80h
                          M     endif
01EC   00B4               M         movwf   RM1
                      00407         SERMODE?C       _T9600
                          M         MOVE?CB _T9600, GOP
                          M         CHK?RP  GOP
MPASM 5.75                   I2C SCANNER.ASM   3-19-2018  12:35:42         PAGE 149


LOC  OBJECT CODE     LINE SOURCE TEXT
  VALUE

                          M     if (((GOP)   & 180h) == 0)
                          M       if (PREV_BANK == 1)
                          M         bcf     STATUS, RP0
                          M       endif
                          M       if (PREV_BANK == 2)
                          M         bcf     STATUS, RP1
                          M       endif
                          M       if (PREV_BANK == 3)
                          M         bcf     STATUS, RP0
                          M         bcf     STATUS, RP1
                          M       endif
  00000000                M PREV_BANK = 0
                          M     endif
                          M 
                          M     if (((GOP)   & 180h) == 80h)
                          M       if (PREV_BANK == 0)
                          M         bsf     STATUS, RP0
                          M       endif
                          M       if (PREV_BANK == 2)
                          M         bsf     STATUS, RP0
                          M         bcf     STATUS, RP1
                          M       endif
                          M       if (PREV_BANK == 3)
                          M         bcf     STATUS, RP1
                          M       endif
                          M PREV_BANK = 1
                          M     endif
                          M 
                          M     if (((GOP)   & 180h) == 100h)
                          M       if (PREV_BANK == 0)
                          M         bsf     STATUS, RP1
                          M       endif
                          M       if (PREV_BANK == 1)
                          M         bcf     STATUS, RP0
                          M         bsf     STATUS, RP1
                          M       endif
                          M       if (PREV_BANK == 3)
                          M         bcf     STATUS, RP0
                          M       endif
                          M PREV_BANK = 2
                          M     endif
                          M 
                          M     if (((GOP)   & 180h) == 180h)
                          M       if (PREV_BANK == 0)
                          M         bsf     STATUS, RP0
                          M         bsf     STATUS, RP1
                          M       endif
                          M       if (PREV_BANK == 1)
                          M         bsf     STATUS, RP1
                          M       endif
                          M       if (PREV_BANK == 2)
                          M         bsf     STATUS, RP0
                          M       endif
MPASM 5.75                   I2C SCANNER.ASM   3-19-2018  12:35:42         PAGE 150


LOC  OBJECT CODE     LINE SOURCE TEXT
  VALUE

                          M PREV_BANK = 3
                          M     endif
                          M     if (low (_T9600) == 0)
                          M         clrf    GOP
                          M     else
01ED   3002               M         movlw   low (_T9600)
01EE   00B3               M         movwf   GOP
                          M     endif
                      00408         SEROUT?C        0FEh
01EF   30FE               M         movlw   0FEh
                          M         L?CALL  SEROUT
                          M         RST?RP
                          M     if ((PREV_BANK & 1) != 0)
                          M         bcf     STATUS, RP0
                          M     endif
                          M     if ((PREV_BANK & 2) != 0)
                          M         bcf     STATUS, RP1
                          M     endif
  00000000                M PREV_BANK = 0
                          M 
                          M     ifdef USE_LINKER
                          M       if (CODE_SIZE > 2)
                          M         pagesel SEROUT
                          M       endif
                          M     else
                          M       if ((SEROUT) < 1)
                          M         if (CODE_SIZE > 2)
                          M           if (((SEROUT) & 800h) == 0)
                          M         bcf     PCLATH, 3
                          M         else
                          M         bsf     PCLATH, 3
                          M         endif
                          M         endif
                          M         if (CODE_SIZE > 4)
                          M           if (((SEROUT) & 1000h) == 0)
                          M         bcf     PCLATH, 4
                          M           else
                          M         bsf     PCLATH, 4
                          M           endif
                          M         endif
                          M       else
                          M         if ((SEROUT) > $)
                          M           if (CODE_SIZE > 2)
                          M             if (((SEROUT) & 800h) == 0)
                          M         bcf     PCLATH, 3
                          M             else
                          M         bsf     PCLATH, 3
                          M             endif
                          M           endif
                          M           if (CODE_SIZE > 4)
                          M             if (((SEROUT) & 1000h) == 0)
                          M         bcf     PCLATH, 4
                          M             else
MPASM 5.75                   I2C SCANNER.ASM   3-19-2018  12:35:42         PAGE 151


LOC  OBJECT CODE     LINE SOURCE TEXT
  VALUE

                          M         bsf     PCLATH, 4
                          M             endif
                          M           endif
                          M         else
                          M           if (CODE_SIZE > 2)
                          M             if (((SEROUT) & 1800h) == 0)
01F0   018A               M         clrf    PCLATH
                          M             else
                          M               if (((SEROUT) & 800h) == 0)
                          M         bcf     PCLATH, 3
                          M               else
                          M         bsf     PCLATH, 3
                          M               endif
                          M               if (CODE_SIZE > 4)
                          M                 if (((SEROUT) & 1000h) == 0)
                          M         bcf     PCLATH, 4
                          M                 else
                          M         bsf     PCLATH, 4
                          M                 endif   
                          M               endif
                          M             endif
                          M           endif
                          M         endif
                          M       endif
                          M     endif
                          M 
01F1   206C               M         call    SEROUT
                      00409         SEROUT?C        001h
01F2   3001               M         movlw   001h
                          M         L?CALL  SEROUT
                          M         RST?RP
                          M     if ((PREV_BANK & 1) != 0)
                          M         bcf     STATUS, RP0
                          M     endif
                          M     if ((PREV_BANK & 2) != 0)
                          M         bcf     STATUS, RP1
                          M     endif
  00000000                M PREV_BANK = 0
                          M 
                          M     ifdef USE_LINKER
                          M       if (CODE_SIZE > 2)
                          M         pagesel SEROUT
                          M       endif
                          M     else
                          M       if ((SEROUT) < 1)
                          M         if (CODE_SIZE > 2)
                          M           if (((SEROUT) & 800h) == 0)
                          M         bcf     PCLATH, 3
                          M         else
                          M         bsf     PCLATH, 3
                          M         endif
                          M         endif
                          M         if (CODE_SIZE > 4)
MPASM 5.75                   I2C SCANNER.ASM   3-19-2018  12:35:42         PAGE 152


LOC  OBJECT CODE     LINE SOURCE TEXT
  VALUE

                          M           if (((SEROUT) & 1000h) == 0)
                          M         bcf     PCLATH, 4
                          M           else
                          M         bsf     PCLATH, 4
                          M           endif
                          M         endif
                          M       else
                          M         if ((SEROUT) > $)
                          M           if (CODE_SIZE > 2)
                          M             if (((SEROUT) & 800h) == 0)
                          M         bcf     PCLATH, 3
                          M             else
                          M         bsf     PCLATH, 3
                          M             endif
                          M           endif
                          M           if (CODE_SIZE > 4)
                          M             if (((SEROUT) & 1000h) == 0)
                          M         bcf     PCLATH, 4
                          M             else
                          M         bsf     PCLATH, 4
                          M             endif
                          M           endif
                          M         else
                          M           if (CODE_SIZE > 2)
                          M             if (((SEROUT) & 1800h) == 0)
01F3   018A               M         clrf    PCLATH
                          M             else
                          M               if (((SEROUT) & 800h) == 0)
                          M         bcf     PCLATH, 3
                          M               else
                          M         bsf     PCLATH, 3
                          M               endif
                          M               if (CODE_SIZE > 4)
                          M                 if (((SEROUT) & 1000h) == 0)
                          M         bcf     PCLATH, 4
                          M                 else
                          M         bsf     PCLATH, 4
                          M                 endif   
                          M               endif
                          M             endif
                          M           endif
                          M         endif
                          M       endif
                          M     endif
                          M 
01F4   206C               M         call    SEROUT
                      00410 
                      00411 ; C:\USERS\ANDREW MCENTEE\DOCUMENTS\DEVELOPMENT\PBP3\16F688 PROGRAMS\I2C SCANNER.PBP    00085       pause 10
                      00412         PAUSE?C 00Ah
                          M     if (((00Ah) >> 8) == 0)
                          M         MOVE?CA 00Ah
01F5   300A               M         movlw   low (00Ah)
                          M         L?CALL  PAUSE
MPASM 5.75                   I2C SCANNER.ASM   3-19-2018  12:35:42         PAGE 153


LOC  OBJECT CODE     LINE SOURCE TEXT
  VALUE

                          M         RST?RP
                          M     if ((PREV_BANK & 1) != 0)
                          M         bcf     STATUS, RP0
                          M     endif
                          M     if ((PREV_BANK & 2) != 0)
                          M         bcf     STATUS, RP1
                          M     endif
  00000000                M PREV_BANK = 0
                          M 
                          M     ifdef USE_LINKER
                          M       if (CODE_SIZE > 2)
                          M         pagesel PAUSE
                          M       endif
                          M     else
                          M       if ((PAUSE) < 1)
                          M         if (CODE_SIZE > 2)
                          M           if (((PAUSE) & 800h) == 0)
                          M         bcf     PCLATH, 3
                          M         else
                          M         bsf     PCLATH, 3
                          M         endif
                          M         endif
                          M         if (CODE_SIZE > 4)
                          M           if (((PAUSE) & 1000h) == 0)
                          M         bcf     PCLATH, 4
                          M           else
                          M         bsf     PCLATH, 4
                          M           endif
                          M         endif
                          M       else
                          M         if ((PAUSE) > $)
                          M           if (CODE_SIZE > 2)
                          M             if (((PAUSE) & 800h) == 0)
                          M         bcf     PCLATH, 3
                          M             else
                          M         bsf     PCLATH, 3
                          M             endif
                          M           endif
                          M           if (CODE_SIZE > 4)
                          M             if (((PAUSE) & 1000h) == 0)
                          M         bcf     PCLATH, 4
                          M             else
                          M         bsf     PCLATH, 4
                          M             endif
                          M           endif
                          M         else
                          M           if (CODE_SIZE > 2)
                          M             if (((PAUSE) & 1800h) == 0)
01F6   018A               M         clrf    PCLATH
                          M             else
                          M               if (((PAUSE) & 800h) == 0)
                          M         bcf     PCLATH, 3
                          M               else
MPASM 5.75                   I2C SCANNER.ASM   3-19-2018  12:35:42         PAGE 154


LOC  OBJECT CODE     LINE SOURCE TEXT
  VALUE

                          M         bsf     PCLATH, 3
                          M               endif
                          M               if (CODE_SIZE > 4)
                          M                 if (((PAUSE) & 1000h) == 0)
                          M         bcf     PCLATH, 4
                          M                 else
                          M         bsf     PCLATH, 4
                          M                 endif   
                          M               endif
                          M             endif
                          M           endif
                          M         endif
                          M       endif
                          M     endif
                          M 
01F7   20AB               M         call    PAUSE
                          M     else
                          M         MOVE?CB (00Ah) >> 8, R1 + 1
                          M         MOVE?CA low (00Ah)
                          M         L?CALL  PAUSEL
                          M     endif
                      00413 
                      00414 ; C:\USERS\ANDREW MCENTEE\DOCUMENTS\DEVELOPMENT\PBP3\16F688 PROGRAMS\I2C SCANNER.PBP    00086       return
                      00415         RETURN? 
                          M     ifdef DEBUG_STACK
                          M         CHK?RP  DEBUG_STACK
                          M         decf    DEBUG_STACK, F
                          M     endif
                          M         RST?RP
                          M     if ((PREV_BANK & 1) != 0)
                          M         bcf     STATUS, RP0
                          M     endif
                          M     if ((PREV_BANK & 2) != 0)
                          M         bcf     STATUS, RP1
                          M     endif
  00000000                M PREV_BANK = 0
01F8   0008               M         return
                      00416 
                      00417 ; C:\USERS\ANDREW MCENTEE\DOCUMENTS\DEVELOPMENT\PBP3\16F688 PROGRAMS\I2C SCANNER.PBP    00087   LINE1:
                      00418 
                      00419         LABEL?L _Line1  
                          M         RST?RP
                          M     if ((PREV_BANK & 1) != 0)
                          M         bcf     STATUS, RP0
                          M     endif
                          M     if ((PREV_BANK & 2) != 0)
                          M         bcf     STATUS, RP1
                          M     endif
  00000000                M PREV_BANK = 0
                          M     ifdef PM_USED
                          M         LALL
                          M _Line1
                          M         XALL
MPASM 5.75                   I2C SCANNER.ASM   3-19-2018  12:35:42         PAGE 155


LOC  OBJECT CODE     LINE SOURCE TEXT
  VALUE

                          M     else
01F9                      M _Line1
                          M     endif
                      00420 
                      00421 ; C:\USERS\ANDREW MCENTEE\DOCUMENTS\DEVELOPMENT\PBP3\16F688 PROGRAMS\I2C SCANNER.PBP    00088       serout DSP,T9600,[$FE,$80]      'Move cursor to Line 1
                      00422         SERPIN?T        _DSP
                          M         BIT?R1  PORTA, 000h
01F9   3005               M         movlw   low ((PORTA) + ((000h)  >> 3))
                          M         CHK?RP  RR1
                          M     if (((RR1)   & 180h) == 0)
                          M       if (PREV_BANK == 1)
                          M         bcf     STATUS, RP0
                          M       endif
                          M       if (PREV_BANK == 2)
                          M         bcf     STATUS, RP1
                          M       endif
                          M       if (PREV_BANK == 3)
                          M         bcf     STATUS, RP0
                          M         bcf     STATUS, RP1
                          M       endif
  00000000                M PREV_BANK = 0
                          M     endif
                          M 
                          M     if (((RR1)   & 180h) == 80h)
                          M       if (PREV_BANK == 0)
                          M         bsf     STATUS, RP0
                          M       endif
                          M       if (PREV_BANK == 2)
                          M         bsf     STATUS, RP0
                          M         bcf     STATUS, RP1
                          M       endif
                          M       if (PREV_BANK == 3)
                          M         bcf     STATUS, RP1
                          M       endif
                          M PREV_BANK = 1
                          M     endif
                          M 
                          M     if (((RR1)   & 180h) == 100h)
                          M       if (PREV_BANK == 0)
                          M         bsf     STATUS, RP1
                          M       endif
                          M       if (PREV_BANK == 1)
                          M         bcf     STATUS, RP0
                          M         bsf     STATUS, RP1
                          M       endif
                          M       if (PREV_BANK == 3)
                          M         bcf     STATUS, RP0
                          M       endif
                          M PREV_BANK = 2
                          M     endif
                          M 
                          M     if (((RR1)   & 180h) == 180h)
                          M       if (PREV_BANK == 0)
MPASM 5.75                   I2C SCANNER.ASM   3-19-2018  12:35:42         PAGE 156


LOC  OBJECT CODE     LINE SOURCE TEXT
  VALUE

                          M         bsf     STATUS, RP0
                          M         bsf     STATUS, RP1
                          M       endif
                          M       if (PREV_BANK == 1)
                          M         bsf     STATUS, RP1
                          M       endif
                          M       if (PREV_BANK == 2)
                          M         bsf     STATUS, RP0
                          M       endif
                          M PREV_BANK = 3
                          M     endif
01FA   00B6               M         movwf   RR1
                          M         BIT?W   000h
                          M     if (((000h)  & 7) == 0)
01FB   3001               M         movlw   01h
                          M     endif
                          M     if (((000h)  & 7) == 1)
                          M         movlw   02h
                          M     endif
                          M     if (((000h)  & 7) == 2)
                          M         movlw   04h
                          M     endif
                          M     if (((000h)  & 7) == 3)
                          M         movlw   08h
                          M     endif
                          M     if (((000h)  & 7) == 4)
                          M         movlw   10h
                          M     endif
                          M     if (((000h)  & 7) == 5)
                          M         movlw   20h
                          M     endif
                          M     if (((000h)  & 7) == 6)
                          M         movlw   40h
                          M     endif
                          M     if (((000h)  & 7) == 7)
                          M         movlw   80h
                          M     endif
01FC   00B4               M         movwf   RM1
                      00423         SERMODE?C       _T9600
                          M         MOVE?CB _T9600, GOP
                          M         CHK?RP  GOP
                          M     if (((GOP)   & 180h) == 0)
                          M       if (PREV_BANK == 1)
                          M         bcf     STATUS, RP0
                          M       endif
                          M       if (PREV_BANK == 2)
                          M         bcf     STATUS, RP1
                          M       endif
                          M       if (PREV_BANK == 3)
                          M         bcf     STATUS, RP0
                          M         bcf     STATUS, RP1
                          M       endif
  00000000                M PREV_BANK = 0
MPASM 5.75                   I2C SCANNER.ASM   3-19-2018  12:35:42         PAGE 157


LOC  OBJECT CODE     LINE SOURCE TEXT
  VALUE

                          M     endif
                          M 
                          M     if (((GOP)   & 180h) == 80h)
                          M       if (PREV_BANK == 0)
                          M         bsf     STATUS, RP0
                          M       endif
                          M       if (PREV_BANK == 2)
                          M         bsf     STATUS, RP0
                          M         bcf     STATUS, RP1
                          M       endif
                          M       if (PREV_BANK == 3)
                          M         bcf     STATUS, RP1
                          M       endif
                          M PREV_BANK = 1
                          M     endif
                          M 
                          M     if (((GOP)   & 180h) == 100h)
                          M       if (PREV_BANK == 0)
                          M         bsf     STATUS, RP1
                          M       endif
                          M       if (PREV_BANK == 1)
                          M         bcf     STATUS, RP0
                          M         bsf     STATUS, RP1
                          M       endif
                          M       if (PREV_BANK == 3)
                          M         bcf     STATUS, RP0
                          M       endif
                          M PREV_BANK = 2
                          M     endif
                          M 
                          M     if (((GOP)   & 180h) == 180h)
                          M       if (PREV_BANK == 0)
                          M         bsf     STATUS, RP0
                          M         bsf     STATUS, RP1
                          M       endif
                          M       if (PREV_BANK == 1)
                          M         bsf     STATUS, RP1
                          M       endif
                          M       if (PREV_BANK == 2)
                          M         bsf     STATUS, RP0
                          M       endif
                          M PREV_BANK = 3
                          M     endif
                          M     if (low (_T9600) == 0)
                          M         clrf    GOP
                          M     else
01FD   3002               M         movlw   low (_T9600)
01FE   00B3               M         movwf   GOP
                          M     endif
                      00424         SEROUT?C        0FEh
01FF   30FE               M         movlw   0FEh
                          M         L?CALL  SEROUT
                          M         RST?RP
MPASM 5.75                   I2C SCANNER.ASM   3-19-2018  12:35:42         PAGE 158


LOC  OBJECT CODE     LINE SOURCE TEXT
  VALUE

                          M     if ((PREV_BANK & 1) != 0)
                          M         bcf     STATUS, RP0
                          M     endif
                          M     if ((PREV_BANK & 2) != 0)
                          M         bcf     STATUS, RP1
                          M     endif
  00000000                M PREV_BANK = 0
                          M 
                          M     ifdef USE_LINKER
                          M       if (CODE_SIZE > 2)
                          M         pagesel SEROUT
                          M       endif
                          M     else
                          M       if ((SEROUT) < 1)
                          M         if (CODE_SIZE > 2)
                          M           if (((SEROUT) & 800h) == 0)
                          M         bcf     PCLATH, 3
                          M         else
                          M         bsf     PCLATH, 3
                          M         endif
                          M         endif
                          M         if (CODE_SIZE > 4)
                          M           if (((SEROUT) & 1000h) == 0)
                          M         bcf     PCLATH, 4
                          M           else
                          M         bsf     PCLATH, 4
                          M           endif
                          M         endif
                          M       else
                          M         if ((SEROUT) > $)
                          M           if (CODE_SIZE > 2)
                          M             if (((SEROUT) & 800h) == 0)
                          M         bcf     PCLATH, 3
                          M             else
                          M         bsf     PCLATH, 3
                          M             endif
                          M           endif
                          M           if (CODE_SIZE > 4)
                          M             if (((SEROUT) & 1000h) == 0)
                          M         bcf     PCLATH, 4
                          M             else
                          M         bsf     PCLATH, 4
                          M             endif
                          M           endif
                          M         else
                          M           if (CODE_SIZE > 2)
                          M             if (((SEROUT) & 1800h) == 0)
0200   018A               M         clrf    PCLATH
                          M             else
                          M               if (((SEROUT) & 800h) == 0)
                          M         bcf     PCLATH, 3
                          M               else
                          M         bsf     PCLATH, 3
MPASM 5.75                   I2C SCANNER.ASM   3-19-2018  12:35:42         PAGE 159


LOC  OBJECT CODE     LINE SOURCE TEXT
  VALUE

                          M               endif
                          M               if (CODE_SIZE > 4)
                          M                 if (((SEROUT) & 1000h) == 0)
                          M         bcf     PCLATH, 4
                          M                 else
                          M         bsf     PCLATH, 4
                          M                 endif   
                          M               endif
                          M             endif
                          M           endif
                          M         endif
                          M       endif
                          M     endif
                          M 
0201   206C               M         call    SEROUT
                      00425         SEROUT?C        080h
0202   3080               M         movlw   080h
                          M         L?CALL  SEROUT
                          M         RST?RP
                          M     if ((PREV_BANK & 1) != 0)
                          M         bcf     STATUS, RP0
                          M     endif
                          M     if ((PREV_BANK & 2) != 0)
                          M         bcf     STATUS, RP1
                          M     endif
  00000000                M PREV_BANK = 0
                          M 
                          M     ifdef USE_LINKER
                          M       if (CODE_SIZE > 2)
                          M         pagesel SEROUT
                          M       endif
                          M     else
                          M       if ((SEROUT) < 1)
                          M         if (CODE_SIZE > 2)
                          M           if (((SEROUT) & 800h) == 0)
                          M         bcf     PCLATH, 3
                          M         else
                          M         bsf     PCLATH, 3
                          M         endif
                          M         endif
                          M         if (CODE_SIZE > 4)
                          M           if (((SEROUT) & 1000h) == 0)
                          M         bcf     PCLATH, 4
                          M           else
                          M         bsf     PCLATH, 4
                          M           endif
                          M         endif
                          M       else
                          M         if ((SEROUT) > $)
                          M           if (CODE_SIZE > 2)
                          M             if (((SEROUT) & 800h) == 0)
                          M         bcf     PCLATH, 3
                          M             else
MPASM 5.75                   I2C SCANNER.ASM   3-19-2018  12:35:42         PAGE 160


LOC  OBJECT CODE     LINE SOURCE TEXT
  VALUE

                          M         bsf     PCLATH, 3
                          M             endif
                          M           endif
                          M           if (CODE_SIZE > 4)
                          M             if (((SEROUT) & 1000h) == 0)
                          M         bcf     PCLATH, 4
                          M             else
                          M         bsf     PCLATH, 4
                          M             endif
                          M           endif
                          M         else
                          M           if (CODE_SIZE > 2)
                          M             if (((SEROUT) & 1800h) == 0)
0203   018A               M         clrf    PCLATH
                          M             else
                          M               if (((SEROUT) & 800h) == 0)
                          M         bcf     PCLATH, 3
                          M               else
                          M         bsf     PCLATH, 3
                          M               endif
                          M               if (CODE_SIZE > 4)
                          M                 if (((SEROUT) & 1000h) == 0)
                          M         bcf     PCLATH, 4
                          M                 else
                          M         bsf     PCLATH, 4
                          M                 endif   
                          M               endif
                          M             endif
                          M           endif
                          M         endif
                          M       endif
                          M     endif
                          M 
0204   206C               M         call    SEROUT
                      00426 
                      00427 ; C:\USERS\ANDREW MCENTEE\DOCUMENTS\DEVELOPMENT\PBP3\16F688 PROGRAMS\I2C SCANNER.PBP    00089       return    
                      00428         RETURN? 
                          M     ifdef DEBUG_STACK
                          M         CHK?RP  DEBUG_STACK
                          M         decf    DEBUG_STACK, F
                          M     endif
                          M         RST?RP
                          M     if ((PREV_BANK & 1) != 0)
                          M         bcf     STATUS, RP0
                          M     endif
                          M     if ((PREV_BANK & 2) != 0)
                          M         bcf     STATUS, RP1
                          M     endif
  00000000                M PREV_BANK = 0
0205   0008               M         return
                      00429 
                      00430 ; C:\USERS\ANDREW MCENTEE\DOCUMENTS\DEVELOPMENT\PBP3\16F688 PROGRAMS\I2C SCANNER.PBP    00090   LINE2:
                      00431 
MPASM 5.75                   I2C SCANNER.ASM   3-19-2018  12:35:42         PAGE 161


LOC  OBJECT CODE     LINE SOURCE TEXT
  VALUE

                      00432         LABEL?L _Line2  
                          M         RST?RP
                          M     if ((PREV_BANK & 1) != 0)
                          M         bcf     STATUS, RP0
                          M     endif
                          M     if ((PREV_BANK & 2) != 0)
                          M         bcf     STATUS, RP1
                          M     endif
  00000000                M PREV_BANK = 0
                          M     ifdef PM_USED
                          M         LALL
                          M _Line2
                          M         XALL
                          M     else
0206                      M _Line2
                          M     endif
                      00433 
                      00434 ; C:\USERS\ANDREW MCENTEE\DOCUMENTS\DEVELOPMENT\PBP3\16F688 PROGRAMS\I2C SCANNER.PBP    00091       serout DSP,T9600,[$FE,$C0]      'Move cursor to Line 2
                      00435         SERPIN?T        _DSP
                          M         BIT?R1  PORTA, 000h
0206   3005               M         movlw   low ((PORTA) + ((000h)  >> 3))
                          M         CHK?RP  RR1
                          M     if (((RR1)   & 180h) == 0)
                          M       if (PREV_BANK == 1)
                          M         bcf     STATUS, RP0
                          M       endif
                          M       if (PREV_BANK == 2)
                          M         bcf     STATUS, RP1
                          M       endif
                          M       if (PREV_BANK == 3)
                          M         bcf     STATUS, RP0
                          M         bcf     STATUS, RP1
                          M       endif
  00000000                M PREV_BANK = 0
                          M     endif
                          M 
                          M     if (((RR1)   & 180h) == 80h)
                          M       if (PREV_BANK == 0)
                          M         bsf     STATUS, RP0
                          M       endif
                          M       if (PREV_BANK == 2)
                          M         bsf     STATUS, RP0
                          M         bcf     STATUS, RP1
                          M       endif
                          M       if (PREV_BANK == 3)
                          M         bcf     STATUS, RP1
                          M       endif
                          M PREV_BANK = 1
                          M     endif
                          M 
                          M     if (((RR1)   & 180h) == 100h)
                          M       if (PREV_BANK == 0)
                          M         bsf     STATUS, RP1
MPASM 5.75                   I2C SCANNER.ASM   3-19-2018  12:35:42         PAGE 162


LOC  OBJECT CODE     LINE SOURCE TEXT
  VALUE

                          M       endif
                          M       if (PREV_BANK == 1)
                          M         bcf     STATUS, RP0
                          M         bsf     STATUS, RP1
                          M       endif
                          M       if (PREV_BANK == 3)
                          M         bcf     STATUS, RP0
                          M       endif
                          M PREV_BANK = 2
                          M     endif
                          M 
                          M     if (((RR1)   & 180h) == 180h)
                          M       if (PREV_BANK == 0)
                          M         bsf     STATUS, RP0
                          M         bsf     STATUS, RP1
                          M       endif
                          M       if (PREV_BANK == 1)
                          M         bsf     STATUS, RP1
                          M       endif
                          M       if (PREV_BANK == 2)
                          M         bsf     STATUS, RP0
                          M       endif
                          M PREV_BANK = 3
                          M     endif
0207   00B6               M         movwf   RR1
                          M         BIT?W   000h
                          M     if (((000h)  & 7) == 0)
0208   3001               M         movlw   01h
                          M     endif
                          M     if (((000h)  & 7) == 1)
                          M         movlw   02h
                          M     endif
                          M     if (((000h)  & 7) == 2)
                          M         movlw   04h
                          M     endif
                          M     if (((000h)  & 7) == 3)
                          M         movlw   08h
                          M     endif
                          M     if (((000h)  & 7) == 4)
                          M         movlw   10h
                          M     endif
                          M     if (((000h)  & 7) == 5)
                          M         movlw   20h
                          M     endif
                          M     if (((000h)  & 7) == 6)
                          M         movlw   40h
                          M     endif
                          M     if (((000h)  & 7) == 7)
                          M         movlw   80h
                          M     endif
0209   00B4               M         movwf   RM1
                      00436         SERMODE?C       _T9600
                          M         MOVE?CB _T9600, GOP
MPASM 5.75                   I2C SCANNER.ASM   3-19-2018  12:35:42         PAGE 163


LOC  OBJECT CODE     LINE SOURCE TEXT
  VALUE

                          M         CHK?RP  GOP
                          M     if (((GOP)   & 180h) == 0)
                          M       if (PREV_BANK == 1)
                          M         bcf     STATUS, RP0
                          M       endif
                          M       if (PREV_BANK == 2)
                          M         bcf     STATUS, RP1
                          M       endif
                          M       if (PREV_BANK == 3)
                          M         bcf     STATUS, RP0
                          M         bcf     STATUS, RP1
                          M       endif
  00000000                M PREV_BANK = 0
                          M     endif
                          M 
                          M     if (((GOP)   & 180h) == 80h)
                          M       if (PREV_BANK == 0)
                          M         bsf     STATUS, RP0
                          M       endif
                          M       if (PREV_BANK == 2)
                          M         bsf     STATUS, RP0
                          M         bcf     STATUS, RP1
                          M       endif
                          M       if (PREV_BANK == 3)
                          M         bcf     STATUS, RP1
                          M       endif
                          M PREV_BANK = 1
                          M     endif
                          M 
                          M     if (((GOP)   & 180h) == 100h)
                          M       if (PREV_BANK == 0)
                          M         bsf     STATUS, RP1
                          M       endif
                          M       if (PREV_BANK == 1)
                          M         bcf     STATUS, RP0
                          M         bsf     STATUS, RP1
                          M       endif
                          M       if (PREV_BANK == 3)
                          M         bcf     STATUS, RP0
                          M       endif
                          M PREV_BANK = 2
                          M     endif
                          M 
                          M     if (((GOP)   & 180h) == 180h)
                          M       if (PREV_BANK == 0)
                          M         bsf     STATUS, RP0
                          M         bsf     STATUS, RP1
                          M       endif
                          M       if (PREV_BANK == 1)
                          M         bsf     STATUS, RP1
                          M       endif
                          M       if (PREV_BANK == 2)
                          M         bsf     STATUS, RP0
MPASM 5.75                   I2C SCANNER.ASM   3-19-2018  12:35:42         PAGE 164


LOC  OBJECT CODE     LINE SOURCE TEXT
  VALUE

                          M       endif
                          M PREV_BANK = 3
                          M     endif
                          M     if (low (_T9600) == 0)
                          M         clrf    GOP
                          M     else
020A   3002               M         movlw   low (_T9600)
020B   00B3               M         movwf   GOP
                          M     endif
                      00437         SEROUT?C        0FEh
020C   30FE               M         movlw   0FEh
                          M         L?CALL  SEROUT
                          M         RST?RP
                          M     if ((PREV_BANK & 1) != 0)
                          M         bcf     STATUS, RP0
                          M     endif
                          M     if ((PREV_BANK & 2) != 0)
                          M         bcf     STATUS, RP1
                          M     endif
  00000000                M PREV_BANK = 0
                          M 
                          M     ifdef USE_LINKER
                          M       if (CODE_SIZE > 2)
                          M         pagesel SEROUT
                          M       endif
                          M     else
                          M       if ((SEROUT) < 1)
                          M         if (CODE_SIZE > 2)
                          M           if (((SEROUT) & 800h) == 0)
                          M         bcf     PCLATH, 3
                          M         else
                          M         bsf     PCLATH, 3
                          M         endif
                          M         endif
                          M         if (CODE_SIZE > 4)
                          M           if (((SEROUT) & 1000h) == 0)
                          M         bcf     PCLATH, 4
                          M           else
                          M         bsf     PCLATH, 4
                          M           endif
                          M         endif
                          M       else
                          M         if ((SEROUT) > $)
                          M           if (CODE_SIZE > 2)
                          M             if (((SEROUT) & 800h) == 0)
                          M         bcf     PCLATH, 3
                          M             else
                          M         bsf     PCLATH, 3
                          M             endif
                          M           endif
                          M           if (CODE_SIZE > 4)
                          M             if (((SEROUT) & 1000h) == 0)
                          M         bcf     PCLATH, 4
MPASM 5.75                   I2C SCANNER.ASM   3-19-2018  12:35:42         PAGE 165


LOC  OBJECT CODE     LINE SOURCE TEXT
  VALUE

                          M             else
                          M         bsf     PCLATH, 4
                          M             endif
                          M           endif
                          M         else
                          M           if (CODE_SIZE > 2)
                          M             if (((SEROUT) & 1800h) == 0)
020D   018A               M         clrf    PCLATH
                          M             else
                          M               if (((SEROUT) & 800h) == 0)
                          M         bcf     PCLATH, 3
                          M               else
                          M         bsf     PCLATH, 3
                          M               endif
                          M               if (CODE_SIZE > 4)
                          M                 if (((SEROUT) & 1000h) == 0)
                          M         bcf     PCLATH, 4
                          M                 else
                          M         bsf     PCLATH, 4
                          M                 endif   
                          M               endif
                          M             endif
                          M           endif
                          M         endif
                          M       endif
                          M     endif
                          M 
020E   206C               M         call    SEROUT
                      00438         SEROUT?C        0C0h
020F   30C0               M         movlw   0C0h
                          M         L?CALL  SEROUT
                          M         RST?RP
                          M     if ((PREV_BANK & 1) != 0)
                          M         bcf     STATUS, RP0
                          M     endif
                          M     if ((PREV_BANK & 2) != 0)
                          M         bcf     STATUS, RP1
                          M     endif
  00000000                M PREV_BANK = 0
                          M 
                          M     ifdef USE_LINKER
                          M       if (CODE_SIZE > 2)
                          M         pagesel SEROUT
                          M       endif
                          M     else
                          M       if ((SEROUT) < 1)
                          M         if (CODE_SIZE > 2)
                          M           if (((SEROUT) & 800h) == 0)
                          M         bcf     PCLATH, 3
                          M         else
                          M         bsf     PCLATH, 3
                          M         endif
                          M         endif
MPASM 5.75                   I2C SCANNER.ASM   3-19-2018  12:35:42         PAGE 166


LOC  OBJECT CODE     LINE SOURCE TEXT
  VALUE

                          M         if (CODE_SIZE > 4)
                          M           if (((SEROUT) & 1000h) == 0)
                          M         bcf     PCLATH, 4
                          M           else
                          M         bsf     PCLATH, 4
                          M           endif
                          M         endif
                          M       else
                          M         if ((SEROUT) > $)
                          M           if (CODE_SIZE > 2)
                          M             if (((SEROUT) & 800h) == 0)
                          M         bcf     PCLATH, 3
                          M             else
                          M         bsf     PCLATH, 3
                          M             endif
                          M           endif
                          M           if (CODE_SIZE > 4)
                          M             if (((SEROUT) & 1000h) == 0)
                          M         bcf     PCLATH, 4
                          M             else
                          M         bsf     PCLATH, 4
                          M             endif
                          M           endif
                          M         else
                          M           if (CODE_SIZE > 2)
                          M             if (((SEROUT) & 1800h) == 0)
0210   018A               M         clrf    PCLATH
                          M             else
                          M               if (((SEROUT) & 800h) == 0)
                          M         bcf     PCLATH, 3
                          M               else
                          M         bsf     PCLATH, 3
                          M               endif
                          M               if (CODE_SIZE > 4)
                          M                 if (((SEROUT) & 1000h) == 0)
                          M         bcf     PCLATH, 4
                          M                 else
                          M         bsf     PCLATH, 4
                          M                 endif   
                          M               endif
                          M             endif
                          M           endif
                          M         endif
                          M       endif
                          M     endif
                          M 
0211   206C               M         call    SEROUT
                      00439 
                      00440 ; C:\USERS\ANDREW MCENTEE\DOCUMENTS\DEVELOPMENT\PBP3\16F688 PROGRAMS\I2C SCANNER.PBP    00092       return
                      00441         RETURN? 
                          M     ifdef DEBUG_STACK
                          M         CHK?RP  DEBUG_STACK
                          M         decf    DEBUG_STACK, F
MPASM 5.75                   I2C SCANNER.ASM   3-19-2018  12:35:42         PAGE 167


LOC  OBJECT CODE     LINE SOURCE TEXT
  VALUE

                          M     endif
                          M         RST?RP
                          M     if ((PREV_BANK & 1) != 0)
                          M         bcf     STATUS, RP0
                          M     endif
                          M     if ((PREV_BANK & 2) != 0)
                          M         bcf     STATUS, RP1
                          M     endif
  00000000                M PREV_BANK = 0
0212   0008               M         return
                      00442 
                      00443 ; C:\USERS\ANDREW MCENTEE\DOCUMENTS\DEVELOPMENT\PBP3\16F688 PROGRAMS\I2C SCANNER.PBP    00093   BLINK_CUR:
                      00444 
                      00445         LABEL?L _blink_cur      
                          M         RST?RP
                          M     if ((PREV_BANK & 1) != 0)
                          M         bcf     STATUS, RP0
                          M     endif
                          M     if ((PREV_BANK & 2) != 0)
                          M         bcf     STATUS, RP1
                          M     endif
  00000000                M PREV_BANK = 0
                          M     ifdef PM_USED
                          M         LALL
                          M _blink_cur
                          M         XALL
                          M     else
0213                      M _blink_cur
                          M     endif
                      00446 
                      00447 ; C:\USERS\ANDREW MCENTEE\DOCUMENTS\DEVELOPMENT\PBP3\16F688 PROGRAMS\I2C SCANNER.PBP    00094       serout DSP,T9600,[$FE,$0D]      'Show blinking cursor
                      00448         SERPIN?T        _DSP
                          M         BIT?R1  PORTA, 000h
0213   3005               M         movlw   low ((PORTA) + ((000h)  >> 3))
                          M         CHK?RP  RR1
                          M     if (((RR1)   & 180h) == 0)
                          M       if (PREV_BANK == 1)
                          M         bcf     STATUS, RP0
                          M       endif
                          M       if (PREV_BANK == 2)
                          M         bcf     STATUS, RP1
                          M       endif
                          M       if (PREV_BANK == 3)
                          M         bcf     STATUS, RP0
                          M         bcf     STATUS, RP1
                          M       endif
  00000000                M PREV_BANK = 0
                          M     endif
                          M 
                          M     if (((RR1)   & 180h) == 80h)
                          M       if (PREV_BANK == 0)
                          M         bsf     STATUS, RP0
                          M       endif
MPASM 5.75                   I2C SCANNER.ASM   3-19-2018  12:35:42         PAGE 168


LOC  OBJECT CODE     LINE SOURCE TEXT
  VALUE

                          M       if (PREV_BANK == 2)
                          M         bsf     STATUS, RP0
                          M         bcf     STATUS, RP1
                          M       endif
                          M       if (PREV_BANK == 3)
                          M         bcf     STATUS, RP1
                          M       endif
                          M PREV_BANK = 1
                          M     endif
                          M 
                          M     if (((RR1)   & 180h) == 100h)
                          M       if (PREV_BANK == 0)
                          M         bsf     STATUS, RP1
                          M       endif
                          M       if (PREV_BANK == 1)
                          M         bcf     STATUS, RP0
                          M         bsf     STATUS, RP1
                          M       endif
                          M       if (PREV_BANK == 3)
                          M         bcf     STATUS, RP0
                          M       endif
                          M PREV_BANK = 2
                          M     endif
                          M 
                          M     if (((RR1)   & 180h) == 180h)
                          M       if (PREV_BANK == 0)
                          M         bsf     STATUS, RP0
                          M         bsf     STATUS, RP1
                          M       endif
                          M       if (PREV_BANK == 1)
                          M         bsf     STATUS, RP1
                          M       endif
                          M       if (PREV_BANK == 2)
                          M         bsf     STATUS, RP0
                          M       endif
                          M PREV_BANK = 3
                          M     endif
0214   00B6               M         movwf   RR1
                          M         BIT?W   000h
                          M     if (((000h)  & 7) == 0)
0215   3001               M         movlw   01h
                          M     endif
                          M     if (((000h)  & 7) == 1)
                          M         movlw   02h
                          M     endif
                          M     if (((000h)  & 7) == 2)
                          M         movlw   04h
                          M     endif
                          M     if (((000h)  & 7) == 3)
                          M         movlw   08h
                          M     endif
                          M     if (((000h)  & 7) == 4)
                          M         movlw   10h
MPASM 5.75                   I2C SCANNER.ASM   3-19-2018  12:35:42         PAGE 169


LOC  OBJECT CODE     LINE SOURCE TEXT
  VALUE

                          M     endif
                          M     if (((000h)  & 7) == 5)
                          M         movlw   20h
                          M     endif
                          M     if (((000h)  & 7) == 6)
                          M         movlw   40h
                          M     endif
                          M     if (((000h)  & 7) == 7)
                          M         movlw   80h
                          M     endif
0216   00B4               M         movwf   RM1
                      00449         SERMODE?C       _T9600
                          M         MOVE?CB _T9600, GOP
                          M         CHK?RP  GOP
                          M     if (((GOP)   & 180h) == 0)
                          M       if (PREV_BANK == 1)
                          M         bcf     STATUS, RP0
                          M       endif
                          M       if (PREV_BANK == 2)
                          M         bcf     STATUS, RP1
                          M       endif
                          M       if (PREV_BANK == 3)
                          M         bcf     STATUS, RP0
                          M         bcf     STATUS, RP1
                          M       endif
  00000000                M PREV_BANK = 0
                          M     endif
                          M 
                          M     if (((GOP)   & 180h) == 80h)
                          M       if (PREV_BANK == 0)
                          M         bsf     STATUS, RP0
                          M       endif
                          M       if (PREV_BANK == 2)
                          M         bsf     STATUS, RP0
                          M         bcf     STATUS, RP1
                          M       endif
                          M       if (PREV_BANK == 3)
                          M         bcf     STATUS, RP1
                          M       endif
                          M PREV_BANK = 1
                          M     endif
                          M 
                          M     if (((GOP)   & 180h) == 100h)
                          M       if (PREV_BANK == 0)
                          M         bsf     STATUS, RP1
                          M       endif
                          M       if (PREV_BANK == 1)
                          M         bcf     STATUS, RP0
                          M         bsf     STATUS, RP1
                          M       endif
                          M       if (PREV_BANK == 3)
                          M         bcf     STATUS, RP0
                          M       endif
MPASM 5.75                   I2C SCANNER.ASM   3-19-2018  12:35:42         PAGE 170


LOC  OBJECT CODE     LINE SOURCE TEXT
  VALUE

                          M PREV_BANK = 2
                          M     endif
                          M 
                          M     if (((GOP)   & 180h) == 180h)
                          M       if (PREV_BANK == 0)
                          M         bsf     STATUS, RP0
                          M         bsf     STATUS, RP1
                          M       endif
                          M       if (PREV_BANK == 1)
                          M         bsf     STATUS, RP1
                          M       endif
                          M       if (PREV_BANK == 2)
                          M         bsf     STATUS, RP0
                          M       endif
                          M PREV_BANK = 3
                          M     endif
                          M     if (low (_T9600) == 0)
                          M         clrf    GOP
                          M     else
0217   3002               M         movlw   low (_T9600)
0218   00B3               M         movwf   GOP
                          M     endif
                      00450         SEROUT?C        0FEh
0219   30FE               M         movlw   0FEh
                          M         L?CALL  SEROUT
                          M         RST?RP
                          M     if ((PREV_BANK & 1) != 0)
                          M         bcf     STATUS, RP0
                          M     endif
                          M     if ((PREV_BANK & 2) != 0)
                          M         bcf     STATUS, RP1
                          M     endif
  00000000                M PREV_BANK = 0
                          M 
                          M     ifdef USE_LINKER
                          M       if (CODE_SIZE > 2)
                          M         pagesel SEROUT
                          M       endif
                          M     else
                          M       if ((SEROUT) < 1)
                          M         if (CODE_SIZE > 2)
                          M           if (((SEROUT) & 800h) == 0)
                          M         bcf     PCLATH, 3
                          M         else
                          M         bsf     PCLATH, 3
                          M         endif
                          M         endif
                          M         if (CODE_SIZE > 4)
                          M           if (((SEROUT) & 1000h) == 0)
                          M         bcf     PCLATH, 4
                          M           else
                          M         bsf     PCLATH, 4
                          M           endif
MPASM 5.75                   I2C SCANNER.ASM   3-19-2018  12:35:42         PAGE 171


LOC  OBJECT CODE     LINE SOURCE TEXT
  VALUE

                          M         endif
                          M       else
                          M         if ((SEROUT) > $)
                          M           if (CODE_SIZE > 2)
                          M             if (((SEROUT) & 800h) == 0)
                          M         bcf     PCLATH, 3
                          M             else
                          M         bsf     PCLATH, 3
                          M             endif
                          M           endif
                          M           if (CODE_SIZE > 4)
                          M             if (((SEROUT) & 1000h) == 0)
                          M         bcf     PCLATH, 4
                          M             else
                          M         bsf     PCLATH, 4
                          M             endif
                          M           endif
                          M         else
                          M           if (CODE_SIZE > 2)
                          M             if (((SEROUT) & 1800h) == 0)
021A   018A               M         clrf    PCLATH
                          M             else
                          M               if (((SEROUT) & 800h) == 0)
                          M         bcf     PCLATH, 3
                          M               else
                          M         bsf     PCLATH, 3
                          M               endif
                          M               if (CODE_SIZE > 4)
                          M                 if (((SEROUT) & 1000h) == 0)
                          M         bcf     PCLATH, 4
                          M                 else
                          M         bsf     PCLATH, 4
                          M                 endif   
                          M               endif
                          M             endif
                          M           endif
                          M         endif
                          M       endif
                          M     endif
                          M 
021B   206C               M         call    SEROUT
                      00451         SEROUT?C        00Dh
021C   300D               M         movlw   00Dh
                          M         L?CALL  SEROUT
                          M         RST?RP
                          M     if ((PREV_BANK & 1) != 0)
                          M         bcf     STATUS, RP0
                          M     endif
                          M     if ((PREV_BANK & 2) != 0)
                          M         bcf     STATUS, RP1
                          M     endif
  00000000                M PREV_BANK = 0
                          M 
MPASM 5.75                   I2C SCANNER.ASM   3-19-2018  12:35:42         PAGE 172


LOC  OBJECT CODE     LINE SOURCE TEXT
  VALUE

                          M     ifdef USE_LINKER
                          M       if (CODE_SIZE > 2)
                          M         pagesel SEROUT
                          M       endif
                          M     else
                          M       if ((SEROUT) < 1)
                          M         if (CODE_SIZE > 2)
                          M           if (((SEROUT) & 800h) == 0)
                          M         bcf     PCLATH, 3
                          M         else
                          M         bsf     PCLATH, 3
                          M         endif
                          M         endif
                          M         if (CODE_SIZE > 4)
                          M           if (((SEROUT) & 1000h) == 0)
                          M         bcf     PCLATH, 4
                          M           else
                          M         bsf     PCLATH, 4
                          M           endif
                          M         endif
                          M       else
                          M         if ((SEROUT) > $)
                          M           if (CODE_SIZE > 2)
                          M             if (((SEROUT) & 800h) == 0)
                          M         bcf     PCLATH, 3
                          M             else
                          M         bsf     PCLATH, 3
                          M             endif
                          M           endif
                          M           if (CODE_SIZE > 4)
                          M             if (((SEROUT) & 1000h) == 0)
                          M         bcf     PCLATH, 4
                          M             else
                          M         bsf     PCLATH, 4
                          M             endif
                          M           endif
                          M         else
                          M           if (CODE_SIZE > 2)
                          M             if (((SEROUT) & 1800h) == 0)
021D   018A               M         clrf    PCLATH
                          M             else
                          M               if (((SEROUT) & 800h) == 0)
                          M         bcf     PCLATH, 3
                          M               else
                          M         bsf     PCLATH, 3
                          M               endif
                          M               if (CODE_SIZE > 4)
                          M                 if (((SEROUT) & 1000h) == 0)
                          M         bcf     PCLATH, 4
                          M                 else
                          M         bsf     PCLATH, 4
                          M                 endif   
                          M               endif
MPASM 5.75                   I2C SCANNER.ASM   3-19-2018  12:35:42         PAGE 173


LOC  OBJECT CODE     LINE SOURCE TEXT
  VALUE

                          M             endif
                          M           endif
                          M         endif
                          M       endif
                          M     endif
                          M 
021E   206C               M         call    SEROUT
                      00452 
                      00453 ; C:\USERS\ANDREW MCENTEE\DOCUMENTS\DEVELOPMENT\PBP3\16F688 PROGRAMS\I2C SCANNER.PBP    00095       return
                      00454         RETURN? 
                          M     ifdef DEBUG_STACK
                          M         CHK?RP  DEBUG_STACK
                          M         decf    DEBUG_STACK, F
                          M     endif
                          M         RST?RP
                          M     if ((PREV_BANK & 1) != 0)
                          M         bcf     STATUS, RP0
                          M     endif
                          M     if ((PREV_BANK & 2) != 0)
                          M         bcf     STATUS, RP1
                          M     endif
  00000000                M PREV_BANK = 0
021F   0008               M         return
                      00455 
                      00456 ; C:\USERS\ANDREW MCENTEE\DOCUMENTS\DEVELOPMENT\PBP3\16F688 PROGRAMS\I2C SCANNER.PBP    00096   DIS_CUR:
                      00457 
                      00458         LABEL?L _DIS_CUR        
                          M         RST?RP
                          M     if ((PREV_BANK & 1) != 0)
                          M         bcf     STATUS, RP0
                          M     endif
                          M     if ((PREV_BANK & 2) != 0)
                          M         bcf     STATUS, RP1
                          M     endif
  00000000                M PREV_BANK = 0
                          M     ifdef PM_USED
                          M         LALL
                          M _DIS_CUR
                          M         XALL
                          M     else
0220                      M _DIS_CUR
                          M     endif
                      00459 
                      00460 ; C:\USERS\ANDREW MCENTEE\DOCUMENTS\DEVELOPMENT\PBP3\16F688 PROGRAMS\I2C SCANNER.PBP    00097       serout DSP,T9600,[$FE,$0C]      'Hide blinking cursor
                      00461         SERPIN?T        _DSP
                          M         BIT?R1  PORTA, 000h
0220   3005               M         movlw   low ((PORTA) + ((000h)  >> 3))
                          M         CHK?RP  RR1
                          M     if (((RR1)   & 180h) == 0)
                          M       if (PREV_BANK == 1)
                          M         bcf     STATUS, RP0
                          M       endif
                          M       if (PREV_BANK == 2)
MPASM 5.75                   I2C SCANNER.ASM   3-19-2018  12:35:42         PAGE 174


LOC  OBJECT CODE     LINE SOURCE TEXT
  VALUE

                          M         bcf     STATUS, RP1
                          M       endif
                          M       if (PREV_BANK == 3)
                          M         bcf     STATUS, RP0
                          M         bcf     STATUS, RP1
                          M       endif
  00000000                M PREV_BANK = 0
                          M     endif
                          M 
                          M     if (((RR1)   & 180h) == 80h)
                          M       if (PREV_BANK == 0)
                          M         bsf     STATUS, RP0
                          M       endif
                          M       if (PREV_BANK == 2)
                          M         bsf     STATUS, RP0
                          M         bcf     STATUS, RP1
                          M       endif
                          M       if (PREV_BANK == 3)
                          M         bcf     STATUS, RP1
                          M       endif
                          M PREV_BANK = 1
                          M     endif
                          M 
                          M     if (((RR1)   & 180h) == 100h)
                          M       if (PREV_BANK == 0)
                          M         bsf     STATUS, RP1
                          M       endif
                          M       if (PREV_BANK == 1)
                          M         bcf     STATUS, RP0
                          M         bsf     STATUS, RP1
                          M       endif
                          M       if (PREV_BANK == 3)
                          M         bcf     STATUS, RP0
                          M       endif
                          M PREV_BANK = 2
                          M     endif
                          M 
                          M     if (((RR1)   & 180h) == 180h)
                          M       if (PREV_BANK == 0)
                          M         bsf     STATUS, RP0
                          M         bsf     STATUS, RP1
                          M       endif
                          M       if (PREV_BANK == 1)
                          M         bsf     STATUS, RP1
                          M       endif
                          M       if (PREV_BANK == 2)
                          M         bsf     STATUS, RP0
                          M       endif
                          M PREV_BANK = 3
                          M     endif
0221   00B6               M         movwf   RR1
                          M         BIT?W   000h
                          M     if (((000h)  & 7) == 0)
MPASM 5.75                   I2C SCANNER.ASM   3-19-2018  12:35:42         PAGE 175


LOC  OBJECT CODE     LINE SOURCE TEXT
  VALUE

0222   3001               M         movlw   01h
                          M     endif
                          M     if (((000h)  & 7) == 1)
                          M         movlw   02h
                          M     endif
                          M     if (((000h)  & 7) == 2)
                          M         movlw   04h
                          M     endif
                          M     if (((000h)  & 7) == 3)
                          M         movlw   08h
                          M     endif
                          M     if (((000h)  & 7) == 4)
                          M         movlw   10h
                          M     endif
                          M     if (((000h)  & 7) == 5)
                          M         movlw   20h
                          M     endif
                          M     if (((000h)  & 7) == 6)
                          M         movlw   40h
                          M     endif
                          M     if (((000h)  & 7) == 7)
                          M         movlw   80h
                          M     endif
0223   00B4               M         movwf   RM1
                      00462         SERMODE?C       _T9600
                          M         MOVE?CB _T9600, GOP
                          M         CHK?RP  GOP
                          M     if (((GOP)   & 180h) == 0)
                          M       if (PREV_BANK == 1)
                          M         bcf     STATUS, RP0
                          M       endif
                          M       if (PREV_BANK == 2)
                          M         bcf     STATUS, RP1
                          M       endif
                          M       if (PREV_BANK == 3)
                          M         bcf     STATUS, RP0
                          M         bcf     STATUS, RP1
                          M       endif
  00000000                M PREV_BANK = 0
                          M     endif
                          M 
                          M     if (((GOP)   & 180h) == 80h)
                          M       if (PREV_BANK == 0)
                          M         bsf     STATUS, RP0
                          M       endif
                          M       if (PREV_BANK == 2)
                          M         bsf     STATUS, RP0
                          M         bcf     STATUS, RP1
                          M       endif
                          M       if (PREV_BANK == 3)
                          M         bcf     STATUS, RP1
                          M       endif
                          M PREV_BANK = 1
MPASM 5.75                   I2C SCANNER.ASM   3-19-2018  12:35:42         PAGE 176


LOC  OBJECT CODE     LINE SOURCE TEXT
  VALUE

                          M     endif
                          M 
                          M     if (((GOP)   & 180h) == 100h)
                          M       if (PREV_BANK == 0)
                          M         bsf     STATUS, RP1
                          M       endif
                          M       if (PREV_BANK == 1)
                          M         bcf     STATUS, RP0
                          M         bsf     STATUS, RP1
                          M       endif
                          M       if (PREV_BANK == 3)
                          M         bcf     STATUS, RP0
                          M       endif
                          M PREV_BANK = 2
                          M     endif
                          M 
                          M     if (((GOP)   & 180h) == 180h)
                          M       if (PREV_BANK == 0)
                          M         bsf     STATUS, RP0
                          M         bsf     STATUS, RP1
                          M       endif
                          M       if (PREV_BANK == 1)
                          M         bsf     STATUS, RP1
                          M       endif
                          M       if (PREV_BANK == 2)
                          M         bsf     STATUS, RP0
                          M       endif
                          M PREV_BANK = 3
                          M     endif
                          M     if (low (_T9600) == 0)
                          M         clrf    GOP
                          M     else
0224   3002               M         movlw   low (_T9600)
0225   00B3               M         movwf   GOP
                          M     endif
                      00463         SEROUT?C        0FEh
0226   30FE               M         movlw   0FEh
                          M         L?CALL  SEROUT
                          M         RST?RP
                          M     if ((PREV_BANK & 1) != 0)
                          M         bcf     STATUS, RP0
                          M     endif
                          M     if ((PREV_BANK & 2) != 0)
                          M         bcf     STATUS, RP1
                          M     endif
  00000000                M PREV_BANK = 0
                          M 
                          M     ifdef USE_LINKER
                          M       if (CODE_SIZE > 2)
                          M         pagesel SEROUT
                          M       endif
                          M     else
                          M       if ((SEROUT) < 1)
MPASM 5.75                   I2C SCANNER.ASM   3-19-2018  12:35:42         PAGE 177


LOC  OBJECT CODE     LINE SOURCE TEXT
  VALUE

                          M         if (CODE_SIZE > 2)
                          M           if (((SEROUT) & 800h) == 0)
                          M         bcf     PCLATH, 3
                          M         else
                          M         bsf     PCLATH, 3
                          M         endif
                          M         endif
                          M         if (CODE_SIZE > 4)
                          M           if (((SEROUT) & 1000h) == 0)
                          M         bcf     PCLATH, 4
                          M           else
                          M         bsf     PCLATH, 4
                          M           endif
                          M         endif
                          M       else
                          M         if ((SEROUT) > $)
                          M           if (CODE_SIZE > 2)
                          M             if (((SEROUT) & 800h) == 0)
                          M         bcf     PCLATH, 3
                          M             else
                          M         bsf     PCLATH, 3
                          M             endif
                          M           endif
                          M           if (CODE_SIZE > 4)
                          M             if (((SEROUT) & 1000h) == 0)
                          M         bcf     PCLATH, 4
                          M             else
                          M         bsf     PCLATH, 4
                          M             endif
                          M           endif
                          M         else
                          M           if (CODE_SIZE > 2)
                          M             if (((SEROUT) & 1800h) == 0)
0227   018A               M         clrf    PCLATH
                          M             else
                          M               if (((SEROUT) & 800h) == 0)
                          M         bcf     PCLATH, 3
                          M               else
                          M         bsf     PCLATH, 3
                          M               endif
                          M               if (CODE_SIZE > 4)
                          M                 if (((SEROUT) & 1000h) == 0)
                          M         bcf     PCLATH, 4
                          M                 else
                          M         bsf     PCLATH, 4
                          M                 endif   
                          M               endif
                          M             endif
                          M           endif
                          M         endif
                          M       endif
                          M     endif
                          M 
MPASM 5.75                   I2C SCANNER.ASM   3-19-2018  12:35:42         PAGE 178


LOC  OBJECT CODE     LINE SOURCE TEXT
  VALUE

0228   206C               M         call    SEROUT
                      00464         SEROUT?C        00Ch
0229   300C               M         movlw   00Ch
                          M         L?CALL  SEROUT
                          M         RST?RP
                          M     if ((PREV_BANK & 1) != 0)
                          M         bcf     STATUS, RP0
                          M     endif
                          M     if ((PREV_BANK & 2) != 0)
                          M         bcf     STATUS, RP1
                          M     endif
  00000000                M PREV_BANK = 0
                          M 
                          M     ifdef USE_LINKER
                          M       if (CODE_SIZE > 2)
                          M         pagesel SEROUT
                          M       endif
                          M     else
                          M       if ((SEROUT) < 1)
                          M         if (CODE_SIZE > 2)
                          M           if (((SEROUT) & 800h) == 0)
                          M         bcf     PCLATH, 3
                          M         else
                          M         bsf     PCLATH, 3
                          M         endif
                          M         endif
                          M         if (CODE_SIZE > 4)
                          M           if (((SEROUT) & 1000h) == 0)
                          M         bcf     PCLATH, 4
                          M           else
                          M         bsf     PCLATH, 4
                          M           endif
                          M         endif
                          M       else
                          M         if ((SEROUT) > $)
                          M           if (CODE_SIZE > 2)
                          M             if (((SEROUT) & 800h) == 0)
                          M         bcf     PCLATH, 3
                          M             else
                          M         bsf     PCLATH, 3
                          M             endif
                          M           endif
                          M           if (CODE_SIZE > 4)
                          M             if (((SEROUT) & 1000h) == 0)
                          M         bcf     PCLATH, 4
                          M             else
                          M         bsf     PCLATH, 4
                          M             endif
                          M           endif
                          M         else
                          M           if (CODE_SIZE > 2)
                          M             if (((SEROUT) & 1800h) == 0)
022A   018A               M         clrf    PCLATH
MPASM 5.75                   I2C SCANNER.ASM   3-19-2018  12:35:42         PAGE 179


LOC  OBJECT CODE     LINE SOURCE TEXT
  VALUE

                          M             else
                          M               if (((SEROUT) & 800h) == 0)
                          M         bcf     PCLATH, 3
                          M               else
                          M         bsf     PCLATH, 3
                          M               endif
                          M               if (CODE_SIZE > 4)
                          M                 if (((SEROUT) & 1000h) == 0)
                          M         bcf     PCLATH, 4
                          M                 else
                          M         bsf     PCLATH, 4
                          M                 endif   
                          M               endif
                          M             endif
                          M           endif
                          M         endif
                          M       endif
                          M     endif
                          M 
022B   206C               M         call    SEROUT
                      00465 
                      00466 ; C:\USERS\ANDREW MCENTEE\DOCUMENTS\DEVELOPMENT\PBP3\16F688 PROGRAMS\I2C SCANNER.PBP    00098       return              
                      00467         RETURN? 
                          M     ifdef DEBUG_STACK
                          M         CHK?RP  DEBUG_STACK
                          M         decf    DEBUG_STACK, F
                          M     endif
                          M         RST?RP
                          M     if ((PREV_BANK & 1) != 0)
                          M         bcf     STATUS, RP0
                          M     endif
                          M     if ((PREV_BANK & 2) != 0)
                          M         bcf     STATUS, RP1
                          M     endif
  00000000                M PREV_BANK = 0
022C   0008               M         return
                      00468 
                      00469 ; C:\USERS\ANDREW MCENTEE\DOCUMENTS\DEVELOPMENT\PBP3\16F688 PROGRAMS\I2C SCANNER.PBP    00101   CRLF:
                      00470 
                      00471         LABEL?L _CRLF   
                          M         RST?RP
                          M     if ((PREV_BANK & 1) != 0)
                          M         bcf     STATUS, RP0
                          M     endif
                          M     if ((PREV_BANK & 2) != 0)
                          M         bcf     STATUS, RP1
                          M     endif
  00000000                M PREV_BANK = 0
                          M     ifdef PM_USED
                          M         LALL
                          M _CRLF
                          M         XALL
                          M     else
MPASM 5.75                   I2C SCANNER.ASM   3-19-2018  12:35:42         PAGE 180


LOC  OBJECT CODE     LINE SOURCE TEXT
  VALUE

022D                      M _CRLF
                          M     endif
                      00472 
                      00473 ; C:\USERS\ANDREW MCENTEE\DOCUMENTS\DEVELOPMENT\PBP3\16F688 PROGRAMS\I2C SCANNER.PBP    00102      serout DSP,T9600,[10,13]      'Show blinking cursor
                      00474         SERPIN?T        _DSP
                          M         BIT?R1  PORTA, 000h
022D   3005               M         movlw   low ((PORTA) + ((000h)  >> 3))
                          M         CHK?RP  RR1
                          M     if (((RR1)   & 180h) == 0)
                          M       if (PREV_BANK == 1)
                          M         bcf     STATUS, RP0
                          M       endif
                          M       if (PREV_BANK == 2)
                          M         bcf     STATUS, RP1
                          M       endif
                          M       if (PREV_BANK == 3)
                          M         bcf     STATUS, RP0
                          M         bcf     STATUS, RP1
                          M       endif
  00000000                M PREV_BANK = 0
                          M     endif
                          M 
                          M     if (((RR1)   & 180h) == 80h)
                          M       if (PREV_BANK == 0)
                          M         bsf     STATUS, RP0
                          M       endif
                          M       if (PREV_BANK == 2)
                          M         bsf     STATUS, RP0
                          M         bcf     STATUS, RP1
                          M       endif
                          M       if (PREV_BANK == 3)
                          M         bcf     STATUS, RP1
                          M       endif
                          M PREV_BANK = 1
                          M     endif
                          M 
                          M     if (((RR1)   & 180h) == 100h)
                          M       if (PREV_BANK == 0)
                          M         bsf     STATUS, RP1
                          M       endif
                          M       if (PREV_BANK == 1)
                          M         bcf     STATUS, RP0
                          M         bsf     STATUS, RP1
                          M       endif
                          M       if (PREV_BANK == 3)
                          M         bcf     STATUS, RP0
                          M       endif
                          M PREV_BANK = 2
                          M     endif
                          M 
                          M     if (((RR1)   & 180h) == 180h)
                          M       if (PREV_BANK == 0)
                          M         bsf     STATUS, RP0
MPASM 5.75                   I2C SCANNER.ASM   3-19-2018  12:35:42         PAGE 181


LOC  OBJECT CODE     LINE SOURCE TEXT
  VALUE

                          M         bsf     STATUS, RP1
                          M       endif
                          M       if (PREV_BANK == 1)
                          M         bsf     STATUS, RP1
                          M       endif
                          M       if (PREV_BANK == 2)
                          M         bsf     STATUS, RP0
                          M       endif
                          M PREV_BANK = 3
                          M     endif
022E   00B6               M         movwf   RR1
                          M         BIT?W   000h
                          M     if (((000h)  & 7) == 0)
022F   3001               M         movlw   01h
                          M     endif
                          M     if (((000h)  & 7) == 1)
                          M         movlw   02h
                          M     endif
                          M     if (((000h)  & 7) == 2)
                          M         movlw   04h
                          M     endif
                          M     if (((000h)  & 7) == 3)
                          M         movlw   08h
                          M     endif
                          M     if (((000h)  & 7) == 4)
                          M         movlw   10h
                          M     endif
                          M     if (((000h)  & 7) == 5)
                          M         movlw   20h
                          M     endif
                          M     if (((000h)  & 7) == 6)
                          M         movlw   40h
                          M     endif
                          M     if (((000h)  & 7) == 7)
                          M         movlw   80h
                          M     endif
0230   00B4               M         movwf   RM1
                      00475         SERMODE?C       _T9600
                          M         MOVE?CB _T9600, GOP
                          M         CHK?RP  GOP
                          M     if (((GOP)   & 180h) == 0)
                          M       if (PREV_BANK == 1)
                          M         bcf     STATUS, RP0
                          M       endif
                          M       if (PREV_BANK == 2)
                          M         bcf     STATUS, RP1
                          M       endif
                          M       if (PREV_BANK == 3)
                          M         bcf     STATUS, RP0
                          M         bcf     STATUS, RP1
                          M       endif
  00000000                M PREV_BANK = 0
                          M     endif
MPASM 5.75                   I2C SCANNER.ASM   3-19-2018  12:35:42         PAGE 182


LOC  OBJECT CODE     LINE SOURCE TEXT
  VALUE

                          M 
                          M     if (((GOP)   & 180h) == 80h)
                          M       if (PREV_BANK == 0)
                          M         bsf     STATUS, RP0
                          M       endif
                          M       if (PREV_BANK == 2)
                          M         bsf     STATUS, RP0
                          M         bcf     STATUS, RP1
                          M       endif
                          M       if (PREV_BANK == 3)
                          M         bcf     STATUS, RP1
                          M       endif
                          M PREV_BANK = 1
                          M     endif
                          M 
                          M     if (((GOP)   & 180h) == 100h)
                          M       if (PREV_BANK == 0)
                          M         bsf     STATUS, RP1
                          M       endif
                          M       if (PREV_BANK == 1)
                          M         bcf     STATUS, RP0
                          M         bsf     STATUS, RP1
                          M       endif
                          M       if (PREV_BANK == 3)
                          M         bcf     STATUS, RP0
                          M       endif
                          M PREV_BANK = 2
                          M     endif
                          M 
                          M     if (((GOP)   & 180h) == 180h)
                          M       if (PREV_BANK == 0)
                          M         bsf     STATUS, RP0
                          M         bsf     STATUS, RP1
                          M       endif
                          M       if (PREV_BANK == 1)
                          M         bsf     STATUS, RP1
                          M       endif
                          M       if (PREV_BANK == 2)
                          M         bsf     STATUS, RP0
                          M       endif
                          M PREV_BANK = 3
                          M     endif
                          M     if (low (_T9600) == 0)
                          M         clrf    GOP
                          M     else
0231   3002               M         movlw   low (_T9600)
0232   00B3               M         movwf   GOP
                          M     endif
                      00476         SEROUT?C        00Ah
0233   300A               M         movlw   00Ah
                          M         L?CALL  SEROUT
                          M         RST?RP
                          M     if ((PREV_BANK & 1) != 0)
MPASM 5.75                   I2C SCANNER.ASM   3-19-2018  12:35:42         PAGE 183


LOC  OBJECT CODE     LINE SOURCE TEXT
  VALUE

                          M         bcf     STATUS, RP0
                          M     endif
                          M     if ((PREV_BANK & 2) != 0)
                          M         bcf     STATUS, RP1
                          M     endif
  00000000                M PREV_BANK = 0
                          M 
                          M     ifdef USE_LINKER
                          M       if (CODE_SIZE > 2)
                          M         pagesel SEROUT
                          M       endif
                          M     else
                          M       if ((SEROUT) < 1)
                          M         if (CODE_SIZE > 2)
                          M           if (((SEROUT) & 800h) == 0)
                          M         bcf     PCLATH, 3
                          M         else
                          M         bsf     PCLATH, 3
                          M         endif
                          M         endif
                          M         if (CODE_SIZE > 4)
                          M           if (((SEROUT) & 1000h) == 0)
                          M         bcf     PCLATH, 4
                          M           else
                          M         bsf     PCLATH, 4
                          M           endif
                          M         endif
                          M       else
                          M         if ((SEROUT) > $)
                          M           if (CODE_SIZE > 2)
                          M             if (((SEROUT) & 800h) == 0)
                          M         bcf     PCLATH, 3
                          M             else
                          M         bsf     PCLATH, 3
                          M             endif
                          M           endif
                          M           if (CODE_SIZE > 4)
                          M             if (((SEROUT) & 1000h) == 0)
                          M         bcf     PCLATH, 4
                          M             else
                          M         bsf     PCLATH, 4
                          M             endif
                          M           endif
                          M         else
                          M           if (CODE_SIZE > 2)
                          M             if (((SEROUT) & 1800h) == 0)
0234   018A               M         clrf    PCLATH
                          M             else
                          M               if (((SEROUT) & 800h) == 0)
                          M         bcf     PCLATH, 3
                          M               else
                          M         bsf     PCLATH, 3
                          M               endif
MPASM 5.75                   I2C SCANNER.ASM   3-19-2018  12:35:42         PAGE 184


LOC  OBJECT CODE     LINE SOURCE TEXT
  VALUE

                          M               if (CODE_SIZE > 4)
                          M                 if (((SEROUT) & 1000h) == 0)
                          M         bcf     PCLATH, 4
                          M                 else
                          M         bsf     PCLATH, 4
                          M                 endif   
                          M               endif
                          M             endif
                          M           endif
                          M         endif
                          M       endif
                          M     endif
                          M 
0235   206C               M         call    SEROUT
                      00477         SEROUT?C        00Dh
0236   300D               M         movlw   00Dh
                          M         L?CALL  SEROUT
                          M         RST?RP
                          M     if ((PREV_BANK & 1) != 0)
                          M         bcf     STATUS, RP0
                          M     endif
                          M     if ((PREV_BANK & 2) != 0)
                          M         bcf     STATUS, RP1
                          M     endif
  00000000                M PREV_BANK = 0
                          M 
                          M     ifdef USE_LINKER
                          M       if (CODE_SIZE > 2)
                          M         pagesel SEROUT
                          M       endif
                          M     else
                          M       if ((SEROUT) < 1)
                          M         if (CODE_SIZE > 2)
                          M           if (((SEROUT) & 800h) == 0)
                          M         bcf     PCLATH, 3
                          M         else
                          M         bsf     PCLATH, 3
                          M         endif
                          M         endif
                          M         if (CODE_SIZE > 4)
                          M           if (((SEROUT) & 1000h) == 0)
                          M         bcf     PCLATH, 4
                          M           else
                          M         bsf     PCLATH, 4
                          M           endif
                          M         endif
                          M       else
                          M         if ((SEROUT) > $)
                          M           if (CODE_SIZE > 2)
                          M             if (((SEROUT) & 800h) == 0)
                          M         bcf     PCLATH, 3
                          M             else
                          M         bsf     PCLATH, 3
MPASM 5.75                   I2C SCANNER.ASM   3-19-2018  12:35:42         PAGE 185


LOC  OBJECT CODE     LINE SOURCE TEXT
  VALUE

                          M             endif
                          M           endif
                          M           if (CODE_SIZE > 4)
                          M             if (((SEROUT) & 1000h) == 0)
                          M         bcf     PCLATH, 4
                          M             else
                          M         bsf     PCLATH, 4
                          M             endif
                          M           endif
                          M         else
                          M           if (CODE_SIZE > 2)
                          M             if (((SEROUT) & 1800h) == 0)
0237   018A               M         clrf    PCLATH
                          M             else
                          M               if (((SEROUT) & 800h) == 0)
                          M         bcf     PCLATH, 3
                          M               else
                          M         bsf     PCLATH, 3
                          M               endif
                          M               if (CODE_SIZE > 4)
                          M                 if (((SEROUT) & 1000h) == 0)
                          M         bcf     PCLATH, 4
                          M                 else
                          M         bsf     PCLATH, 4
                          M                 endif   
                          M               endif
                          M             endif
                          M           endif
                          M         endif
                          M       endif
                          M     endif
                          M 
0238   206C               M         call    SEROUT
                      00478 
                      00479 ; C:\USERS\ANDREW MCENTEE\DOCUMENTS\DEVELOPMENT\PBP3\16F688 PROGRAMS\I2C SCANNER.PBP    00103      return       
                      00480         RETURN? 
                          M     ifdef DEBUG_STACK
                          M         CHK?RP  DEBUG_STACK
                          M         decf    DEBUG_STACK, F
                          M     endif
                          M         RST?RP
                          M     if ((PREV_BANK & 1) != 0)
                          M         bcf     STATUS, RP0
                          M     endif
                          M     if ((PREV_BANK & 2) != 0)
                          M         bcf     STATUS, RP1
                          M     endif
  00000000                M PREV_BANK = 0
0239   0008               M         return
                      00481 
                      00482 ; C:\USERS\ANDREW MCENTEE\DOCUMENTS\DEVELOPMENT\PBP3\16F688 PROGRAMS\I2C SCANNER.PBP    00105   INIT_BLINK:
                      00483 
                      00484         LABEL?L _init_blink     
MPASM 5.75                   I2C SCANNER.ASM   3-19-2018  12:35:42         PAGE 186


LOC  OBJECT CODE     LINE SOURCE TEXT
  VALUE

                          M         RST?RP
                          M     if ((PREV_BANK & 1) != 0)
                          M         bcf     STATUS, RP0
                          M     endif
                          M     if ((PREV_BANK & 2) != 0)
                          M         bcf     STATUS, RP1
                          M     endif
  00000000                M PREV_BANK = 0
                          M     ifdef PM_USED
                          M         LALL
                          M _init_blink
                          M         XALL
                          M     else
023A                      M _init_blink
                          M     endif
                      00485 
                      00486 ; C:\USERS\ANDREW MCENTEE\DOCUMENTS\DEVELOPMENT\PBP3\16F688 PROGRAMS\I2C SCANNER.PBP    00106           for I = 0 to 1
                      00487         MOVE?CB 000h, _I
                          M         CHK?RP  _I
                          M     if (((_I)    & 180h) == 0)
                          M       if (PREV_BANK == 1)
                          M         bcf     STATUS, RP0
                          M       endif
                          M       if (PREV_BANK == 2)
                          M         bcf     STATUS, RP1
                          M       endif
                          M       if (PREV_BANK == 3)
                          M         bcf     STATUS, RP0
                          M         bcf     STATUS, RP1
                          M       endif
  00000000                M PREV_BANK = 0
                          M     endif
                          M 
                          M     if (((_I)    & 180h) == 80h)
                          M       if (PREV_BANK == 0)
                          M         bsf     STATUS, RP0
                          M       endif
                          M       if (PREV_BANK == 2)
                          M         bsf     STATUS, RP0
                          M         bcf     STATUS, RP1
                          M       endif
                          M       if (PREV_BANK == 3)
                          M         bcf     STATUS, RP1
                          M       endif
                          M PREV_BANK = 1
                          M     endif
                          M 
                          M     if (((_I)    & 180h) == 100h)
                          M       if (PREV_BANK == 0)
                          M         bsf     STATUS, RP1
                          M       endif
                          M       if (PREV_BANK == 1)
                          M         bcf     STATUS, RP0
MPASM 5.75                   I2C SCANNER.ASM   3-19-2018  12:35:42         PAGE 187


LOC  OBJECT CODE     LINE SOURCE TEXT
  VALUE

                          M         bsf     STATUS, RP1
                          M       endif
                          M       if (PREV_BANK == 3)
                          M         bcf     STATUS, RP0
                          M       endif
                          M PREV_BANK = 2
                          M     endif
                          M 
                          M     if (((_I)    & 180h) == 180h)
                          M       if (PREV_BANK == 0)
                          M         bsf     STATUS, RP0
                          M         bsf     STATUS, RP1
                          M       endif
                          M       if (PREV_BANK == 1)
                          M         bsf     STATUS, RP1
                          M       endif
                          M       if (PREV_BANK == 2)
                          M         bsf     STATUS, RP0
                          M       endif
                          M PREV_BANK = 3
                          M     endif
                          M     if (low (000h) == 0)
023A   01BB               M         clrf    _I
                          M     else
                          M         movlw   low (000h)
                          M         movwf   _I
                          M     endif
                      00488         LABEL?L L00009  
                          M         RST?RP
                          M     if ((PREV_BANK & 1) != 0)
                          M         bcf     STATUS, RP0
                          M     endif
                          M     if ((PREV_BANK & 2) != 0)
                          M         bcf     STATUS, RP1
                          M     endif
  00000000                M PREV_BANK = 0
                          M     ifdef PM_USED
                          M         LALL
                          M L00009
                          M         XALL
                          M     else
023B                      M L00009
                          M     endif
                      00489         CMPGT?BCL       _I, 001h, L00010
                          M     if ((001h) < 0)
                          M         L?GOTO  L00010
                          M     else
                          M       if ((001h) < 0ffh)
                          M         CLRWDT?
                          M     ifndef NO_CLRWDT
023B   0064               M         clrwdt
                          M     endif
                          M         MOVE?CA (001h) + 1
MPASM 5.75                   I2C SCANNER.ASM   3-19-2018  12:35:42         PAGE 188


LOC  OBJECT CODE     LINE SOURCE TEXT
  VALUE

023C   3002               M         movlw   low ((001h) + 1)
                          M         CHK?RP  _I
                          M     if (((_I)    & 180h) == 0)
                          M       if (PREV_BANK == 1)
                          M         bcf     STATUS, RP0
                          M       endif
                          M       if (PREV_BANK == 2)
                          M         bcf     STATUS, RP1
                          M       endif
                          M       if (PREV_BANK == 3)
                          M         bcf     STATUS, RP0
                          M         bcf     STATUS, RP1
                          M       endif
  00000000                M PREV_BANK = 0
                          M     endif
                          M 
                          M     if (((_I)    & 180h) == 80h)
                          M       if (PREV_BANK == 0)
                          M         bsf     STATUS, RP0
                          M       endif
                          M       if (PREV_BANK == 2)
                          M         bsf     STATUS, RP0
                          M         bcf     STATUS, RP1
                          M       endif
                          M       if (PREV_BANK == 3)
                          M         bcf     STATUS, RP1
                          M       endif
                          M PREV_BANK = 1
                          M     endif
                          M 
                          M     if (((_I)    & 180h) == 100h)
                          M       if (PREV_BANK == 0)
                          M         bsf     STATUS, RP1
                          M       endif
                          M       if (PREV_BANK == 1)
                          M         bcf     STATUS, RP0
                          M         bsf     STATUS, RP1
                          M       endif
                          M       if (PREV_BANK == 3)
                          M         bcf     STATUS, RP0
                          M       endif
                          M PREV_BANK = 2
                          M     endif
                          M 
                          M     if (((_I)    & 180h) == 180h)
                          M       if (PREV_BANK == 0)
                          M         bsf     STATUS, RP0
                          M         bsf     STATUS, RP1
                          M       endif
                          M       if (PREV_BANK == 1)
                          M         bsf     STATUS, RP1
                          M       endif
                          M       if (PREV_BANK == 2)
MPASM 5.75                   I2C SCANNER.ASM   3-19-2018  12:35:42         PAGE 189


LOC  OBJECT CODE     LINE SOURCE TEXT
  VALUE

                          M         bsf     STATUS, RP0
                          M       endif
                          M PREV_BANK = 3
                          M     endif
023D   023B               M         subwf   _I,  W
                          M         BIT?GOTO 1, STATUS, C, L00010
                          M     ifdef USE_LINKER
                          M         CLRWDT?
                          M     else
                          M       if ($ == (L00010))
                          M         CLRWDT?
                          M       endif
                          M     endif
                          M 
                          M     ifdef USE_LINKER
                          M       if (CODE_SIZE > 2)
                          M         pagesel L00010
                          M       endif
                          M     else
                          M       if (CODE_SIZE > 2)
                          M         if (((L00010) & 800h) == 0)
023E   118A               M         bcf     PCLATH, 3
                          M         else
                          M         bsf     PCLATH, 3
                          M         endif
                          M       endif
                          M       if (CODE_SIZE > 4)
                          M         if (((L00010) & 1000h) == 0)
                          M         bcf     PCLATH, 4
                          M         else
                          M         bsf     PCLATH, 4
                          M         endif
                          M       endif
                          M     endif
                          M 
                          M     if (((STATUS) & 0ff80h) != 0)
                          M         CHK?RP  STATUS
                          M         bcf     STATUS, DC
                          M       if ((1)      == 0)
                          M         btfss   STATUS, C
                          M       else
                          M         btfsc   STATUS, C
                          M       endif
                          M         bsf     STATUS, DC
                          M         RST?RP
                          M         btfsc   STATUS, DC
                          M     else
                          M         RST?RP
                          M     if ((PREV_BANK & 1) != 0)
                          M         bcf     STATUS, RP0
                          M     endif
                          M     if ((PREV_BANK & 2) != 0)
                          M         bcf     STATUS, RP1
MPASM 5.75                   I2C SCANNER.ASM   3-19-2018  12:35:42         PAGE 190


LOC  OBJECT CODE     LINE SOURCE TEXT
  VALUE

                          M     endif
  00000000                M PREV_BANK = 0
                          M       if ((1)      == 0)
                          M         btfss   STATUS, C
                          M       else
023F   1803               M         btfsc   STATUS, C
                          M       endif
                          M     endif
                          M 
0240   2A4D               M         goto    L00010
                          M       endif
                          M     endif
                      00490 
                      00491 ; C:\USERS\ANDREW MCENTEE\DOCUMENTS\DEVELOPMENT\PBP3\16F688 PROGRAMS\I2C SCANNER.PBP    00107                           LED = 1
                      00492         MOVE?CT 001h, _LED
                          M         CHK?RP  PORTC
                          M     if (((PORTC) & 180h) == 0)
                          M       if (PREV_BANK == 1)
                          M         bcf     STATUS, RP0
                          M       endif
                          M       if (PREV_BANK == 2)
                          M         bcf     STATUS, RP1
                          M       endif
                          M       if (PREV_BANK == 3)
                          M         bcf     STATUS, RP0
                          M         bcf     STATUS, RP1
                          M       endif
  00000000                M PREV_BANK = 0
                          M     endif
                          M 
                          M     if (((PORTC) & 180h) == 80h)
                          M       if (PREV_BANK == 0)
                          M         bsf     STATUS, RP0
                          M       endif
                          M       if (PREV_BANK == 2)
                          M         bsf     STATUS, RP0
                          M         bcf     STATUS, RP1
                          M       endif
                          M       if (PREV_BANK == 3)
                          M         bcf     STATUS, RP1
                          M       endif
                          M PREV_BANK = 1
                          M     endif
                          M 
                          M     if (((PORTC) & 180h) == 100h)
                          M       if (PREV_BANK == 0)
                          M         bsf     STATUS, RP1
                          M       endif
                          M       if (PREV_BANK == 1)
                          M         bcf     STATUS, RP0
                          M         bsf     STATUS, RP1
                          M       endif
                          M       if (PREV_BANK == 3)
MPASM 5.75                   I2C SCANNER.ASM   3-19-2018  12:35:42         PAGE 191


LOC  OBJECT CODE     LINE SOURCE TEXT
  VALUE

                          M         bcf     STATUS, RP0
                          M       endif
                          M PREV_BANK = 2
                          M     endif
                          M 
                          M     if (((PORTC) & 180h) == 180h)
                          M       if (PREV_BANK == 0)
                          M         bsf     STATUS, RP0
                          M         bsf     STATUS, RP1
                          M       endif
                          M       if (PREV_BANK == 1)
                          M         bsf     STATUS, RP1
                          M       endif
                          M       if (PREV_BANK == 2)
                          M         bsf     STATUS, RP0
                          M       endif
                          M PREV_BANK = 3
                          M     endif
                          M     if (((001h) & 1) == 1)
0241   1507               M         bsf     PORTC,  002h
                          M     else
                          M         bcf     PORTC,  002h
                          M     endif
                      00493 
                      00494 ; C:\USERS\ANDREW MCENTEE\DOCUMENTS\DEVELOPMENT\PBP3\16F688 PROGRAMS\I2C SCANNER.PBP    00108                           pause 100
                      00495         PAUSE?C 064h
                          M     if (((064h) >> 8) == 0)
                          M         MOVE?CA 064h
0242   3064               M         movlw   low (064h)
                          M         L?CALL  PAUSE
                          M         RST?RP
                          M     if ((PREV_BANK & 1) != 0)
                          M         bcf     STATUS, RP0
                          M     endif
                          M     if ((PREV_BANK & 2) != 0)
                          M         bcf     STATUS, RP1
                          M     endif
  00000000                M PREV_BANK = 0
                          M 
                          M     ifdef USE_LINKER
                          M       if (CODE_SIZE > 2)
                          M         pagesel PAUSE
                          M       endif
                          M     else
                          M       if ((PAUSE) < 1)
                          M         if (CODE_SIZE > 2)
                          M           if (((PAUSE) & 800h) == 0)
                          M         bcf     PCLATH, 3
                          M         else
                          M         bsf     PCLATH, 3
                          M         endif
                          M         endif
                          M         if (CODE_SIZE > 4)
MPASM 5.75                   I2C SCANNER.ASM   3-19-2018  12:35:42         PAGE 192


LOC  OBJECT CODE     LINE SOURCE TEXT
  VALUE

                          M           if (((PAUSE) & 1000h) == 0)
                          M         bcf     PCLATH, 4
                          M           else
                          M         bsf     PCLATH, 4
                          M           endif
                          M         endif
                          M       else
                          M         if ((PAUSE) > $)
                          M           if (CODE_SIZE > 2)
                          M             if (((PAUSE) & 800h) == 0)
                          M         bcf     PCLATH, 3
                          M             else
                          M         bsf     PCLATH, 3
                          M             endif
                          M           endif
                          M           if (CODE_SIZE > 4)
                          M             if (((PAUSE) & 1000h) == 0)
                          M         bcf     PCLATH, 4
                          M             else
                          M         bsf     PCLATH, 4
                          M             endif
                          M           endif
                          M         else
                          M           if (CODE_SIZE > 2)
                          M             if (((PAUSE) & 1800h) == 0)
0243   018A               M         clrf    PCLATH
                          M             else
                          M               if (((PAUSE) & 800h) == 0)
                          M         bcf     PCLATH, 3
                          M               else
                          M         bsf     PCLATH, 3
                          M               endif
                          M               if (CODE_SIZE > 4)
                          M                 if (((PAUSE) & 1000h) == 0)
                          M         bcf     PCLATH, 4
                          M                 else
                          M         bsf     PCLATH, 4
                          M                 endif   
                          M               endif
                          M             endif
                          M           endif
                          M         endif
                          M       endif
                          M     endif
                          M 
0244   20AB               M         call    PAUSE
                          M     else
                          M         MOVE?CB (064h) >> 8, R1 + 1
                          M         MOVE?CA low (064h)
                          M         L?CALL  PAUSEL
                          M     endif
                      00496 
                      00497 ; C:\USERS\ANDREW MCENTEE\DOCUMENTS\DEVELOPMENT\PBP3\16F688 PROGRAMS\I2C SCANNER.PBP    00109                           LED = 0
MPASM 5.75                   I2C SCANNER.ASM   3-19-2018  12:35:42         PAGE 193


LOC  OBJECT CODE     LINE SOURCE TEXT
  VALUE

                      00498         MOVE?CT 000h, _LED
                          M         CHK?RP  PORTC
                          M     if (((PORTC) & 180h) == 0)
                          M       if (PREV_BANK == 1)
                          M         bcf     STATUS, RP0
                          M       endif
                          M       if (PREV_BANK == 2)
                          M         bcf     STATUS, RP1
                          M       endif
                          M       if (PREV_BANK == 3)
                          M         bcf     STATUS, RP0
                          M         bcf     STATUS, RP1
                          M       endif
  00000000                M PREV_BANK = 0
                          M     endif
                          M 
                          M     if (((PORTC) & 180h) == 80h)
                          M       if (PREV_BANK == 0)
                          M         bsf     STATUS, RP0
                          M       endif
                          M       if (PREV_BANK == 2)
                          M         bsf     STATUS, RP0
                          M         bcf     STATUS, RP1
                          M       endif
                          M       if (PREV_BANK == 3)
                          M         bcf     STATUS, RP1
                          M       endif
                          M PREV_BANK = 1
                          M     endif
                          M 
                          M     if (((PORTC) & 180h) == 100h)
                          M       if (PREV_BANK == 0)
                          M         bsf     STATUS, RP1
                          M       endif
                          M       if (PREV_BANK == 1)
                          M         bcf     STATUS, RP0
                          M         bsf     STATUS, RP1
                          M       endif
                          M       if (PREV_BANK == 3)
                          M         bcf     STATUS, RP0
                          M       endif
                          M PREV_BANK = 2
                          M     endif
                          M 
                          M     if (((PORTC) & 180h) == 180h)
                          M       if (PREV_BANK == 0)
                          M         bsf     STATUS, RP0
                          M         bsf     STATUS, RP1
                          M       endif
                          M       if (PREV_BANK == 1)
                          M         bsf     STATUS, RP1
                          M       endif
                          M       if (PREV_BANK == 2)
MPASM 5.75                   I2C SCANNER.ASM   3-19-2018  12:35:42         PAGE 194


LOC  OBJECT CODE     LINE SOURCE TEXT
  VALUE

                          M         bsf     STATUS, RP0
                          M       endif
                          M PREV_BANK = 3
                          M     endif
                          M     if (((000h) & 1) == 1)
                          M         bsf     PORTC,  002h
                          M     else
0245   1107               M         bcf     PORTC,  002h
                          M     endif
                      00499 
                      00500 ; C:\USERS\ANDREW MCENTEE\DOCUMENTS\DEVELOPMENT\PBP3\16F688 PROGRAMS\I2C SCANNER.PBP    00110                           pause 100
                      00501         PAUSE?C 064h
                          M     if (((064h) >> 8) == 0)
                          M         MOVE?CA 064h
0246   3064               M         movlw   low (064h)
                          M         L?CALL  PAUSE
                          M         RST?RP
                          M     if ((PREV_BANK & 1) != 0)
                          M         bcf     STATUS, RP0
                          M     endif
                          M     if ((PREV_BANK & 2) != 0)
                          M         bcf     STATUS, RP1
                          M     endif
  00000000                M PREV_BANK = 0
                          M 
                          M     ifdef USE_LINKER
                          M       if (CODE_SIZE > 2)
                          M         pagesel PAUSE
                          M       endif
                          M     else
                          M       if ((PAUSE) < 1)
                          M         if (CODE_SIZE > 2)
                          M           if (((PAUSE) & 800h) == 0)
                          M         bcf     PCLATH, 3
                          M         else
                          M         bsf     PCLATH, 3
                          M         endif
                          M         endif
                          M         if (CODE_SIZE > 4)
                          M           if (((PAUSE) & 1000h) == 0)
                          M         bcf     PCLATH, 4
                          M           else
                          M         bsf     PCLATH, 4
                          M           endif
                          M         endif
                          M       else
                          M         if ((PAUSE) > $)
                          M           if (CODE_SIZE > 2)
                          M             if (((PAUSE) & 800h) == 0)
                          M         bcf     PCLATH, 3
                          M             else
                          M         bsf     PCLATH, 3
                          M             endif
MPASM 5.75                   I2C SCANNER.ASM   3-19-2018  12:35:42         PAGE 195


LOC  OBJECT CODE     LINE SOURCE TEXT
  VALUE

                          M           endif
                          M           if (CODE_SIZE > 4)
                          M             if (((PAUSE) & 1000h) == 0)
                          M         bcf     PCLATH, 4
                          M             else
                          M         bsf     PCLATH, 4
                          M             endif
                          M           endif
                          M         else
                          M           if (CODE_SIZE > 2)
                          M             if (((PAUSE) & 1800h) == 0)
0247   018A               M         clrf    PCLATH
                          M             else
                          M               if (((PAUSE) & 800h) == 0)
                          M         bcf     PCLATH, 3
                          M               else
                          M         bsf     PCLATH, 3
                          M               endif
                          M               if (CODE_SIZE > 4)
                          M                 if (((PAUSE) & 1000h) == 0)
                          M         bcf     PCLATH, 4
                          M                 else
                          M         bsf     PCLATH, 4
                          M                 endif   
                          M               endif
                          M             endif
                          M           endif
                          M         endif
                          M       endif
                          M     endif
                          M 
0248   20AB               M         call    PAUSE
                          M     else
                          M         MOVE?CB (064h) >> 8, R1 + 1
                          M         MOVE?CA low (064h)
                          M         L?CALL  PAUSEL
                          M     endif
                      00502 
                      00503 ; C:\USERS\ANDREW MCENTEE\DOCUMENTS\DEVELOPMENT\PBP3\16F688 PROGRAMS\I2C SCANNER.PBP    00111                           next I 
                      00504         NEXT?BCL        _I, 001h, L00009
                          M     if ((001h) == 1)
                          M         CHK?RP  _I
                          M     if (((_I)    & 180h) == 0)
                          M       if (PREV_BANK == 1)
                          M         bcf     STATUS, RP0
                          M       endif
                          M       if (PREV_BANK == 2)
                          M         bcf     STATUS, RP1
                          M       endif
                          M       if (PREV_BANK == 3)
                          M         bcf     STATUS, RP0
                          M         bcf     STATUS, RP1
                          M       endif
MPASM 5.75                   I2C SCANNER.ASM   3-19-2018  12:35:42         PAGE 196


LOC  OBJECT CODE     LINE SOURCE TEXT
  VALUE

  00000000                M PREV_BANK = 0
                          M     endif
                          M 
                          M     if (((_I)    & 180h) == 80h)
                          M       if (PREV_BANK == 0)
                          M         bsf     STATUS, RP0
                          M       endif
                          M       if (PREV_BANK == 2)
                          M         bsf     STATUS, RP0
                          M         bcf     STATUS, RP1
                          M       endif
                          M       if (PREV_BANK == 3)
                          M         bcf     STATUS, RP1
                          M       endif
                          M PREV_BANK = 1
                          M     endif
                          M 
                          M     if (((_I)    & 180h) == 100h)
                          M       if (PREV_BANK == 0)
                          M         bsf     STATUS, RP1
                          M       endif
                          M       if (PREV_BANK == 1)
                          M         bcf     STATUS, RP0
                          M         bsf     STATUS, RP1
                          M       endif
                          M       if (PREV_BANK == 3)
                          M         bcf     STATUS, RP0
                          M       endif
                          M PREV_BANK = 2
                          M     endif
                          M 
                          M     if (((_I)    & 180h) == 180h)
                          M       if (PREV_BANK == 0)
                          M         bsf     STATUS, RP0
                          M         bsf     STATUS, RP1
                          M       endif
                          M       if (PREV_BANK == 1)
                          M         bsf     STATUS, RP1
                          M       endif
                          M       if (PREV_BANK == 2)
                          M         bsf     STATUS, RP0
                          M       endif
                          M PREV_BANK = 3
                          M     endif
                          M       if ((PREV_BANK == 0) & (CODE_SIZE <= 2))
                          M         incfsz  _I,  F
                          M         goto    L00009
                          M       else
0249   0ABB               M         incf    _I,  F
                          M         BIT?GOTO 0, STATUS, Z, L00009
                          M     ifdef USE_LINKER
                          M         CLRWDT?
                          M     else
MPASM 5.75                   I2C SCANNER.ASM   3-19-2018  12:35:42         PAGE 197


LOC  OBJECT CODE     LINE SOURCE TEXT
  VALUE

                          M       if ($ == (L00009))
                          M         CLRWDT?
                          M       endif
                          M     endif
                          M 
                          M     ifdef USE_LINKER
                          M       if (CODE_SIZE > 2)
                          M         pagesel L00009
                          M       endif
                          M     else
                          M       if (CODE_SIZE > 2)
                          M         if (((L00009) & 800h) == 0)
024A   118A               M         bcf     PCLATH, 3
                          M         else
                          M         bsf     PCLATH, 3
                          M         endif
                          M       endif
                          M       if (CODE_SIZE > 4)
                          M         if (((L00009) & 1000h) == 0)
                          M         bcf     PCLATH, 4
                          M         else
                          M         bsf     PCLATH, 4
                          M         endif
                          M       endif
                          M     endif
                          M 
                          M     if (((STATUS) & 0ff80h) != 0)
                          M         CHK?RP  STATUS
                          M         bcf     STATUS, DC
                          M       if ((0)      == 0)
                          M         btfss   STATUS, Z
                          M       else
                          M         btfsc   STATUS, Z
                          M       endif
                          M         bsf     STATUS, DC
                          M         RST?RP
                          M         btfsc   STATUS, DC
                          M     else
                          M         RST?RP
                          M     if ((PREV_BANK & 1) != 0)
                          M         bcf     STATUS, RP0
                          M     endif
                          M     if ((PREV_BANK & 2) != 0)
                          M         bcf     STATUS, RP1
                          M     endif
  00000000                M PREV_BANK = 0
                          M       if ((0)      == 0)
024B   1D03               M         btfss   STATUS, Z
                          M       else
                          M         btfsc   STATUS, Z
                          M       endif
                          M     endif
                          M 
MPASM 5.75                   I2C SCANNER.ASM   3-19-2018  12:35:42         PAGE 198


LOC  OBJECT CODE     LINE SOURCE TEXT
  VALUE

024C   2A3B               M         goto    L00009
                          M       endif
                          M     else
                          M         movlw   001h
                          M         CHK?RP  _I
                          M         addwf   _I,  F
                          M       if ((001h) <= 255)
                          M         BIT?GOTO 0, STATUS, C, L00009
                          M       endif
                          M     endif
                      00505         LABEL?L L00010  
                          M         RST?RP
                          M     if ((PREV_BANK & 1) != 0)
                          M         bcf     STATUS, RP0
                          M     endif
                          M     if ((PREV_BANK & 2) != 0)
                          M         bcf     STATUS, RP1
                          M     endif
  00000000                M PREV_BANK = 0
                          M     ifdef PM_USED
                          M         LALL
                          M L00010
                          M         XALL
                          M     else
024D                      M L00010
                          M     endif
                      00506 
                      00507 ; C:\USERS\ANDREW MCENTEE\DOCUMENTS\DEVELOPMENT\PBP3\16F688 PROGRAMS\I2C SCANNER.PBP    00112           return
                      00508         RETURN? 
                          M     ifdef DEBUG_STACK
                          M         CHK?RP  DEBUG_STACK
                          M         decf    DEBUG_STACK, F
                          M     endif
                          M         RST?RP
                          M     if ((PREV_BANK & 1) != 0)
                          M         bcf     STATUS, RP0
                          M     endif
                          M     if ((PREV_BANK & 2) != 0)
                          M         bcf     STATUS, RP1
                          M     endif
  00000000                M PREV_BANK = 0
024D   0008               M         return
                      00509 
                      00510         END
MPASM 5.75                   I2C SCANNER.ASM   3-19-2018  12:35:42         PAGE 199


SYMBOL TABLE
  LABEL                             VALUE 

ABDEN                             00000000
ABDOVF                            00000007
ADCON0                            0000001F
ADCON1                            0000009F
ADCS0                             00000004
ADCS1                             00000005
ADCS2                             00000006
ADC_BITS                          00000008
ADC_CLOCK                         00000003
ADC_SAMPLEUS                      00000032
ADD?BCB                           
ADDEN                             00000003
ADFM                              00000007
ADIE                              00000006
ADIF                              00000006
ADON                              00000000
ADRESH                            0000001E
ADRESL                            0000009E
ANS0                              00000000
ANS1                              00000001
ANS2                              00000002
ANS3                              00000003
ANS4                              00000004
ANS5                              00000005
ANS6                              00000006
ANS7                              00000007
ANSEL                             00000091
BANK0_END                         0000007F
BANK0_START                       00000020
BANK1_END                         000000EF
BANK1_START                       000000A0
BANK2_END                         0000016F
BANK2_START                       00000120
BAUDCTL                           00000011
BIT?FLIP                          
BIT?FW                            
BIT?GOTO                          
BIT?R1                            
BIT?R2                            
BIT?W                             
BRG16                             00000003
BRGH                              00000002
BUTTON_PAUSE                      0000000A
C                                 00000000
C1IE                              00000003
C1IF                              00000003
C1INV                             00000004
C1OUT                             00000006
C2IE                              00000004
C2IF                              00000004
C2INV                             00000005
C2OUT                             00000007
C2SYNC                            00000000
MPASM 5.75                   I2C SCANNER.ASM   3-19-2018  12:35:42         PAGE 200


SYMBOL TABLE
  LABEL                             VALUE 

CCP1_BIT                          00000002
CCP1_REG                          00000007
CHK?RP                            
CHS0                              00000002
CHS1                              00000003
CHS2                              00000004
CIS                               00000003
CLRWDT?                           
CLRWDT?NOP                        
CM0                               00000000
CM1                               00000001
CM2                               00000002
CMCON0                            00000019
CMCON1                            0000001A
CMP                               000000CF
CMPGE                             000000CC
CMPGE?WCL                         
CMPGE_USED                        00000001
CMPGT?BCL                         
CMPNE?BCL                         
CMP_USED                          00000001
CODE_SIZE                         4
CREN                              00000004
CSRC                              00000007
DC                                00000001
DEBUGIN_BIT                       00000000
DEBUGIN_MODE                      00000001
DEBUGIN_REG                       00000005
DEBUG_BAUD                        00000960
DEBUG_BIT                         00000000
DEBUG_DELAY                       0000019A
DEBUG_MODE                        00000001
DEBUG_REG                         00000005
DIV                               000000DF
DIV32DIV                          000000E1
DIV_USED                          00000001
DONE                              000000FB
DONERET                           000000FF
DONE_USED                         00000001
EEADR                             0000009B
EEADRH                            00000098
EECON1                            0000009C
EECON2                            0000009D
EEDAT                             0000009A
EEDATA                            0000009A
EEDATH                            00000097
EEIE                              00000007
EEIF                              00000007
EEPGD                             00000007
EEPROM_END                        000021FF
EEPROM_START                      00002100
END?                              
F                                 00000001
MPASM 5.75                   I2C SCANNER.ASM   3-19-2018  12:35:42         PAGE 201


SYMBOL TABLE
  LABEL                             VALUE 

FERR                              00000002
FLAGS                             00000032
FLAGS_USED                        00000001
FSR                               00000004
GIE                               00000007
GO                                00000001
GOP                               00000033
GOSUB?L                           
GOTO?L                            
GO_DONE                           00000001
GO_NOT_DONE                       00000001
HSER_BAUD                         00000960
HSER_BITS                         00000008
HSER_RCSTA                        00000090
HSER_SPBRG                        00000033
HSER_TXSTA                        00000020
HTS                               00000002
I2CCLOCK?T                        
I2CDATA?T                         
I2CFIRSTFLAG                      FLAGS, 2
I2CREADFLAG                       FLAGS, 3
I2CSTOPFLAG                       FLAGS, 5
I2CSTOPSTRFLAG                    FLAGS, 6
I2CWRITE                          00000004
I2CWRITE?BL                       
I2CWRITEFLAG                      FLAGS, 4
I2CWRITES                         00000002
I2CWRITES?CL                      
I2CWRITE_USED                     00000001
INDF                              00000000
INIT                              00000100
INPUT?T                           
INTCON                            0000000B
INTE                              00000004
INTEDG                            00000006
INTF                              00000001
IOC                               00000096
IOC0                              00000000
IOC1                              00000001
IOC2                              00000002
IOC3                              00000003
IOC4                              00000004
IOC5                              00000005
IOCA                              00000096
IOCA0                             00000000
IOCA1                             00000001
IOCA2                             00000002
IOCA3                             00000003
IOCA4                             00000004
IOCA5                             00000005
IRCF0                             00000004
IRCF1                             00000005
IRCF2                             00000006
MPASM 5.75                   I2C SCANNER.ASM   3-19-2018  12:35:42         PAGE 202


SYMBOL TABLE
  LABEL                             VALUE 

IRP                               00000007
L00001                            00000159
L00002                            0000019E
L00003                            00000199
L00005                            0000018B
L00007                            000001D7
L00009                            0000023B
L00010                            0000024D
L?CALL                            
L?GOTO                            
LABEL?L                           
LCDCDFLAG                         FLAGS, 0
LCDINITFLAG                       FLAGS, 1
LCD_BITS                          00000004
LCD_COMMANDUS                     000007D0
LCD_DATAUS                        00000032
LCD_DBIT                          00000000
LCD_DREG                          00000005
LCD_EBIT                          00000003
LCD_EREG                          00000006
LCD_LINES                         00000002
LCD_RSBIT                         00000004
LCD_RSREG                         00000005
LCD_RWBIT                         00000004
LCD_RWREG                         00000005
LTS                               00000001
MOVE?AB                           
MOVE?AT                           
MOVE?AW                           
MOVE?AWW                          
MOVE?BA                           
MOVE?BB                           
MOVE?BT                           
MOVE?BW                           
MOVE?CA                           
MOVE?CB                           
MOVE?CT                           
MOVE?CW                           
MOVE?TA                           
MOVE?TB                           
MOVE?TT                           
MOVE?TW                           
MOVE?WA                           
MOVE?WB                           
MOVE?WT                           
MOVE?WW                           
MOVE?WWA                          
MPASMX_USED                       00000001
NEXT?BCL                          
NOT_BOD                           00000000
NOT_BOR                           00000000
NOT_DONE                          00000001
NOT_PD                            00000003
MPASM 5.75                   I2C SCANNER.ASM   3-19-2018  12:35:42         PAGE 203


SYMBOL TABLE
  LABEL                             VALUE 

NOT_POR                           00000001
NOT_RAPU                          00000007
NOT_T1SYNC                        00000002
NOT_TO                            00000004
OERR                              00000001
OPTION_REG                        00000081
OSC                               8
OSCCON                            0000008F
OSCTUNE                           00000090
OSC_VALID                         00000001
OSFIE                             00000002
OSFIF                             00000002
OSTS                              00000003
OUTPUT?T                          
PAUSE                             000000AB
PAUSE?C                           
PAUSEL                            000000AC
PAUSEUS                           000000B8
PAUSEUSL                          000000B9
PAUSEUS_USED                      00000001
PAUSE_DELAY                       000003E3
PAUSE_USED                        00000001
PBP_HARDWAREDEF                   
PBP_PATH                          C:\PROGRAM FILES (X86)\PBP3\
PCL                               00000002
PCLATH                            0000000A
PCON                              0000008E
PEIE                              00000006
PIE1                              0000008C
PIR1                              0000000C
PORTA                             00000005
PORTB                             00000006
PORTC                             00000007
PREV_BANK                         00000000
PS0                               00000000
PS1                               00000001
PS2                               00000002
PSA                               00000003
R0                                00000020
R1                                00000022
R2                                00000024
R3                                00000026
R4                                00000028
R5                                0000002A
R6                                0000002C
R7                                0000002E
R8                                00000030
RA0                               00000000
RA1                               00000001
RA2                               00000002
RA3                               00000003
RA4                               00000004
RA5                               00000005
MPASM 5.75                   I2C SCANNER.ASM   3-19-2018  12:35:42         PAGE 204


SYMBOL TABLE
  LABEL                             VALUE 

RAIE                              00000003
RAIF                              00000000
RAM_BANKS                         00000003
RAM_END                           0000016F
RAM_START                         00000020
RC0                               00000000
RC1                               00000001
RC2                               00000002
RC3                               00000003
RC4                               00000004
RC5                               00000005
RCIDL                             00000006
RCIE                              00000005
RCIF                              00000005
RCREG                             00000014
RCSTA                             00000017
RD                                00000000
RESET_ORG                         00000000
RETURN?                           
RM1                               00000034
RM2                               00000035
RP0                               00000005
RP1                               00000006
RR1                               00000036
RR2                               00000037
RST?RP                            
RX9                               00000006
RX9D                              00000000
SBODEN                            00000004
SCKP                              00000004
SCS                               00000000
SDELAY_1200                       00000329
SDELAY_2400                       00000189
SDELAY_300                        00000CED
SDELAY_9600                       00000050
SENDB                             00000003
SERDELAY_USED                     00000001
SERMODE?C                         
SEROUT                            0000006C
SEROUT?C                          
SEROUTD?B                         
SEROUTDEC                         0000004D
SEROUTDECL                        0000004E
SEROUTDEC_USED                    00000001
SEROUT_USED                       00000001
SERPIN?T                          
SPBRG                             00000013
SPBRGH                            00000012
SPEN                              00000007
SREN                              00000005
STATUS                            00000003
SWDTEN                            00000000
SYNC                              00000004
MPASM 5.75                   I2C SCANNER.ASM   3-19-2018  12:35:42         PAGE 205


SYMBOL TABLE
  LABEL                             VALUE 

T0CS                              00000005
T0IE                              00000005
T0IF                              00000002
T0SE                              00000004
T1CKPS0                           00000004
T1CKPS1                           00000005
T1CON                             00000010
T1GINV                            00000007
T1GSS                             00000001
T1IE                              00000000
T1IF                              00000000
T1OSCEN                           00000003
TMR0                              00000001
TMR0IE                            00000005
TMR0IF                            00000002
TMR1                              0000000E
TMR1CS                            00000001
TMR1GE                            00000006
TMR1H                             0000000F
TMR1IE                            00000000
TMR1IF                            00000000
TMR1L                             0000000E
TMR1ON                            00000000
TRISA                             00000085
TRISA0                            00000000
TRISA1                            00000001
TRISA2                            00000002
TRISA3                            00000003
TRISA4                            00000004
TRISA5                            00000005
TRISC                             00000087
TRISC0                            00000000
TRISC1                            00000001
TRISC2                            00000002
TRISC3                            00000003
TRISC4                            00000004
TRISC5                            00000005
TRMT                              00000001
TUN0                              00000000
TUN1                              00000001
TUN2                              00000002
TUN3                              00000003
TUN4                              00000004
TX9                               00000006
TX9D                              00000000
TXEN                              00000005
TXIE                              00000001
TXIF                              00000001
TXREG                             00000015
TXSTA                             00000016
ULPWUE                            00000005
VCFG                              00000006
VR0                               00000000
MPASM 5.75                   I2C SCANNER.ASM   3-19-2018  12:35:42         PAGE 206


SYMBOL TABLE
  LABEL                             VALUE 

VR1                               00000001
VR2                               00000002
VR3                               00000003
VRCON                             00000099
VREN                              00000007
VRR                               00000005
W                                 00000000
WDTCON                            00000018
WDTPS0                            00000001
WDTPS1                            00000002
WDTPS2                            00000003
WDTPS3                            00000004
WPU                               00000095
WPU0                              00000000
WPU1                              00000001
WPU2                              00000002
WPU4                              00000004
WPU5                              00000005
WPUA                              00000095
WPUA0                             00000000
WPUA1                             00000001
WPUA2                             00000002
WPUA4                             00000004
WPUA5                             00000005
WR                                00000001
WREN                              00000002
WRERR                             00000003
WUE                               00000001
Z                                 00000002
_BELL                             00000007
_BKSP                             00000008
_BOD_NSLEEP                       00003EFF
_BOD_OFF                          00003CFF
_BOD_ON                           00003FFF
_BOD_SBODEN                       00003DFF
_BOREN_NSLEEP                     00003EFF
_BOREN_OFF                        00003CFF
_BOREN_ON                         00003FFF
_BOREN_SBODEN                     00003DFF
_BOR_NSLEEP                       00003EFF
_BOR_OFF                          00003CFF
_BOR_ON                           00003FFF
_BOR_SBODEN                       00003DFF
_Bright                           00000016
_CLS                              00000000
_CONFIG                           00002007
_COUNTER                          0000003A
_CPD_OFF                          00003FFF
_CPD_ON                           00003F7F
_CP_OFF                           00003FFF
_CP_ON                            00003FBF
_CR                               0000000D
_CRLF                             0000022D
MPASM 5.75                   I2C SCANNER.ASM   3-19-2018  12:35:42         PAGE 207


SYMBOL TABLE
  LABEL                             VALUE 

_DEVID1                           00002006
_DIS_CUR                          00000220
_DSP                              _PORTA??0
_Dim                              0000001E
_EC_OSC                           00003FFB
_EXTRC                            00003FFF
_EXTRCIO                          00003FFE
_EXTRC_OSC_CLKOUT                 00003FFF
_EXTRC_OSC_NOCLKOUT               00003FFE
_FCMEN_OFF                        000037FF
_FCMEN_ON                         00003FFF
_FOSC_EC                          00003FFB
_FOSC_EXTRCCLK                    00003FFF
_FOSC_EXTRCIO                     00003FFE
_FOSC_HS                          00003FFA
_FOSC_INTOSCCLK                   00003FFD
_FOSC_INTOSCIO                    00003FFC
_FOSC_LP                          00003FF8
_FOSC_XT                          00003FF9
_HOME                             00000001
_HS_OSC                           00003FFA
_I                                0000003B
_I2C_ADDR                         0000003C
_IDLOC0                           00002000
_IDLOC1                           00002001
_IDLOC2                           00002002
_IDLOC3                           00002003
_IESO_OFF                         00003BFF
_IESO_ON                          00003FFF
_INIT_LCD                         000001E1
_INTOSC                           00003FFD
_INTOSCIO                         00003FFC
_INTRC_OSC_CLKOUT                 00003FFD
_INTRC_OSC_NOCLKOUT               00003FFC
_LED                              _PORTC??2
_LP_OSC                           00003FF8
_LSBFIRST                         00000000
_LSBPOST                          00000003
_LSBPRE                           00000001
_LightsOff                        00000010
_LightsOn                         00000014
_Line1                            000001F9
_Line2                            00000206
_MCLRE_OFF                        00003FDF
_MCLRE_ON                         00003FFF
_MSBFIRST                         00000001
_MSBPOST                          00000002
_MSBPRE                           00000000
_N1200                            00000005
_N2400                            00000004
_N300                             00000007
_N9600                            00000006
_NEXT_ADDR                        00000176
MPASM 5.75                   I2C SCANNER.ASM   3-19-2018  12:35:42         PAGE 208


SYMBOL TABLE
  LABEL                             VALUE 

_Not_found                        000001DA
_ON1200                           0000000D
_ON2400                           0000000C
_ON300                            0000000F
_ON9600                           0000000E
_OT1200                           00000009
_OT2400                           00000008
_OT300                            0000000B
_OT9600                           0000000A
_PORTA??0                         PORTA, 000h
_PORTA??4                         PORTA, 004h
_PORTA??5                         PORTA, 005h
_PORTC??2                         PORTC, 002h
_PORTH                            00000007
_PORTL                            00000005
_PWRTE_OFF                        00003FFF
_PWRTE_ON                         00003FEF
_SCL                              _PORTA??4
_SDA                              _PORTA??5
_T1200                            00000001
_T2400                            00000000
_T300                             00000003
_T9600                            00000002
_TAB                              00000009
_TRISH                            00000087
_TRISL                            00000085
_UnitOff                          0000001A
_UnitOn                           00000012
_UnitsOff                         0000001C
_VALID                            00000038
_WDTE_OFF                         00003FF7
_WDTE_ON                          00003FFF
_WDT_OFF                          00003FF7
_WDT_ON                           00003FFF
_XT_OSC                           00003FF9
__16F688                          00000001
_blink_cur                        00000213
_clr                              000001E9
_init_blink                       0000023A
_main                             00000156
cmpnoteq                          000000D6
divloop                           000000E3
divok                             000000F5
i2cckh                            00000049
i2cckl                            00000045
i2cdah                            0000001E
i2cdal                            00000024
i2cgetbit                         0000003F
i2chigh                           00000021
i2chl                             0000002A
i2chold                           0000004B
i2clow                            00000027
i2cstart                          0000002B
MPASM 5.75                   I2C SCANNER.ASM   3-19-2018  12:35:42         PAGE 209


SYMBOL TABLE
  LABEL                             VALUE 

i2cstop                           00000019
i2cwrite2                         0000000C
i2cwritec                         00000032
i2cwriteip                        00000014
i2cwriteloop                      00000035
main                              00000100
pauseloop                         000000AD
pauseush                          000000C2
pauseusloop                       000000BF
serdelay                          00000092
sergettbl                         0000009F
serouta                           0000006B
seroutbit                         00000078
seroutdig                         00000060
seroutloop                        00000072
seroutnorm                        00000087
sertable                          000000A3


MEMORY USAGE MAP ('X' = Used,  '-' = Unused)

0000 : XXXXXXXXXXXXXXXX XXXXXXXXXXXXXXXX XXXXXXXXXXXXXXXX XXXXXXXXXXXXXXXX
0040 : XXXXXXXXXXXXXXXX XXXXXXXXXXXXXXXX XXXXXXXXXXXXXXXX XXXXXXXXXXXXXXXX
0080 : XXXXXXXXXXXXXXXX XXXXXXXXXXXXXXXX XXXXXXXXXXXXXXXX XXXXXXXXXXXXXXXX
00C0 : XXXXXXXXXXXXXXXX XXXXXXXXXXXXXXXX XXXXXXXXXXXXXXXX XXXXXXXXXXXXXXXX
0100 : XXXXXXXXXXXXXXXX XXXXXXXXXXXXXXXX XXXXXXXXXXXXXXXX XXXXXXXXXXXXXXXX
0140 : XXXXXXXXXXXXXXXX XXXXXXXXXXXXXXXX XXXXXXXXXXXXXXXX XXXXXXXXXXXXXXXX
0180 : XXXXXXXXXXXXXXXX XXXXXXXXXXXXXXXX XXXXXXXXXXXXXXXX XXXXXXXXXXXXXXXX
01C0 : XXXXXXXXXXXXXXXX XXXXXXXXXXXXXXXX XXXXXXXXXXXXXXXX XXXXXXXXXXXXXXXX
0200 : XXXXXXXXXXXXXXXX XXXXXXXXXXXXXXXX XXXXXXXXXXXXXXXX XXXXXXXXXXXXXXXX
0240 : XXXXXXXXXXXXXX-- ---------------- ---------------- ----------------
2000 : -------X-------- ---------------- ---------------- ----------------

All other memory blocks unused.

Program Memory Words Used:   590
Program Memory Words Free:  3506


Errors   :     0
Warnings :     0 reported,     0 suppressed
Messages :     0 reported,    14 suppressed

